ARM Linker, 4.1 [Build 894] [Standard]

==============================================================================

Section Cross References

    nrk_cpu.o(i._Z16nrk_target_startv) refers to nrk_timer.o(i._Z16_nrk_setup_timerv) for _nrk_setup_timer()
    nrk_cpu.o(i._Z16nrk_task_set_stkP9task_typePjt) refers to nrk_error.o(i._Z13nrk_error_addh) for nrk_error_add(unsigned char)
    nrk_cpu.o(i._Z22nrk_stack_pointer_initv) refers to nrk.o(.bss) for nrk_kernel_stk
    nrk_cpu.o(i._Z22nrk_stack_pointer_initv) refers to nrk.o(.data) for nrk_kernel_stk_ptr
    nrk_cpu.o(i._Z22nrk_stack_pointer_initv) refers to nrk.o(i._nrk_timer_tick) for _nrk_timer_tick
    nrk_cpu.o(i._Z25nrk_stack_pointer_restorev) refers to nrk.o(.bss) for nrk_kernel_stk
    nrk_cpu.o(i._Z25nrk_stack_pointer_restorev) refers to nrk.o(i._nrk_timer_tick) for _nrk_timer_tick
    nrk_cpu.o(i._Z25nrk_stack_pointer_restorev) refers to nrk.o(.data) for nrk_kernel_stk_ptr
    nrk_cpu.o(.ARM.exidx) refers to nrk_cpu.o(i._Z16nrk_battery_savev) for i._Z16nrk_battery_savev
    nrk_cpu.o(.ARM.exidx) refers to nrk_cpu.o(i._Z9nrk_sleepv) for i._Z9nrk_sleepv
    nrk_cpu.o(.ARM.exidx) refers to nrk_cpu.o(i._Z8nrk_idlev) for i._Z8nrk_idlev
    nrk_cpu.o(.ARM.exidx) refers to nrk_cpu.o(i._Z27nrk_task_set_entry_functionP9task_typePFvvE) for i._Z27nrk_task_set_entry_functionP9task_typePFvvE
    nrk_cpu.o(.ARM.exidx) refers to nrk_cpu.o(i._Z16nrk_task_set_stkP9task_typePjt) for i._Z16nrk_task_set_stkP9task_typePjt
    nrk_cpu.o(.ARM.exidx) refers to nrk_cpu.o(i._Z17nrk_task_stk_initPFvvEPjS1_) for i._Z17nrk_task_stk_initPFvvEPjS1_
    nrk_cpu.o(.ARM.exidx) refers to nrk_cpu.o(i._Z22nrk_stack_pointer_initv) for i._Z22nrk_stack_pointer_initv
    nrk_cpu.o(.ARM.exidx) refers to nrk_cpu.o(i._Z25nrk_stack_pointer_restorev) for i._Z25nrk_stack_pointer_restorev
    nrk_cpu.o(.ARM.exidx) refers to nrk_cpu.o(i._Z16nrk_target_startv) for i._Z16nrk_target_startv
    nrk_status.o(.ARM.exidx) refers to nrk_status.o(i._Z18_nrk_startup_errorv) for i._Z18_nrk_startup_errorv
    nrk_timer.o(i.TIMER0_IRQHandler) refers to my_asm.o(.text) for _swap
    nrk_timer.o(i._Z16_nrk_setup_timerv) refers to nrk_timer.o(i._Z14NVIC_EnableIRQ4IRQn) for NVIC_EnableIRQ(IRQn)
    nrk_timer.o(i._Z16_nrk_setup_timerv) refers to nrk_timer.o(i._Z19_nrk_os_timer_resetv) for _nrk_os_timer_reset()
    nrk_timer.o(i._Z16_nrk_setup_timerv) refers to nrk_timer.o(i._Z19_nrk_os_timer_startv) for _nrk_os_timer_start()
    nrk_timer.o(i._Z16_nrk_setup_timerv) refers to nrk_timer.o(.data) for .data
    nrk_timer.o(i._Z16nrk_spin_wait_usj) refers to wait_api.c.lpc1768.arm.o(i.wait_us) for wait_us
    nrk_timer.o(i._Z19_nrk_os_timer_resetv) refers to nrk_timer.o(.data) for .data
    nrk_timer.o(i._Z25nrk_high_speed_timer_waittt) refers to nrk_timer.o(i._Z25_nrk_high_speed_timer_getv) for _nrk_high_speed_timer_get()
    nrk_timer.o(.ARM.exidx) refers to nrk_timer.o(i._Z16nrk_spin_wait_usj) for i._Z16nrk_spin_wait_usj
    nrk_timer.o(.ARM.exidx) refers to nrk_timer.o(i._Z19_nrk_os_timer_startv) for i._Z19_nrk_os_timer_startv
    nrk_timer.o(.ARM.exidx) refers to nrk_timer.o(i._Z19_nrk_os_timer_resetv) for i._Z19_nrk_os_timer_resetv
    nrk_timer.o(.ARM.exidx) refers to nrk_timer.o(i._Z16_nrk_setup_timerv) for i._Z16_nrk_setup_timerv
    nrk_timer.o(.ARM.exidx) refers to nrk_timer.o(i._Z26_nrk_high_speed_timer_stopv) for i._Z26_nrk_high_speed_timer_stopv
    nrk_timer.o(.ARM.exidx) refers to nrk_timer.o(i._Z27_nrk_high_speed_timer_startv) for i._Z27_nrk_high_speed_timer_startv
    nrk_timer.o(.ARM.exidx) refers to nrk_timer.o(i._Z27_nrk_high_speed_timer_resetv) for i._Z27_nrk_high_speed_timer_resetv
    nrk_timer.o(.ARM.exidx) refers to nrk_timer.o(i._Z25_nrk_high_speed_timer_getv) for i._Z25_nrk_high_speed_timer_getv
    nrk_timer.o(.ARM.exidx) refers to nrk_timer.o(i._Z25nrk_high_speed_timer_waittt) for i._Z25nrk_high_speed_timer_waittt
    nrk_timer.o(.ARM.exidx) refers to nrk_timer.o(i._Z18_nrk_os_timer_stopv) for i._Z18_nrk_os_timer_stopv
    nrk_timer.o(.ARM.exidx) refers to nrk_timer.o(i._Z17_nrk_os_timer_seth) for i._Z17_nrk_os_timer_seth
    nrk_timer.o(.ARM.exidx) refers to nrk_timer.o(i._Z20_nrk_get_next_wakeupv) for i._Z20_nrk_get_next_wakeupv
    nrk_timer.o(.ARM.exidx) refers to nrk_timer.o(i._Z20_nrk_set_next_wakeuph) for i._Z20_nrk_set_next_wakeuph
    nrk_timer.o(.ARM.exidx) refers to nrk_timer.o(i._Z18nrk_timer_int_stoph) for i._Z18nrk_timer_int_stoph
    nrk_timer.o(.ARM.exidx) refers to nrk_timer.o(i._Z19nrk_timer_int_reseth) for i._Z19nrk_timer_int_reseth
    nrk_timer.o(.ARM.exidx) refers to nrk_timer.o(i._Z18nrk_timer_int_readh) for i._Z18nrk_timer_int_readh
    nrk_timer.o(.ARM.exidx) refers to nrk_timer.o(i._Z19nrk_timer_int_starth) for i._Z19nrk_timer_int_starth
    nrk_timer.o(.ARM.exidx) refers to nrk_timer.o(i._Z23nrk_timer_int_configurehttPv) for i._Z23nrk_timer_int_configurehttPv
    nrk_timer.o(.ARM.exidx) refers to nrk_timer.o(i._Z17_nrk_os_timer_getv) for i._Z17_nrk_os_timer_getv
    nrk_timer.o(.ARM.exidx) refers to nrk_timer.o(i.TIMER0_IRQHandler) for i.TIMER0_IRQHandler
    nrk_timer.o(.ARM.exidx) refers to nrk_timer.o(i.TIMER1_IRQHandler) for i.TIMER1_IRQHandler
    nrk_timer.o(.ARM.exidx) refers to nrk_timer.o(i._Z14NVIC_EnableIRQ4IRQn) for i._Z14NVIC_EnableIRQ4IRQn
    nrk_watchdog.o(i._Z19nrk_watchdog_enablev) refers to fflt_clz.o(x$fpl$ffltu) for __aeabi_ui2f
    nrk_watchdog.o(i._Z19nrk_watchdog_enablev) refers to fmul.o(x$fpl$fmul) for __aeabi_fmul
    nrk_watchdog.o(i._Z19nrk_watchdog_enablev) refers to ffixu.o(x$fpl$ffixu) for __aeabi_f2uiz
    nrk_watchdog.o(i._Z19nrk_watchdog_enablev) refers to system_LPC17xx.o(.data) for SystemCoreClock
    nrk_watchdog.o(.ARM.exidx) refers to nrk_watchdog.o(i._Z20nrk_watchdog_disablev) for i._Z20nrk_watchdog_disablev
    nrk_watchdog.o(.ARM.exidx) refers to nrk_watchdog.o(i._Z19nrk_watchdog_enablev) for i._Z19nrk_watchdog_enablev
    nrk_watchdog.o(.ARM.exidx) refers to nrk_watchdog.o(i._Z18nrk_watchdog_checkv) for i._Z18nrk_watchdog_checkv
    nrk.o(i._Z12nrk_TCB_initP9task_typePjS1_tPvt) refers to nrk_error.o(i._Z20nrk_kernel_error_addhh) for nrk_kernel_error_add(unsigned char, unsigned char)
    nrk.o(i._Z12nrk_TCB_initP9task_typePjS1_tPvt) refers to nrk_time.o(i._Z18_nrk_time_to_ticksP10nrk_time_t) for _nrk_time_to_ticks(nrk_time_t*)
    nrk.o(i._Z12nrk_TCB_initP9task_typePjS1_tPvt) refers to nrk.o(.data) for .data
    nrk.o(i._Z12nrk_TCB_initP9task_typePjS1_tPvt) refers to nrk.o(.bss) for .bss
    nrk.o(i._Z8nrk_initv) refers to nrk_cpu.o(i._Z27nrk_task_set_entry_functionP9task_typePFvvE) for nrk_task_set_entry_function(task_type*, void(*)())
    nrk.o(i._Z8nrk_initv) refers to nrk_cpu.o(i._Z16nrk_task_set_stkP9task_typePjt) for nrk_task_set_stk(task_type*, unsigned*, unsigned short)
    nrk.o(i._Z8nrk_initv) refers to nrk_task.o(i._Z17nrk_activate_taskP9task_type) for nrk_activate_task(task_type*)
    nrk.o(i._Z8nrk_initv) refers to nrk.o(.data) for .data
    nrk.o(i._Z8nrk_initv) refers to nrk.o(.bss) for .bss
    nrk.o(i._Z8nrk_initv) refers to nrk_idle_task.o(i._Z13nrk_idle_taskv) for nrk_idle_task()
    nrk.o(i._Z9nrk_startv) refers to nrk_error.o(i._Z20nrk_kernel_error_addhh) for nrk_kernel_error_add(unsigned char, unsigned char)
    nrk.o(i._Z9nrk_startv) refers to nrk_task.o(i._Z26nrk_get_high_ready_task_IDv) for nrk_get_high_ready_task_ID()
    nrk.o(i._Z9nrk_startv) refers to nrk_cpu.o(i._Z16nrk_target_startv) for nrk_target_start()
    nrk.o(i._Z9nrk_startv) refers to nrk_cpu.o(i._Z22nrk_stack_pointer_initv) for nrk_stack_pointer_init()
    nrk.o(i._Z9nrk_startv) refers to my_asm.o(.text) for nrk_start_high_ready_task
    nrk.o(i._Z9nrk_startv) refers to nrk.o(.bss) for .bss
    nrk.o(i._Z9nrk_startv) refers to nrk.o(.data) for .data
    nrk.o(i._Z9nrk_startv) refers to nrk_scheduler.o(.data) for task_addr
    nrk.o(i._nrk_timer_tick) refers to nrk_scheduler.o(i._Z14_nrk_schedulerv) for _nrk_scheduler()
    nrk.o(.ARM.exidx) refers to nrk.o(i._Z15nrk_int_disablev) for i._Z15nrk_int_disablev
    nrk.o(.ARM.exidx) refers to nrk.o(i._Z14nrk_int_enablev) for i._Z14nrk_int_enablev
    nrk.o(.ARM.exidx) refers to nrk.o(i._Z8nrk_haltv) for i._Z8nrk_haltv
    nrk.o(.ARM.exidx) refers to nrk.o(i._Z8nrk_initv) for i._Z8nrk_initv
    nrk.o(.ARM.exidx) refers to nrk.o(i._Z9nrk_startv) for i._Z9nrk_startv
    nrk.o(.ARM.exidx) refers to nrk.o(i._Z12nrk_TCB_initP9task_typePjS1_tPvt) for i._Z12nrk_TCB_initP9task_typePjS1_tPvt
    nrk.o(.ARM.exidx) refers to nrk.o(i._nrk_timer_tick) for i._nrk_timer_tick
    nrk.o(.ARM.exidx) refers to nrk.o(i._Z11nrk_versionv) for i._Z11nrk_versionv
    nrk_error.o(i._Z10blink_dashv) refers to ulib.o(i._Z11nrk_led_seti) for nrk_led_set(int)
    nrk_error.o(i._Z10blink_dashv) refers to nrk_error.o(i._Z5pausev) for pause()
    nrk_error.o(i._Z10blink_dashv) refers to ulib.o(i._Z11nrk_led_clri) for nrk_led_clr(int)
    nrk_error.o(i._Z13nrk_errno_getv) refers to nrk.o(.data) for nrk_cur_task_TCB
    nrk_error.o(i._Z13nrk_error_addh) refers to nrk_error.o(.data) for .data
    nrk_error.o(i._Z13nrk_error_addh) refers to nrk.o(.data) for nrk_cur_task_TCB
    nrk_error.o(i._Z13nrk_error_getPhS_) refers to nrk_error.o(.data) for .data
    nrk_error.o(i._Z14_nrk_errno_seth) refers to nrk.o(.data) for nrk_cur_task_TCB
    nrk_error.o(i._Z15nrk_error_printv) refers to _printf_percent.o(.ARM.Collect$$_printf_percent$$00000000) for _printf_percent
    nrk_error.o(i._Z15nrk_error_printv) refers to _printf_d.o(.ARM.Collect$$_printf_percent$$00000009) for _printf_d
    nrk_error.o(i._Z15nrk_error_printv) refers to _printf_dec.o(.text) for _printf_int_dec
    nrk_error.o(i._Z15nrk_error_printv) refers to nrk.o(i._Z15nrk_int_disablev) for nrk_int_disable()
    nrk_error.o(i._Z15nrk_error_printv) refers to ulib.o(i._Z11nrk_kprintfPKc) for nrk_kprintf(const char*)
    nrk_error.o(i._Z15nrk_error_printv) refers to __2printf.o(.text) for __2printf
    nrk_error.o(i._Z15nrk_error_printv) refers to putc.o(.text) for putc
    nrk_error.o(i._Z15nrk_error_printv) refers to nrk_error.o(.data) for .data
    nrk_error.o(i._Z15nrk_error_printv) refers to stdio_streams.o(.bss) for __stdout
    nrk_error.o(i._Z20nrk_kernel_error_addhh) refers to nrk_error.o(.data) for .data
    nrk_error.o(i._Z22blink_morse_code_errorh) refers to _printf_percent.o(.ARM.Collect$$_printf_percent$$00000000) for _printf_percent
    nrk_error.o(i._Z22blink_morse_code_errorh) refers to _printf_d.o(.ARM.Collect$$_printf_percent$$00000009) for _printf_d
    nrk_error.o(i._Z22blink_morse_code_errorh) refers to _printf_dec.o(.text) for _printf_int_dec
    nrk_error.o(i._Z22blink_morse_code_errorh) refers to __2sprintf.o(.text) for __2sprintf
    nrk_error.o(i._Z22blink_morse_code_errorh) refers to nrk_error.o(i._Z10blink_dashv) for blink_dash()
    nrk_error.o(i._Z22blink_morse_code_errorh) refers to nrk_error.o(i._Z9blink_dotv) for blink_dot()
    nrk_error.o(i._Z22blink_morse_code_errorh) refers to nrk_error.o(i._Z5pausev) for pause()
    nrk_error.o(i._Z22blink_morse_code_errorh) refers to strlen.o(.text) for strlen
    nrk_error.o(i._Z5pausev) refers to nrk_timer.o(i._Z16nrk_spin_wait_usj) for nrk_spin_wait_us(unsigned)
    nrk_error.o(i._Z9blink_dotv) refers to ulib.o(i._Z11nrk_led_seti) for nrk_led_set(int)
    nrk_error.o(i._Z9blink_dotv) refers to nrk_error.o(i._Z5pausev) for pause()
    nrk_error.o(i._Z9blink_dotv) refers to ulib.o(i._Z11nrk_led_clri) for nrk_led_clr(int)
    nrk_error.o(.ARM.exidx) refers to nrk_error.o(i._Z14_nrk_errno_seth) for i._Z14_nrk_errno_seth
    nrk_error.o(.ARM.exidx) refers to nrk_error.o(i._Z13nrk_errno_getv) for i._Z13nrk_errno_getv
    nrk_error.o(.ARM.exidx) refers to nrk_error.o(i._Z13nrk_error_addh) for i._Z13nrk_error_addh
    nrk_error.o(.ARM.exidx) refers to nrk_error.o(i._Z20nrk_kernel_error_addhh) for i._Z20nrk_kernel_error_addhh
    nrk_error.o(.ARM.exidx) refers to nrk_error.o(i._Z13nrk_error_getPhS_) for i._Z13nrk_error_getPhS_
    nrk_error.o(.ARM.exidx) refers to nrk_error.o(i._Z15nrk_error_printv) for i._Z15nrk_error_printv
    nrk_error.o(.ARM.exidx) refers to nrk_error.o(i._Z5pausev) for i._Z5pausev
    nrk_error.o(.ARM.exidx) refers to nrk_error.o(i._Z10blink_dashv) for i._Z10blink_dashv
    nrk_error.o(.ARM.exidx) refers to nrk_error.o(i._Z9blink_dotv) for i._Z9blink_dotv
    nrk_error.o(.ARM.exidx) refers to nrk_error.o(i._Z22blink_morse_code_errorh) for i._Z22blink_morse_code_errorh
    nrk_events.o(i._Z12nrk_sem_pendP14semaphore_type) refers to nrk_events.o(i._Z22nrk_get_resource_indexP14semaphore_type) for nrk_get_resource_index(semaphore_type*)
    nrk_events.o(i._Z12nrk_sem_pendP14semaphore_type) refers to nrk.o(i._Z15nrk_int_disablev) for nrk_int_disable()
    nrk_events.o(i._Z12nrk_sem_pendP14semaphore_type) refers to nrk_error.o(i._Z14_nrk_errno_seth) for _nrk_errno_set(unsigned char)
    nrk_events.o(i._Z12nrk_sem_pendP14semaphore_type) refers to nrk.o(i._Z14nrk_int_enablev) for nrk_int_enable()
    nrk_events.o(i._Z12nrk_sem_pendP14semaphore_type) refers to nrk_task.o(i._Z20nrk_wait_until_tickst) for nrk_wait_until_ticks(unsigned short)
    nrk_events.o(i._Z12nrk_sem_pendP14semaphore_type) refers to nrk.o(.data) for nrk_sem_list
    nrk_events.o(i._Z12nrk_sem_pendP14semaphore_type) refers to nrk.o(.data) for nrk_cur_task_TCB
    nrk_events.o(i._Z12nrk_sem_postP14semaphore_type) refers to nrk_events.o(i._Z22nrk_get_resource_indexP14semaphore_type) for nrk_get_resource_index(semaphore_type*)
    nrk_events.o(i._Z12nrk_sem_postP14semaphore_type) refers to nrk.o(i._Z15nrk_int_disablev) for nrk_int_disable()
    nrk_events.o(i._Z12nrk_sem_postP14semaphore_type) refers to nrk_error.o(i._Z14_nrk_errno_seth) for _nrk_errno_set(unsigned char)
    nrk_events.o(i._Z12nrk_sem_postP14semaphore_type) refers to nrk.o(i._Z14nrk_int_enablev) for nrk_int_enable()
    nrk_events.o(i._Z12nrk_sem_postP14semaphore_type) refers to nrk.o(.data) for nrk_sem_list
    nrk_events.o(i._Z12nrk_sem_postP14semaphore_type) refers to nrk.o(.data) for nrk_cur_task_TCB
    nrk_events.o(i._Z12nrk_sem_postP14semaphore_type) refers to nrk.o(.bss) for nrk_task_TCB
    nrk_events.o(i._Z13nrk_sem_queryP14semaphore_type) refers to nrk_events.o(i._Z22nrk_get_resource_indexP14semaphore_type) for nrk_get_resource_index(semaphore_type*)
    nrk_events.o(i._Z13nrk_sem_queryP14semaphore_type) refers to nrk_error.o(i._Z14_nrk_errno_seth) for _nrk_errno_set(unsigned char)
    nrk_events.o(i._Z13nrk_sem_queryP14semaphore_type) refers to nrk.o(.data) for nrk_sem_list
    nrk_events.o(i._Z14nrk_event_waitj) refers to nrk_task.o(i._Z17nrk_wait_until_nwv) for nrk_wait_until_nw()
    nrk_events.o(i._Z14nrk_event_waitj) refers to nrk_task.o(i._Z20nrk_wait_until_tickst) for nrk_wait_until_ticks(unsigned short)
    nrk_events.o(i._Z14nrk_event_waitj) refers to nrk.o(.data) for nrk_cur_task_TCB
    nrk_events.o(i._Z14nrk_event_waitj) refers to nrk.o(.data) for nrk_wakeup_signal
    nrk_events.o(i._Z14nrk_sem_createhh) refers to nrk.o(.data) for _nrk_resource_cnt
    nrk_events.o(i._Z14nrk_sem_createhh) refers to nrk.o(.data) for nrk_sem_list
    nrk_events.o(i._Z14nrk_sem_deleteP14semaphore_type) refers to nrk_events.o(i._Z22nrk_get_resource_indexP14semaphore_type) for nrk_get_resource_index(semaphore_type*)
    nrk_events.o(i._Z14nrk_sem_deleteP14semaphore_type) refers to nrk_error.o(i._Z14_nrk_errno_seth) for _nrk_errno_set(unsigned char)
    nrk_events.o(i._Z14nrk_sem_deleteP14semaphore_type) refers to nrk.o(.data) for nrk_sem_list
    nrk_events.o(i._Z14nrk_sem_deleteP14semaphore_type) refers to nrk.o(.data) for _nrk_resource_cnt
    nrk_events.o(i._Z16nrk_event_signala) refers to nrk.o(i._Z15nrk_int_disablev) for nrk_int_disable()
    nrk_events.o(i._Z16nrk_event_signala) refers to nrk.o(i._Z14nrk_int_enablev) for nrk_int_enable()
    nrk_events.o(i._Z16nrk_event_signala) refers to nrk_error.o(i._Z14_nrk_errno_seth) for _nrk_errno_set(unsigned char)
    nrk_events.o(i._Z16nrk_event_signala) refers to nrk_events.o(.data) for .data
    nrk_events.o(i._Z16nrk_event_signala) refers to nrk.o(.bss) for nrk_task_TCB
    nrk_events.o(i._Z17nrk_signal_createv) refers to nrk_events.o(.data) for .data
    nrk_events.o(i._Z17nrk_signal_deletea) refers to nrk.o(i._Z15nrk_int_disablev) for nrk_int_disable()
    nrk_events.o(i._Z17nrk_signal_deletea) refers to nrk.o(i._Z14nrk_int_enablev) for nrk_int_enable()
    nrk_events.o(i._Z17nrk_signal_deletea) refers to nrk_events.o(.data) for .data
    nrk_events.o(i._Z17nrk_signal_deletea) refers to nrk.o(.bss) for nrk_task_TCB
    nrk_events.o(i._Z19nrk_signal_registera) refers to nrk_events.o(.data) for .data
    nrk_events.o(i._Z19nrk_signal_registera) refers to nrk.o(.data) for nrk_cur_task_TCB
    nrk_events.o(i._Z21nrk_signal_unregistera) refers to nrk.o(.data) for nrk_cur_task_TCB
    nrk_events.o(i._Z22nrk_get_resource_indexP14semaphore_type) refers to nrk.o(.data) for nrk_sem_list
    nrk_events.o(i._Z30nrk_signal_get_registered_maskv) refers to nrk.o(.data) for nrk_cur_task_TCB
    nrk_events.o(.ARM.exidx) refers to nrk_events.o(i._Z17nrk_signal_createv) for i._Z17nrk_signal_createv
    nrk_events.o(.ARM.exidx) refers to nrk_events.o(i._Z30nrk_signal_get_registered_maskv) for i._Z30nrk_signal_get_registered_maskv
    nrk_events.o(.ARM.exidx) refers to nrk_events.o(i._Z17nrk_signal_deletea) for i._Z17nrk_signal_deletea
    nrk_events.o(.ARM.exidx) refers to nrk_events.o(i._Z21nrk_signal_unregistera) for i._Z21nrk_signal_unregistera
    nrk_events.o(.ARM.exidx) refers to nrk_events.o(i._Z19nrk_signal_registera) for i._Z19nrk_signal_registera
    nrk_events.o(.ARM.exidx) refers to nrk_events.o(i._Z16nrk_event_signala) for i._Z16nrk_event_signala
    nrk_events.o(.ARM.exidx) refers to nrk_events.o(i._Z14nrk_event_waitj) for i._Z14nrk_event_waitj
    nrk_events.o(.ARM.exidx) refers to nrk_events.o(i._Z22nrk_get_resource_indexP14semaphore_type) for i._Z22nrk_get_resource_indexP14semaphore_type
    nrk_events.o(.ARM.exidx) refers to nrk_events.o(i._Z13nrk_sem_queryP14semaphore_type) for i._Z13nrk_sem_queryP14semaphore_type
    nrk_events.o(.ARM.exidx) refers to nrk_events.o(i._Z12nrk_sem_pendP14semaphore_type) for i._Z12nrk_sem_pendP14semaphore_type
    nrk_events.o(.ARM.exidx) refers to nrk_events.o(i._Z12nrk_sem_postP14semaphore_type) for i._Z12nrk_sem_postP14semaphore_type
    nrk_events.o(.ARM.exidx) refers to nrk_events.o(i._Z14nrk_sem_deleteP14semaphore_type) for i._Z14nrk_sem_deleteP14semaphore_type
    nrk_events.o(.ARM.exidx) refers to nrk_events.o(i._Z14nrk_sem_createhh) for i._Z14nrk_sem_createhh
    nrk_idle_task.o(i._Z13nrk_idle_taskv) refers to nrk_timer.o(i._Z20_nrk_get_next_wakeupv) for _nrk_get_next_wakeup()
    nrk_idle_task.o(i._Z13nrk_idle_taskv) refers to nrk_scheduler.o(.data) for _nrk_cpu_state
    nrk_idle_task.o(.ARM.exidx) refers to nrk_idle_task.o(i._Z13nrk_idle_taskv) for i._Z13nrk_idle_taskv
    nrk_scheduler.o(i._Z14_nrk_schedulerv) refers to nrk.o(i._Z15nrk_int_disablev) for nrk_int_disable()
    nrk_scheduler.o(i._Z14_nrk_schedulerv) refers to nrk_timer.o(i._Z27_nrk_high_speed_timer_resetv) for _nrk_high_speed_timer_reset()
    nrk_scheduler.o(i._Z14_nrk_schedulerv) refers to nrk_timer.o(i._Z25_nrk_high_speed_timer_getv) for _nrk_high_speed_timer_get()
    nrk_scheduler.o(i._Z14_nrk_schedulerv) refers to nrk_timer.o(i._Z20_nrk_set_next_wakeuph) for _nrk_set_next_wakeup(unsigned char)
    nrk_scheduler.o(i._Z14_nrk_schedulerv) refers to nrk_task.o(i._Z19nrk_rem_from_readyQa) for nrk_rem_from_readyQ(signed char)
    nrk_scheduler.o(i._Z14_nrk_schedulerv) refers to nrk_error.o(i._Z20nrk_kernel_error_addhh) for nrk_kernel_error_add(unsigned char, unsigned char)
    nrk_scheduler.o(i._Z14_nrk_schedulerv) refers to nrk_task.o(i._Z17nrk_add_to_readyQa) for nrk_add_to_readyQ(signed char)
    nrk_scheduler.o(i._Z14_nrk_schedulerv) refers to nrk_task.o(i._Z26nrk_get_high_ready_task_IDv) for nrk_get_high_ready_task_ID()
    nrk_scheduler.o(i._Z14_nrk_schedulerv) refers to nrk_timer.o(i._Z17_nrk_os_timer_getv) for _nrk_os_timer_get()
    nrk_scheduler.o(i._Z14_nrk_schedulerv) refers to nrk_timer.o(i._Z25nrk_high_speed_timer_waittt) for nrk_high_speed_timer_wait(unsigned short, unsigned short)
    nrk_scheduler.o(i._Z14_nrk_schedulerv) refers to nrk_cpu.o(i._Z25nrk_stack_pointer_restorev) for nrk_stack_pointer_restore()
    nrk_scheduler.o(i._Z14_nrk_schedulerv) refers to my_asm.o(.text) for Switch
    nrk_scheduler.o(i._Z14_nrk_schedulerv) refers to nrk.o(.data) for nrk_system_time
    nrk_scheduler.o(i._Z14_nrk_schedulerv) refers to nrk_timer.o(.data) for _nrk_prev_timer_val
    nrk_scheduler.o(i._Z14_nrk_schedulerv) refers to nrk.o(.data) for nrk_cur_task_TCB
    nrk_scheduler.o(i._Z14_nrk_schedulerv) refers to nrk.o(.bss) for nrk_task_TCB
    nrk_scheduler.o(i._Z14_nrk_schedulerv) refers to nrk.o(.data) for nrk_wakeup_signal
    nrk_scheduler.o(i._Z14_nrk_schedulerv) refers to nrk_scheduler.o(.data) for .data
    nrk_scheduler.o(.ARM.exidx) refers to nrk_scheduler.o(i._Z14_nrk_schedulerv) for i._Z14_nrk_schedulerv
    nrk_stack_check.o(i._Z15dump_stack_infov) refers to _printf_percent.o(.ARM.Collect$$_printf_percent$$00000000) for _printf_percent
    nrk_stack_check.o(i._Z15dump_stack_infov) refers to _printf_d.o(.ARM.Collect$$_printf_percent$$00000009) for _printf_d
    nrk_stack_check.o(i._Z15dump_stack_infov) refers to _printf_dec.o(.text) for _printf_int_dec
    nrk_stack_check.o(i._Z15dump_stack_infov) refers to _printf_x.o(.ARM.Collect$$_printf_percent$$0000000C) for _printf_x
    nrk_stack_check.o(i._Z15dump_stack_infov) refers to _printf_hex_int_ll_ptr.o(.text) for _printf_longlong_hex
    nrk_stack_check.o(i._Z15dump_stack_infov) refers to ulib.o(i._Z11nrk_kprintfPKc) for nrk_kprintf(const char*)
    nrk_stack_check.o(i._Z15dump_stack_infov) refers to __2printf.o(.text) for __2printf
    nrk_stack_check.o(i._Z15dump_stack_infov) refers to nrk.o(.data) for nrk_cur_task_TCB
    nrk_stack_check.o(i._Z15dump_stack_infov) refers to nrk.o(.bss) for nrk_task_TCB
    nrk_stack_check.o(.ARM.exidx) refers to nrk_stack_check.o(i._Z15dump_stack_infov) for i._Z15dump_stack_infov
    nrk_stack_check.o(.ARM.exidx) refers to nrk_stack_check.o(i._Z15nrk_stack_checkv) for i._Z15nrk_stack_checkv
    nrk_stack_check.o(.ARM.exidx) refers to nrk_stack_check.o(i._Z19nrk_stack_check_pida) for i._Z19nrk_stack_check_pida
    nrk_task.o(i._Z11nrk_get_pidv) refers to nrk.o(.data) for nrk_cur_task_TCB
    nrk_task.o(i._Z14nrk_wait_tickst) refers to nrk.o(i._Z15nrk_int_disablev) for nrk_int_disable()
    nrk_task.o(i._Z14nrk_wait_tickst) refers to nrk_timer.o(i._Z17_nrk_os_timer_getv) for _nrk_os_timer_get()
    nrk_task.o(i._Z14nrk_wait_tickst) refers to nrk_timer.o(i._Z20_nrk_get_next_wakeupv) for _nrk_get_next_wakeup()
    nrk_task.o(i._Z14nrk_wait_tickst) refers to nrk_timer.o(i._Z20_nrk_set_next_wakeuph) for _nrk_set_next_wakeup(unsigned char)
    nrk_task.o(i._Z14nrk_wait_tickst) refers to nrk.o(i._Z14nrk_int_enablev) for nrk_int_enable()
    nrk_task.o(i._Z14nrk_wait_tickst) refers to nrk_task.o(i._Z23_nrk_wait_for_schedulerv) for _nrk_wait_for_scheduler()
    nrk_task.o(i._Z14nrk_wait_tickst) refers to nrk.o(.data) for nrk_cur_task_TCB
    nrk_task.o(i._Z14nrk_wait_tickst) refers to nrk_timer.o(.data) for _nrk_prev_timer_val
    nrk_task.o(i._Z14nrk_wait_until10nrk_time_t) refers to nrk_time.o(i._Z12nrk_time_getP10nrk_time_t) for nrk_time_get(nrk_time_t*)
    nrk_task.o(i._Z14nrk_wait_until10nrk_time_t) refers to nrk_time.o(i._Z12nrk_time_subP10nrk_time_tS_S_) for nrk_time_sub(nrk_time_t*, nrk_time_t, nrk_time_t)
    nrk_task.o(i._Z14nrk_wait_until10nrk_time_t) refers to nrk_task.o(i._Z8nrk_wait10nrk_time_t) for nrk_wait(nrk_time_t)
    nrk_task.o(i._Z16nrk_print_readyQv) refers to nrk.o(.data) for _head_node
    nrk_task.o(i._Z17nrk_activate_taskP9task_type) refers to nrk_cpu.o(i._Z17nrk_task_stk_initPFvvEPjS1_) for nrk_task_stk_init(void(*)(), unsigned*, unsigned*)
    nrk_task.o(i._Z17nrk_activate_taskP9task_type) refers to nrk.o(i._Z12nrk_TCB_initP9task_typePjS1_tPvt) for nrk_TCB_init(task_type*, unsigned*, unsigned*, unsigned short, void*, unsigned short)
    nrk_task.o(i._Z17nrk_activate_taskP9task_type) refers to nrk_task.o(i._Z17nrk_add_to_readyQa) for nrk_add_to_readyQ(signed char)
    nrk_task.o(i._Z17nrk_activate_taskP9task_type) refers to nrk.o(.bss) for nrk_task_TCB
    nrk_task.o(i._Z17nrk_add_to_readyQa) refers to nrk.o(.data) for _free_node
    nrk_task.o(i._Z17nrk_add_to_readyQa) refers to nrk.o(.bss) for nrk_task_TCB
    nrk_task.o(i._Z17nrk_wait_until_nwv) refers to nrk.o(i._Z15nrk_int_disablev) for nrk_int_disable()
    nrk_task.o(i._Z17nrk_wait_until_nwv) refers to nrk_timer.o(i._Z17_nrk_os_timer_getv) for _nrk_os_timer_get()
    nrk_task.o(i._Z17nrk_wait_until_nwv) refers to nrk_timer.o(i._Z20_nrk_get_next_wakeupv) for _nrk_get_next_wakeup()
    nrk_task.o(i._Z17nrk_wait_until_nwv) refers to nrk_timer.o(i._Z20_nrk_set_next_wakeuph) for _nrk_set_next_wakeup(unsigned char)
    nrk_task.o(i._Z17nrk_wait_until_nwv) refers to nrk.o(i._Z14nrk_int_enablev) for nrk_int_enable()
    nrk_task.o(i._Z17nrk_wait_until_nwv) refers to nrk_task.o(i._Z23_nrk_wait_for_schedulerv) for _nrk_wait_for_scheduler()
    nrk_task.o(i._Z17nrk_wait_until_nwv) refers to nrk.o(.data) for nrk_cur_task_TCB
    nrk_task.o(i._Z17nrk_wait_until_nwv) refers to nrk_timer.o(.data) for _nrk_prev_timer_val
    nrk_task.o(i._Z18nrk_terminate_taskv) refers to nrk_task.o(i._Z19nrk_rem_from_readyQa) for nrk_rem_from_readyQ(signed char)
    nrk_task.o(i._Z18nrk_terminate_taskv) refers to nrk_task.o(i._Z26nrk_wait_until_next_periodv) for nrk_wait_until_next_period()
    nrk_task.o(i._Z18nrk_terminate_taskv) refers to nrk.o(.data) for nrk_cur_task_TCB
    nrk_task.o(i._Z19nrk_rem_from_readyQa) refers to nrk.o(.data) for _head_node
    nrk_task.o(i._Z19nrk_set_next_wakeup10nrk_time_t) refers to nrk.o(i._Z15nrk_int_disablev) for nrk_int_disable()
    nrk_task.o(i._Z19nrk_set_next_wakeup10nrk_time_t) refers to nrk_timer.o(i._Z17_nrk_os_timer_getv) for _nrk_os_timer_get()
    nrk_task.o(i._Z19nrk_set_next_wakeup10nrk_time_t) refers to nrk_time.o(i._Z18_nrk_time_to_ticksP10nrk_time_t) for _nrk_time_to_ticks(nrk_time_t*)
    nrk_task.o(i._Z19nrk_set_next_wakeup10nrk_time_t) refers to nrk.o(i._Z14nrk_int_enablev) for nrk_int_enable()
    nrk_task.o(i._Z19nrk_set_next_wakeup10nrk_time_t) refers to nrk.o(.data) for nrk_cur_task_TCB
    nrk_task.o(i._Z20nrk_wait_until_tickst) refers to nrk.o(i._Z15nrk_int_disablev) for nrk_int_disable()
    nrk_task.o(i._Z20nrk_wait_until_tickst) refers to nrk_timer.o(i._Z17_nrk_os_timer_getv) for _nrk_os_timer_get()
    nrk_task.o(i._Z20nrk_wait_until_tickst) refers to nrk_timer.o(i._Z20_nrk_get_next_wakeupv) for _nrk_get_next_wakeup()
    nrk_task.o(i._Z20nrk_wait_until_tickst) refers to nrk_timer.o(i._Z20_nrk_set_next_wakeuph) for _nrk_set_next_wakeup(unsigned char)
    nrk_task.o(i._Z20nrk_wait_until_tickst) refers to nrk.o(i._Z14nrk_int_enablev) for nrk_int_enable()
    nrk_task.o(i._Z20nrk_wait_until_tickst) refers to nrk_task.o(i._Z23_nrk_wait_for_schedulerv) for _nrk_wait_for_scheduler()
    nrk_task.o(i._Z20nrk_wait_until_tickst) refers to nrk.o(.data) for nrk_cur_task_TCB
    nrk_task.o(i._Z20nrk_wait_until_tickst) refers to nrk_timer.o(.data) for _nrk_prev_timer_val
    nrk_task.o(i._Z26nrk_get_high_ready_task_IDv) refers to nrk.o(.data) for _head_node
    nrk_task.o(i._Z26nrk_wait_until_next_periodv) refers to nrk.o(i._Z15nrk_int_disablev) for nrk_int_disable()
    nrk_task.o(i._Z26nrk_wait_until_next_periodv) refers to nrk_timer.o(i._Z17_nrk_os_timer_getv) for _nrk_os_timer_get()
    nrk_task.o(i._Z26nrk_wait_until_next_periodv) refers to nrk_timer.o(i._Z20_nrk_get_next_wakeupv) for _nrk_get_next_wakeup()
    nrk_task.o(i._Z26nrk_wait_until_next_periodv) refers to nrk_timer.o(i._Z20_nrk_set_next_wakeuph) for _nrk_set_next_wakeup(unsigned char)
    nrk_task.o(i._Z26nrk_wait_until_next_periodv) refers to nrk.o(i._Z14nrk_int_enablev) for nrk_int_enable()
    nrk_task.o(i._Z26nrk_wait_until_next_periodv) refers to nrk_task.o(i._Z23_nrk_wait_for_schedulerv) for _nrk_wait_for_scheduler()
    nrk_task.o(i._Z26nrk_wait_until_next_periodv) refers to nrk.o(.data) for nrk_cur_task_TCB
    nrk_task.o(i._Z26nrk_wait_until_next_periodv) refers to nrk_timer.o(.data) for _nrk_prev_timer_val
    nrk_task.o(i._Z29nrk_wait_until_next_n_periodst) refers to nrk_stack_check.o(i._Z15nrk_stack_checkv) for nrk_stack_check()
    nrk_task.o(i._Z29nrk_wait_until_next_n_periodst) refers to nrk.o(i._Z15nrk_int_disablev) for nrk_int_disable()
    nrk_task.o(i._Z29nrk_wait_until_next_n_periodst) refers to nrk_timer.o(i._Z17_nrk_os_timer_getv) for _nrk_os_timer_get()
    nrk_task.o(i._Z29nrk_wait_until_next_n_periodst) refers to nrk_timer.o(i._Z20_nrk_get_next_wakeupv) for _nrk_get_next_wakeup()
    nrk_task.o(i._Z29nrk_wait_until_next_n_periodst) refers to nrk_timer.o(i._Z20_nrk_set_next_wakeuph) for _nrk_set_next_wakeup(unsigned char)
    nrk_task.o(i._Z29nrk_wait_until_next_n_periodst) refers to nrk.o(i._Z14nrk_int_enablev) for nrk_int_enable()
    nrk_task.o(i._Z29nrk_wait_until_next_n_periodst) refers to nrk_task.o(i._Z23_nrk_wait_for_schedulerv) for _nrk_wait_for_scheduler()
    nrk_task.o(i._Z29nrk_wait_until_next_n_periodst) refers to nrk.o(.data) for nrk_cur_task_TCB
    nrk_task.o(i._Z29nrk_wait_until_next_n_periodst) refers to nrk_timer.o(.data) for _nrk_prev_timer_val
    nrk_task.o(i._Z8nrk_wait10nrk_time_t) refers to nrk_stack_check.o(i._Z15nrk_stack_checkv) for nrk_stack_check()
    nrk_task.o(i._Z8nrk_wait10nrk_time_t) refers to nrk.o(i._Z15nrk_int_disablev) for nrk_int_disable()
    nrk_task.o(i._Z8nrk_wait10nrk_time_t) refers to nrk_timer.o(i._Z17_nrk_os_timer_getv) for _nrk_os_timer_get()
    nrk_task.o(i._Z8nrk_wait10nrk_time_t) refers to nrk_time.o(i._Z18_nrk_time_to_ticksP10nrk_time_t) for _nrk_time_to_ticks(nrk_time_t*)
    nrk_task.o(i._Z8nrk_wait10nrk_time_t) refers to nrk_timer.o(i._Z20_nrk_get_next_wakeupv) for _nrk_get_next_wakeup()
    nrk_task.o(i._Z8nrk_wait10nrk_time_t) refers to nrk_timer.o(i._Z20_nrk_set_next_wakeuph) for _nrk_set_next_wakeup(unsigned char)
    nrk_task.o(i._Z8nrk_wait10nrk_time_t) refers to nrk.o(i._Z14nrk_int_enablev) for nrk_int_enable()
    nrk_task.o(i._Z8nrk_wait10nrk_time_t) refers to nrk_task.o(i._Z23_nrk_wait_for_schedulerv) for _nrk_wait_for_scheduler()
    nrk_task.o(i._Z8nrk_wait10nrk_time_t) refers to nrk.o(.data) for nrk_cur_task_TCB
    nrk_task.o(i._Z8nrk_wait10nrk_time_t) refers to nrk_timer.o(.data) for _nrk_prev_timer_val
    nrk_task.o(.ARM.exidx) refers to nrk_task.o(i._Z26nrk_get_high_ready_task_IDv) for i._Z26nrk_get_high_ready_task_IDv
    nrk_task.o(.ARM.exidx) refers to nrk_task.o(i._Z16nrk_print_readyQv) for i._Z16nrk_print_readyQv
    nrk_task.o(.ARM.exidx) refers to nrk_task.o(i._Z17nrk_add_to_readyQa) for i._Z17nrk_add_to_readyQa
    nrk_task.o(.ARM.exidx) refers to nrk_task.o(i._Z19nrk_rem_from_readyQa) for i._Z19nrk_rem_from_readyQa
    nrk_task.o(.ARM.exidx) refers to nrk_task.o(i._Z17nrk_activate_taskP9task_type) for i._Z17nrk_activate_taskP9task_type
    nrk_task.o(.ARM.exidx) refers to nrk_task.o(i._Z26nrk_wait_until_next_periodv) for i._Z26nrk_wait_until_next_periodv
    nrk_task.o(.ARM.exidx) refers to nrk_task.o(i._Z18nrk_terminate_taskv) for i._Z18nrk_terminate_taskv
    nrk_task.o(.ARM.exidx) refers to nrk_task.o(i._Z29nrk_wait_until_next_n_periodst) for i._Z29nrk_wait_until_next_n_periodst
    nrk_task.o(.ARM.exidx) refers to nrk_task.o(i._Z14nrk_wait_tickst) for i._Z14nrk_wait_tickst
    nrk_task.o(.ARM.exidx) refers to nrk_task.o(i._Z20nrk_wait_until_tickst) for i._Z20nrk_wait_until_tickst
    nrk_task.o(.ARM.exidx) refers to nrk_task.o(i._Z19nrk_set_next_wakeup10nrk_time_t) for i._Z19nrk_set_next_wakeup10nrk_time_t
    nrk_task.o(.ARM.exidx) refers to nrk_task.o(i._Z17nrk_wait_until_nwv) for i._Z17nrk_wait_until_nwv
    nrk_task.o(.ARM.exidx) refers to nrk_task.o(i._Z8nrk_wait10nrk_time_t) for i._Z8nrk_wait10nrk_time_t
    nrk_task.o(.ARM.exidx) refers to nrk_task.o(i._Z14nrk_wait_until10nrk_time_t) for i._Z14nrk_wait_until10nrk_time_t
    nrk_task.o(.ARM.exidx) refers to nrk_task.o(i._Z11nrk_get_pidv) for i._Z11nrk_get_pidv
    nrk_time.o(i._Z12nrk_time_addP10nrk_time_tS_S_) refers to nrk_time.o(i._Z22nrk_time_compact_nanosP10nrk_time_t) for nrk_time_compact_nanos(nrk_time_t*)
    nrk_time.o(i._Z12nrk_time_getP10nrk_time_t) refers to nrk_timer.o(i._Z17_nrk_os_timer_getv) for _nrk_os_timer_get()
    nrk_time.o(i._Z12nrk_time_getP10nrk_time_t) refers to nrk.o(.data) for nrk_system_time
    nrk_time.o(i._Z12nrk_time_setjj) refers to nrk.o(.data) for nrk_system_time
    nrk_time.o(i._Z18_nrk_time_to_ticksP10nrk_time_t) refers to lludivv7m.o(.text) for __aeabi_uldivmod
    nrk_time.o(i._Z23_nrk_time_to_ticks_longP10nrk_time_t) refers to lludivv7m.o(.text) for __aeabi_uldivmod
    nrk_time.o(.ARM.exidx) refers to nrk_time.o(i._Z12nrk_time_getP10nrk_time_t) for i._Z12nrk_time_getP10nrk_time_t
    nrk_time.o(.ARM.exidx) refers to nrk_time.o(i._Z12nrk_time_subP10nrk_time_tS_S_) for i._Z12nrk_time_subP10nrk_time_tS_S_
    nrk_time.o(.ARM.exidx) refers to nrk_time.o(i._Z22nrk_time_compact_nanosP10nrk_time_t) for i._Z22nrk_time_compact_nanosP10nrk_time_t
    nrk_time.o(.ARM.exidx) refers to nrk_time.o(i._Z12nrk_time_addP10nrk_time_tS_S_) for i._Z12nrk_time_addP10nrk_time_tS_S_
    nrk_time.o(.ARM.exidx) refers to nrk_time.o(i._Z12nrk_time_setjj) for i._Z12nrk_time_setjj
    nrk_time.o(.ARM.exidx) refers to nrk_time.o(i._Z18_nrk_time_to_ticksP10nrk_time_t) for i._Z18_nrk_time_to_ticksP10nrk_time_t
    nrk_time.o(.ARM.exidx) refers to nrk_time.o(i._Z18_nrk_ticks_to_timej) for i._Z18_nrk_ticks_to_timej
    nrk_time.o(.ARM.exidx) refers to nrk_time.o(i._Z23_nrk_time_to_ticks_longP10nrk_time_t) for i._Z23_nrk_time_to_ticks_longP10nrk_time_t
    hal_wait.o(.ARM.exidx) refers to hal_wait.o(i._Z7halWaitt) for i._Z7halWaitt
    ulib.o(i._Z11GPIO_SetDirhjh) refers to ulib.o(i._Z15GPIO_GetPointerh) for GPIO_GetPointer(unsigned char)
    ulib.o(i._Z11GPIO_Togglehj) refers to ulib.o(i._Z15GPIO_GetPointerh) for GPIO_GetPointer(unsigned char)
    ulib.o(i._Z11nrk_led_clri) refers to ulib.o(i._Z12nrk_gpio_clrj) for nrk_gpio_clr(unsigned)
    ulib.o(i._Z11nrk_led_seti) refers to ulib.o(i._Z12nrk_gpio_setj) for nrk_gpio_set(unsigned)
    ulib.o(i._Z11setup_uart2t) refers to ulib.o(i._Z21UART_ConfigStructInitP13UART_CFG_Type) for UART_ConfigStructInit(UART_CFG_Type*)
    ulib.o(i._Z11setup_uart2t) refers to ulib.o(i._Z9UART_InitP16LPC_UART_TypeDefP13UART_CFG_Type) for UART_Init(LPC_UART_TypeDef*, UART_CFG_Type*)
    ulib.o(i._Z11setup_uart3j) refers to ulib.o(i._Z21UART_ConfigStructInitP13UART_CFG_Type) for UART_ConfigStructInit(UART_CFG_Type*)
    ulib.o(i._Z11setup_uart3j) refers to ulib.o(i._Z9UART_InitP16LPC_UART_TypeDefP13UART_CFG_Type) for UART_Init(LPC_UART_TypeDef*, UART_CFG_Type*)
    ulib.o(i._Z12nrk_gpio_clrj) refers to ulib.o(i._Z15GPIO_ClearValuehj) for GPIO_ClearValue(unsigned char, unsigned)
    ulib.o(i._Z12nrk_gpio_geth) refers to ulib.o(i._Z14GPIO_ReadValueh) for GPIO_ReadValue(unsigned char)
    ulib.o(i._Z12nrk_gpio_setj) refers to ulib.o(i._Z13GPIO_SetValuehj) for GPIO_SetValue(unsigned char, unsigned)
    ulib.o(i._Z12setupSPIPinsv) refers to ulib.o(i._Z16PINSEL_ConfigPinP15PINSEL_CFG_Type) for PINSEL_ConfigPin(PINSEL_CFG_Type*)
    ulib.o(i._Z13GPIO_SetValuehj) refers to ulib.o(i._Z15GPIO_GetPointerh) for GPIO_GetPointer(unsigned char)
    ulib.o(i._Z14CLKPWR_GetPCLKj) refers to ulib.o(i._Z17CLKPWR_GetPCLKSELj) for CLKPWR_GetPCLKSEL(unsigned)
    ulib.o(i._Z14CLKPWR_GetPCLKj) refers to system_LPC17xx.o(.data) for SystemCoreClock
    ulib.o(i._Z14GPIO_ReadValueh) refers to ulib.o(i._Z15GPIO_GetPointerh) for GPIO_GetPointer(unsigned char)
    ulib.o(i._Z14nrk_led_togglei) refers to ulib.o(i._Z15nrk_gpio_togglej) for nrk_gpio_toggle(unsigned)
    ulib.o(i._Z14nrk_setup_uartj) refers to ulib.o(i._Z11setup_uart3j) for setup_uart3(unsigned)
    ulib.o(i._Z14setup_uartPinsv) refers to ulib.o(i._Z16PINSEL_ConfigPinP15PINSEL_CFG_Type) for PINSEL_ConfigPin(PINSEL_CFG_Type*)
    ulib.o(i._Z15GPIO_ClearValuehj) refers to ulib.o(i._Z15GPIO_GetPointerh) for GPIO_GetPointer(unsigned char)
    ulib.o(i._Z15nrk_gpio_togglej) refers to ulib.o(i._Z11GPIO_Togglehj) for GPIO_Toggle(unsigned char, unsigned)
    ulib.o(i._Z15nrk_setup_portsv) refers to ulib.o(i._Z9PORT_INITv) for PORT_INIT()
    ulib.o(i._Z16PINSEL_ConfigPinP15PINSEL_CFG_Type) refers to ulib.o(i._Z11set_PinFunchhh) for set_PinFunc(unsigned char, unsigned char, unsigned char)
    ulib.o(i._Z16PINSEL_ConfigPinP15PINSEL_CFG_Type) refers to ulib.o(i._Z16set_ResistorModehhh) for set_ResistorMode(unsigned char, unsigned char, unsigned char)
    ulib.o(i._Z16PINSEL_ConfigPinP15PINSEL_CFG_Type) refers to ulib.o(i._Z17set_OpenDrainModehhh) for set_OpenDrainMode(unsigned char, unsigned char, unsigned char)
    ulib.o(i._Z17uart_set_divisorsP16LPC_UART_TypeDefj) refers to ulib.o(i._Z14CLKPWR_GetPCLKj) for CLKPWR_GetPCLK(unsigned)
    ulib.o(i._Z17uart_set_divisorsP16LPC_UART_TypeDefj) refers to lludivv7m.o(.text) for __aeabi_uldivmod
    ulib.o(i._Z18nrk_gpio_directionjh) refers to ulib.o(i._Z11GPIO_SetDirhjh) for GPIO_SetDir(unsigned char, unsigned, unsigned char)
    ulib.o(i._Z7initLEDv) refers to ulib.o(i._Z16PINSEL_ConfigPinP15PINSEL_CFG_Type) for PINSEL_ConfigPin(PINSEL_CFG_Type*)
    ulib.o(i._Z7initLEDv) refers to ulib.o(i._Z11GPIO_SetDirhjh) for GPIO_SetDir(unsigned char, unsigned, unsigned char)
    ulib.o(i._Z7initLEDv) refers to ulib.o(i._Z15GPIO_ClearValuehj) for GPIO_ClearValue(unsigned char, unsigned)
    ulib.o(i._Z9PORT_INITv) refers to ulib.o(i._Z7initLEDv) for initLED()
    ulib.o(i._Z9PORT_INITv) refers to ulib.o(i._Z12setupSPIPinsv) for setupSPIPins()
    ulib.o(i._Z9UART_InitP16LPC_UART_TypeDefP13UART_CFG_Type) refers to ulib.o(i._Z17uart_set_divisorsP16LPC_UART_TypeDefj) for uart_set_divisors(LPC_UART_TypeDef*, unsigned)
    ulib.o(i._Z9initDEBUGv) refers to ulib.o(i._Z16PINSEL_ConfigPinP15PINSEL_CFG_Type) for PINSEL_ConfigPin(PINSEL_CFG_Type*)
    ulib.o(i._Z9initDEBUGv) refers to ulib.o(i._Z11GPIO_SetDirhjh) for GPIO_SetDir(unsigned char, unsigned, unsigned char)
    ulib.o(i._Z9initDEBUGv) refers to ulib.o(i._Z15GPIO_ClearValuehj) for GPIO_ClearValue(unsigned char, unsigned)
    ulib.o(.ARM.exidx) refers to ulib.o(i._Z22nrk_uart_rx_signal_getv) for i._Z22nrk_uart_rx_signal_getv
    ulib.o(.ARM.exidx) refers to ulib.o(i._Z19nrk_uart_data_readyh) for i._Z19nrk_uart_data_readyh
    ulib.o(.ARM.exidx) refers to ulib.o(i._Z5getc3v) for i._Z5getc3v
    ulib.o(.ARM.exidx) refers to ulib.o(i._Z11nrk_kprintfPKc) for i._Z11nrk_kprintfPKc
    ulib.o(.ARM.exidx) refers to ulib.o(i._Z17set_OpenDrainModehhh) for i._Z17set_OpenDrainModehhh
    ulib.o(.ARM.exidx) refers to ulib.o(i._Z16set_ResistorModehhh) for i._Z16set_ResistorModehhh
    ulib.o(.ARM.exidx) refers to ulib.o(i._Z11set_PinFunchhh) for i._Z11set_PinFunchhh
    ulib.o(.ARM.exidx) refers to ulib.o(i._Z16PINSEL_ConfigPinP15PINSEL_CFG_Type) for i._Z16PINSEL_ConfigPinP15PINSEL_CFG_Type
    ulib.o(.ARM.exidx) refers to ulib.o(i._Z12setupSPIPinsv) for i._Z12setupSPIPinsv
    ulib.o(.ARM.exidx) refers to ulib.o(i._Z15GPIO_GetPointerh) for i._Z15GPIO_GetPointerh
    ulib.o(.ARM.exidx) refers to ulib.o(i._Z15GPIO_ClearValuehj) for i._Z15GPIO_ClearValuehj
    ulib.o(.ARM.exidx) refers to ulib.o(i._Z11GPIO_SetDirhjh) for i._Z11GPIO_SetDirhjh
    ulib.o(.ARM.exidx) refers to ulib.o(i._Z7initLEDv) for i._Z7initLEDv
    ulib.o(.ARM.exidx) refers to ulib.o(i._Z9PORT_INITv) for i._Z9PORT_INITv
    ulib.o(.ARM.exidx) refers to ulib.o(i._Z15nrk_setup_portsv) for i._Z15nrk_setup_portsv
    ulib.o(.ARM.exidx) refers to ulib.o(i._Z14setup_uartPinsv) for i._Z14setup_uartPinsv
    ulib.o(.ARM.exidx) refers to ulib.o(i._Z9initDEBUGv) for i._Z9initDEBUGv
    ulib.o(.ARM.exidx) refers to ulib.o(i._Z13GPIO_SetValuehj) for i._Z13GPIO_SetValuehj
    ulib.o(.ARM.exidx) refers to ulib.o(i._Z14GPIO_ReadValueh) for i._Z14GPIO_ReadValueh
    ulib.o(.ARM.exidx) refers to ulib.o(i._Z11GPIO_Togglehj) for i._Z11GPIO_Togglehj
    ulib.o(.ARM.exidx) refers to ulib.o(i._Z12nrk_gpio_setj) for i._Z12nrk_gpio_setj
    ulib.o(.ARM.exidx) refers to ulib.o(i._Z12nrk_gpio_clrj) for i._Z12nrk_gpio_clrj
    ulib.o(.ARM.exidx) refers to ulib.o(i._Z12nrk_gpio_geth) for i._Z12nrk_gpio_geth
    ulib.o(.ARM.exidx) refers to ulib.o(i._Z15nrk_gpio_togglej) for i._Z15nrk_gpio_togglej
    ulib.o(.ARM.exidx) refers to ulib.o(i._Z18nrk_gpio_directionjh) for i._Z18nrk_gpio_directionjh
    ulib.o(.ARM.exidx) refers to ulib.o(i._Z14nrk_get_buttonh) for i._Z14nrk_get_buttonh
    ulib.o(.ARM.exidx) refers to ulib.o(i._Z14nrk_led_togglei) for i._Z14nrk_led_togglei
    ulib.o(.ARM.exidx) refers to ulib.o(i._Z11nrk_led_seti) for i._Z11nrk_led_seti
    ulib.o(.ARM.exidx) refers to ulib.o(i._Z11nrk_led_clri) for i._Z11nrk_led_clri
    ulib.o(.ARM.exidx) refers to ulib.o(i._Z16nrk_gpio_pullupsh) for i._Z16nrk_gpio_pullupsh
    ulib.o(.ARM.exidx) refers to ulib.o(i._Z5putc2c) for i._Z5putc2c
    ulib.o(.ARM.exidx) refers to ulib.o(i._Z5putc3c) for i._Z5putc3c
    ulib.o(.ARM.exidx) refers to ulib.o(i._Z17CLKPWR_GetPCLKSELj) for i._Z17CLKPWR_GetPCLKSELj
    ulib.o(.ARM.exidx) refers to ulib.o(i._Z14CLKPWR_GetPCLKj) for i._Z14CLKPWR_GetPCLKj
    ulib.o(.ARM.exidx) refers to ulib.o(i._Z17uart_set_divisorsP16LPC_UART_TypeDefj) for i._Z17uart_set_divisorsP16LPC_UART_TypeDefj
    ulib.o(.ARM.exidx) refers to ulib.o(i._Z9UART_InitP16LPC_UART_TypeDefP13UART_CFG_Type) for i._Z9UART_InitP16LPC_UART_TypeDefP13UART_CFG_Type
    ulib.o(.ARM.exidx) refers to ulib.o(i._Z21UART_ConfigStructInitP13UART_CFG_Type) for i._Z21UART_ConfigStructInitP13UART_CFG_Type
    ulib.o(.ARM.exidx) refers to ulib.o(i._Z11setup_uart3j) for i._Z11setup_uart3j
    ulib.o(.ARM.exidx) refers to ulib.o(i._Z11setup_uart2t) for i._Z11setup_uart2t
    ulib.o(.ARM.exidx) refers to ulib.o(i._Z14nrk_setup_uartj) for i._Z14nrk_setup_uartj
    ulib.o(.ARM.exidx) refers to ulib.o(i._Z5getc2v) for i._Z5getc2v
    my_asm.o(.text) refers to nrk.o(i._nrk_timer_tick) for _nrk_timer_tick
    my_asm.o(.text) refers to nrk.o(.data) for nrk_high_ready_TCB
    adc_driver.o(i._Z11get_adc_valv) refers to adc_driver.o(.data) for .data
    adc_driver.o(i._Z12set_adc_chanh) refers to adc_driver.o(.data) for .data
    adc_driver.o(i._Z15dev_manager_adchhPhh) refers to adc_driver.o(i._Z8init_adcv) for init_adc()
    adc_driver.o(i._Z15dev_manager_adchhPhh) refers to adc_driver.o(i._Z11get_adc_valv) for get_adc_val()
    adc_driver.o(i._Z15dev_manager_adchhPhh) refers to adc_driver.o(i._Z12set_adc_chanh) for set_adc_chan(unsigned char)
    adc_driver.o(i._Z15dev_manager_adchhPhh) refers to nrk_error.o(i._Z20nrk_kernel_error_addhh) for nrk_kernel_error_add(unsigned char, unsigned char)
    adc_driver.o(i._Z15dev_manager_adchhPhh) refers to adc_driver.o(.data) for .data
    adc_driver.o(i._Z8init_adcv) refers to nrk_timer.o(i._Z16nrk_spin_wait_usj) for nrk_spin_wait_us(unsigned)
    adc_driver.o(.ARM.exidx) refers to adc_driver.o(i._Z12set_adc_chanh) for i._Z12set_adc_chanh
    adc_driver.o(.ARM.exidx) refers to adc_driver.o(i._Z11get_adc_valv) for i._Z11get_adc_valv
    adc_driver.o(.ARM.exidx) refers to adc_driver.o(i._Z8init_adcv) for i._Z8init_adcv
    adc_driver.o(.ARM.exidx) refers to adc_driver.o(i._Z15dev_manager_adchhPhh) for i._Z15dev_manager_adchhPhh
    adc_driver.o(.ARM.exidx) refers to adc_driver.o(i._Z5delayv) for i._Z5delayv
    ff_basic_sensor.o(i._Z22dev_manager_ff_sensorshhPhh) refers to adc_driver.o(i._Z8init_adcv) for init_adc()
    ff_basic_sensor.o(i._Z22dev_manager_ff_sensorshhPhh) refers to adc_driver.o(i._Z11get_adc_valv) for get_adc_val()
    ff_basic_sensor.o(i._Z22dev_manager_ff_sensorshhPhh) refers to nrk_timer.o(i._Z16nrk_spin_wait_usj) for nrk_spin_wait_us(unsigned)
    ff_basic_sensor.o(i._Z22dev_manager_ff_sensorshhPhh) refers to nrk_error.o(i._Z14_nrk_errno_seth) for _nrk_errno_set(unsigned char)
    ff_basic_sensor.o(i._Z22dev_manager_ff_sensorshhPhh) refers to adc_driver.o(i._Z12set_adc_chanh) for set_adc_chan(unsigned char)
    ff_basic_sensor.o(i._Z22dev_manager_ff_sensorshhPhh) refers to nrk_error.o(i._Z20nrk_kernel_error_addhh) for nrk_kernel_error_add(unsigned char, unsigned char)
    ff_basic_sensor.o(i._Z22dev_manager_ff_sensorshhPhh) refers to ff_basic_sensor.o(.data) for .data
    ff_basic_sensor.o(.ARM.exidx) refers to ff_basic_sensor.o(i._Z22dev_manager_ff_sensorshhPhh) for i._Z22dev_manager_ff_sensorshhPhh
    nrk_driver.o(i._Z14nrk_get_statushh) refers to nrk_error.o(i._Z14_nrk_errno_seth) for _nrk_errno_set(unsigned char)
    nrk_driver.o(i._Z14nrk_get_statushh) refers to nrk_driver.o(.data) for .data
    nrk_driver.o(i._Z14nrk_set_statushhh) refers to nrk_error.o(i._Z14_nrk_errno_seth) for _nrk_errno_set(unsigned char)
    nrk_driver.o(i._Z14nrk_set_statushhh) refers to nrk_driver.o(.data) for .data
    nrk_driver.o(i._Z19nrk_register_driverPFhhhPhhEh) refers to nrk_driver.o(.data) for .data
    nrk_driver.o(i._Z8nrk_openhh) refers to nrk_driver.o(.data) for .data
    nrk_driver.o(i._Z8nrk_readhPhh) refers to nrk_error.o(i._Z14_nrk_errno_seth) for _nrk_errno_set(unsigned char)
    nrk_driver.o(i._Z8nrk_readhPhh) refers to nrk_driver.o(.data) for .data
    nrk_driver.o(i._Z9nrk_closeh) refers to nrk_error.o(i._Z14_nrk_errno_seth) for _nrk_errno_set(unsigned char)
    nrk_driver.o(i._Z9nrk_closeh) refers to nrk_driver.o(.data) for .data
    nrk_driver.o(i._Z9nrk_writehPhh) refers to nrk_error.o(i._Z14_nrk_errno_seth) for _nrk_errno_set(unsigned char)
    nrk_driver.o(i._Z9nrk_writehPhh) refers to nrk_driver.o(.data) for .data
    nrk_driver.o(.ARM.exidx) refers to nrk_driver.o(i._Z19nrk_register_driverPFhhhPhhEh) for i._Z19nrk_register_driverPFhhhPhhEh
    nrk_driver.o(.ARM.exidx) refers to nrk_driver.o(i._Z8nrk_openhh) for i._Z8nrk_openhh
    nrk_driver.o(.ARM.exidx) refers to nrk_driver.o(i._Z9nrk_closeh) for i._Z9nrk_closeh
    nrk_driver.o(.ARM.exidx) refers to nrk_driver.o(i._Z9nrk_writehPhh) for i._Z9nrk_writehPhh
    nrk_driver.o(.ARM.exidx) refers to nrk_driver.o(i._Z8nrk_readhPhh) for i._Z8nrk_readhPhh
    nrk_driver.o(.ARM.exidx) refers to nrk_driver.o(i._Z14nrk_set_statushhh) for i._Z14nrk_set_statushhh
    nrk_driver.o(.ARM.exidx) refers to nrk_driver.o(i._Z14nrk_get_statushh) for i._Z14nrk_get_statushh
    bmac.o(i._Z11bmac_enablev) refers to basic_rf.o(i._Z11rf_power_upv) for rf_power_up()
    bmac.o(i._Z11bmac_enablev) refers to nrk_events.o(i._Z16nrk_event_signala) for nrk_event_signal(signed char)
    bmac.o(i._Z11bmac_enablev) refers to bmac.o(.data) for .data
    bmac.o(i._Z11bmac_tx_pktPch) refers to nrk_events.o(i._Z19nrk_signal_registera) for nrk_signal_register(signed char)
    bmac.o(i._Z11bmac_tx_pktPch) refers to nrk_events.o(i._Z14nrk_event_waitj) for nrk_event_wait(unsigned)
    bmac.o(i._Z11bmac_tx_pktPch) refers to __2printf.o(.text) for __2printf
    bmac.o(i._Z11bmac_tx_pktPch) refers to bmac.o(.data) for .data
    bmac.o(i._Z11bmac_tx_pktPch) refers to bmac.o(.bss) for .bss
    bmac.o(i._Z12bmac_disablev) refers to basic_rf.o(i._Z13rf_power_downv) for rf_power_down()
    bmac.o(i._Z12bmac_disablev) refers to bmac.o(.data) for .data
    bmac.o(i._Z12bmac_nw_taskv) refers to nrk_task.o(i._Z26nrk_wait_until_next_periodv) for nrk_wait_until_next_period()
    bmac.o(i._Z12bmac_nw_taskv) refers to basic_rf.o(i._Z8rf_rx_onv) for rf_rx_on()
    bmac.o(i._Z12bmac_nw_taskv) refers to bmac.o(i._Z19_bmac_channel_checkv) for _bmac_channel_check()
    bmac.o(i._Z12bmac_nw_taskv) refers to nrk_events.o(i._Z16nrk_event_signala) for nrk_event_signal(signed char)
    bmac.o(i._Z12bmac_nw_taskv) refers to basic_rf.o(i._Z9rf_rx_offv) for rf_rx_off()
    bmac.o(i._Z12bmac_nw_taskv) refers to bmac.o(i._Z8_bmac_txv) for _bmac_tx()
    bmac.o(i._Z12bmac_nw_taskv) refers to nrk_task.o(i._Z8nrk_wait10nrk_time_t) for nrk_wait(nrk_time_t)
    bmac.o(i._Z12bmac_nw_taskv) refers to bmac.o(i._Z8_bmac_rxv) for _bmac_rx()
    bmac.o(i._Z12bmac_nw_taskv) refers to nrk_events.o(i._Z19nrk_signal_registera) for nrk_signal_register(signed char)
    bmac.o(i._Z12bmac_nw_taskv) refers to nrk_events.o(i._Z14nrk_event_waitj) for nrk_event_wait(unsigned)
    bmac.o(i._Z12bmac_nw_taskv) refers to bmac.o(.data) for .data
    bmac.o(i._Z12bmac_startedv) refers to bmac.o(.data) for .data
    bmac.o(i._Z15bmac_rx_pkt_getPhS_) refers to bmac.o(.data) for .data
    bmac.o(i._Z15bmac_rx_pkt_getPhS_) refers to bmac.o(.bss) for .bss
    bmac.o(i._Z16bmac_set_channelh) refers to basic_rf.o(i._Z7rf_initP10RF_RX_INFOhtt) for rf_init(RF_RX_INFO*, unsigned char, unsigned short, unsigned short)
    bmac.o(i._Z16bmac_set_channelh) refers to bmac.o(.data) for .data
    bmac.o(i._Z16bmac_set_channelh) refers to bmac.o(.bss) for .bss
    bmac.o(i._Z16bmac_task_configv) refers to nrk_cpu.o(i._Z27nrk_task_set_entry_functionP9task_typePFvvE) for nrk_task_set_entry_function(task_type*, void(*)())
    bmac.o(i._Z16bmac_task_configv) refers to nrk_cpu.o(i._Z16nrk_task_set_stkP9task_typePjt) for nrk_task_set_stk(task_type*, unsigned*, unsigned short)
    bmac.o(i._Z16bmac_task_configv) refers to nrk_task.o(i._Z17nrk_activate_taskP9task_type) for nrk_activate_task(task_type*)
    bmac.o(i._Z16bmac_task_configv) refers to bmac.o(i._Z12bmac_nw_taskv) for bmac_nw_task()
    bmac.o(i._Z16bmac_task_configv) refers to bmac.o(.bss) for .bss
    bmac.o(i._Z17bmac_rx_pkt_readyv) refers to bmac.o(.data) for .data
    bmac.o(i._Z17bmac_set_rf_powerh) refers to basic_rf.o(i._Z11rf_tx_powerh) for rf_tx_power(unsigned char)
    bmac.o(i._Z19_bmac_channel_checkv) refers to basic_rf.o(i._Z16rf_polling_rx_onv) for rf_polling_rx_on()
    bmac.o(i._Z19_bmac_channel_checkv) refers to nrk_timer.o(i._Z16nrk_spin_wait_usj) for nrk_spin_wait_us(unsigned)
    bmac.o(i._Z19_bmac_channel_checkv) refers to basic_rf.o(i._Z15rf_rx_check_ccav) for rf_rx_check_cca()
    bmac.o(i._Z19_bmac_channel_checkv) refers to basic_rf.o(i._Z9rf_rx_offv) for rf_rx_off()
    bmac.o(i._Z19bmac_rx_pkt_releasev) refers to bmac.o(.data) for .data
    bmac.o(i._Z19bmac_set_cca_activeh) refers to bmac.o(.data) for .data
    bmac.o(i._Z19bmac_set_cca_thresha) refers to basic_rf.o(i._Z17rf_set_cca_thresha) for rf_set_cca_thresh(signed char)
    bmac.o(i._Z20bmac_auto_ack_enablev) refers to basic_rf.o(i._Z18rf_auto_ack_enablev) for rf_auto_ack_enable()
    bmac.o(i._Z21bmac_auto_ack_disablev) refers to basic_rf.o(i._Z19rf_auto_ack_disablev) for rf_auto_ack_disable()
    bmac.o(i._Z22bmac_encryption_enablev) refers to basic_rf.o(i._Z18rf_security_enablev) for rf_security_enable()
    bmac.o(i._Z22bmac_get_rx_pkt_signalv) refers to nrk_events.o(i._Z19nrk_signal_registera) for nrk_signal_register(signed char)
    bmac.o(i._Z22bmac_get_rx_pkt_signalv) refers to bmac.o(.data) for .data
    bmac.o(i._Z22bmac_rx_pkt_set_bufferPch) refers to bmac.o(.bss) for .bss
    bmac.o(i._Z22bmac_rx_pkt_set_bufferPch) refers to bmac.o(.data) for .data
    bmac.o(i._Z22bmac_set_rx_check_rate10nrk_time_t) refers to bmac.o(.data) for .data
    bmac.o(i._Z22bmac_wait_until_rx_pktv) refers to nrk_events.o(i._Z19nrk_signal_registera) for nrk_signal_register(signed char)
    bmac.o(i._Z22bmac_wait_until_rx_pktv) refers to nrk_events.o(i._Z14nrk_event_waitj) for nrk_event_wait(unsigned)
    bmac.o(i._Z22bmac_wait_until_rx_pktv) refers to bmac.o(.data) for .data
    bmac.o(i._Z23bmac_addr_decode_enablev) refers to basic_rf.o(i._Z21rf_addr_decode_enablev) for rf_addr_decode_enable()
    bmac.o(i._Z23bmac_encryption_disablev) refers to basic_rf.o(i._Z19rf_security_disablev) for rf_security_disable()
    bmac.o(i._Z23bmac_encryption_set_keyPhh) refers to basic_rf.o(i._Z19rf_security_set_keyPh) for rf_security_set_key(unsigned char*)
    bmac.o(i._Z23bmac_get_tx_done_signalv) refers to nrk_events.o(i._Z19nrk_signal_registera) for nrk_signal_register(signed char)
    bmac.o(i._Z23bmac_get_tx_done_signalv) refers to bmac.o(.data) for .data
    bmac.o(i._Z23bmac_tx_pkt_nonblockingPch) refers to bmac.o(.data) for .data
    bmac.o(i._Z23bmac_tx_pkt_nonblockingPch) refers to bmac.o(.bss) for .bss
    bmac.o(i._Z24bmac_addr_decode_disablev) refers to basic_rf.o(i._Z22rf_addr_decode_disablev) for rf_addr_decode_disable()
    bmac.o(i._Z24bmac_rx_pkt_is_encryptedv) refers to basic_rf.o(i._Z27rf_security_last_pkt_statusv) for rf_security_last_pkt_status()
    bmac.o(i._Z25bmac_addr_decode_dest_mact) refers to bmac.o(.bss) for .bss
    bmac.o(i._Z25bmac_rx_failure_count_getv) refers to bmac.o(.data) for .data
    bmac.o(i._Z27bmac_addr_decode_set_my_mact) refers to basic_rf.o(i._Z25rf_addr_decode_set_my_mact) for rf_addr_decode_set_my_mac(unsigned short)
    bmac.o(i._Z27bmac_rx_failure_count_resetv) refers to bmac.o(.data) for .data
    bmac.o(i._Z31bmac_encryption_set_ctr_counterPhh) refers to basic_rf.o(i._Z27rf_security_set_ctr_counterPh) for rf_security_set_ctr_counter(unsigned char*)
    bmac.o(i._Z8_bmac_rxv) refers to basic_rf.o(i._Z8rf_rx_onv) for rf_rx_on()
    bmac.o(i._Z8_bmac_rxv) refers to nrk_task.o(i._Z8nrk_wait10nrk_time_t) for nrk_wait(nrk_time_t)
    bmac.o(i._Z8_bmac_rxv) refers to basic_rf.o(i._Z9rf_rx_offv) for rf_rx_off()
    bmac.o(i._Z8_bmac_rxv) refers to basic_rf.o(i._Z15rf_rx_check_ccav) for rf_rx_check_cca()
    bmac.o(i._Z8_bmac_rxv) refers to basic_rf.o(i._Z12rf_rx_packetv) for rf_rx_packet()
    bmac.o(i._Z8_bmac_rxv) refers to bmac.o(.data) for .data
    bmac.o(i._Z8_bmac_txv) refers to nrk_time.o(i._Z18_nrk_time_to_ticksP10nrk_time_t) for _nrk_time_to_ticks(nrk_time_t*)
    bmac.o(i._Z8_bmac_txv) refers to rand.o(.emb_text) for rand
    bmac.o(i._Z8_bmac_txv) refers to nrk_task.o(i._Z20nrk_wait_until_tickst) for nrk_wait_until_ticks(unsigned short)
    bmac.o(i._Z8_bmac_txv) refers to bmac.o(i._Z19_bmac_channel_checkv) for _bmac_channel_check()
    bmac.o(i._Z8_bmac_txv) refers to basic_rf.o(i._Z9rf_rx_offv) for rf_rx_off()
    bmac.o(i._Z8_bmac_txv) refers to bmac.o(i._Z6_b_powh) for _b_pow(unsigned char)
    bmac.o(i._Z8_bmac_txv) refers to nrk_task.o(i._Z29nrk_wait_until_next_n_periodst) for nrk_wait_until_next_n_periods(unsigned short)
    bmac.o(i._Z8_bmac_txv) refers to basic_rf.o(i._Z12rf_test_modev) for rf_test_mode()
    bmac.o(i._Z8_bmac_txv) refers to basic_rf.o(i._Z13rf_carrier_onv) for rf_carrier_on()
    bmac.o(i._Z8_bmac_txv) refers to nrk_task.o(i._Z8nrk_wait10nrk_time_t) for nrk_wait(nrk_time_t)
    bmac.o(i._Z8_bmac_txv) refers to basic_rf.o(i._Z14rf_carrier_offv) for rf_carrier_off()
    bmac.o(i._Z8_bmac_txv) refers to basic_rf.o(i._Z12rf_data_modev) for rf_data_mode()
    bmac.o(i._Z8_bmac_txv) refers to basic_rf.o(i._Z12rf_tx_packetP10RF_TX_INFO) for rf_tx_packet(RF_TX_INFO*)
    bmac.o(i._Z8_bmac_txv) refers to bmac.o(.data) for .data
    bmac.o(i._Z8_bmac_txv) refers to bmac.o(.bss) for .bss
    bmac.o(i._Z9bmac_inith) refers to nrk_events.o(i._Z17nrk_signal_createv) for nrk_signal_create()
    bmac.o(i._Z9bmac_inith) refers to basic_rf.o(i._Z7rf_initP10RF_RX_INFOhtt) for rf_init(RF_RX_INFO*, unsigned char, unsigned short, unsigned short)
    bmac.o(i._Z9bmac_inith) refers to basic_rf.o(i._Z17rf_set_cca_thresha) for rf_set_cca_thresh(signed char)
    bmac.o(i._Z9bmac_inith) refers to basic_rf.o(i._Z22rf_addr_decode_disablev) for rf_addr_decode_disable()
    bmac.o(i._Z9bmac_inith) refers to __2printf.o(.text) for __2printf
    bmac.o(i._Z9bmac_inith) refers to bmac.o(.data) for .data
    bmac.o(i._Z9bmac_inith) refers to bmac.o(.bss) for .bss
    bmac.o(.ARM.exidx) refers to bmac.o(i._Z14rf_rx_callbackP10RF_RX_INFO) for i._Z14rf_rx_callbackP10RF_RX_INFO
    bmac.o(.ARM.exidx) refers to bmac.o(i._Z31bmac_encryption_set_ctr_counterPhh) for i._Z31bmac_encryption_set_ctr_counterPhh
    bmac.o(.ARM.exidx) refers to bmac.o(i._Z19bmac_tx_reserve_setP10nrk_time_tt) for i._Z19bmac_tx_reserve_setP10nrk_time_tt
    bmac.o(.ARM.exidx) refers to bmac.o(i._Z19bmac_tx_reserve_getv) for i._Z19bmac_tx_reserve_getv
    bmac.o(.ARM.exidx) refers to bmac.o(i._Z21bmac_auto_ack_disablev) for i._Z21bmac_auto_ack_disablev
    bmac.o(.ARM.exidx) refers to bmac.o(i._Z20bmac_auto_ack_enablev) for i._Z20bmac_auto_ack_enablev
    bmac.o(.ARM.exidx) refers to bmac.o(i._Z24bmac_addr_decode_disablev) for i._Z24bmac_addr_decode_disablev
    bmac.o(.ARM.exidx) refers to bmac.o(i._Z23bmac_addr_decode_enablev) for i._Z23bmac_addr_decode_enablev
    bmac.o(.ARM.exidx) refers to bmac.o(i._Z27bmac_addr_decode_set_my_mact) for i._Z27bmac_addr_decode_set_my_mact
    bmac.o(.ARM.exidx) refers to bmac.o(i._Z25bmac_addr_decode_dest_mact) for i._Z25bmac_addr_decode_dest_mact
    bmac.o(.ARM.exidx) refers to bmac.o(i._Z24bmac_rx_pkt_is_encryptedv) for i._Z24bmac_rx_pkt_is_encryptedv
    bmac.o(.ARM.exidx) refers to bmac.o(i._Z23bmac_encryption_set_keyPhh) for i._Z23bmac_encryption_set_keyPhh
    bmac.o(.ARM.exidx) refers to bmac.o(i._Z22bmac_encryption_enablev) for i._Z22bmac_encryption_enablev
    bmac.o(.ARM.exidx) refers to bmac.o(i._Z23bmac_encryption_disablev) for i._Z23bmac_encryption_disablev
    bmac.o(.ARM.exidx) refers to bmac.o(i._Z17bmac_set_rf_powerh) for i._Z17bmac_set_rf_powerh
    bmac.o(.ARM.exidx) refers to bmac.o(i._Z19bmac_set_cca_activeh) for i._Z19bmac_set_cca_activeh
    bmac.o(.ARM.exidx) refers to bmac.o(i._Z19bmac_set_cca_thresha) for i._Z19bmac_set_cca_thresha
    bmac.o(.ARM.exidx) refers to bmac.o(i._Z16bmac_set_channelh) for i._Z16bmac_set_channelh
    bmac.o(.ARM.exidx) refers to bmac.o(i._Z22bmac_wait_until_rx_pktv) for i._Z22bmac_wait_until_rx_pktv
    bmac.o(.ARM.exidx) refers to bmac.o(i._Z22bmac_rx_pkt_set_bufferPch) for i._Z22bmac_rx_pkt_set_bufferPch
    bmac.o(.ARM.exidx) refers to bmac.o(i._Z9bmac_inith) for i._Z9bmac_inith
    bmac.o(.ARM.exidx) refers to bmac.o(i._Z23bmac_tx_pkt_nonblockingPch) for i._Z23bmac_tx_pkt_nonblockingPch
    bmac.o(.ARM.exidx) refers to bmac.o(i._Z22bmac_get_rx_pkt_signalv) for i._Z22bmac_get_rx_pkt_signalv
    bmac.o(.ARM.exidx) refers to bmac.o(i._Z23bmac_get_tx_done_signalv) for i._Z23bmac_get_tx_done_signalv
    bmac.o(.ARM.exidx) refers to bmac.o(i._Z11bmac_tx_pktPch) for i._Z11bmac_tx_pktPch
    bmac.o(.ARM.exidx) refers to bmac.o(i._Z15bmac_rx_pkt_getPhS_) for i._Z15bmac_rx_pkt_getPhS_
    bmac.o(.ARM.exidx) refers to bmac.o(i._Z17bmac_rx_pkt_readyv) for i._Z17bmac_rx_pkt_readyv
    bmac.o(.ARM.exidx) refers to bmac.o(i._Z19bmac_rx_pkt_releasev) for i._Z19bmac_rx_pkt_releasev
    bmac.o(.ARM.exidx) refers to bmac.o(i._Z12bmac_disablev) for i._Z12bmac_disablev
    bmac.o(.ARM.exidx) refers to bmac.o(i._Z11bmac_enablev) for i._Z11bmac_enablev
    bmac.o(.ARM.exidx) refers to bmac.o(i._Z22bmac_set_rx_check_rate10nrk_time_t) for i._Z22bmac_set_rx_check_rate10nrk_time_t
    bmac.o(.ARM.exidx) refers to bmac.o(i._Z12bmac_startedv) for i._Z12bmac_startedv
    bmac.o(.ARM.exidx) refers to bmac.o(i._Z19_bmac_channel_checkv) for i._Z19_bmac_channel_checkv
    bmac.o(.ARM.exidx) refers to bmac.o(i._Z25bmac_rx_failure_count_getv) for i._Z25bmac_rx_failure_count_getv
    bmac.o(.ARM.exidx) refers to bmac.o(i._Z27bmac_rx_failure_count_resetv) for i._Z27bmac_rx_failure_count_resetv
    bmac.o(.ARM.exidx) refers to bmac.o(i._Z6_b_powh) for i._Z6_b_powh
    bmac.o(.ARM.exidx) refers to bmac.o(i._Z8_bmac_rxv) for i._Z8_bmac_rxv
    bmac.o(.ARM.exidx) refers to bmac.o(i._Z8_bmac_txv) for i._Z8_bmac_txv
    bmac.o(.ARM.exidx) refers to bmac.o(i._Z12bmac_nw_taskv) for i._Z12bmac_nw_taskv
    bmac.o(.ARM.exidx) refers to bmac.o(i._Z16bmac_task_configv) for i._Z16bmac_task_configv
    basic_rf.o(i.EINT3_IRQHandler) refers to mrf24j40.o(i._Z14mrf_read_shorth) for mrf_read_short(unsigned char)
    basic_rf.o(i.EINT3_IRQHandler) refers to basic_rf.o(i._Z18rf_parse_rx_packetv) for rf_parse_rx_packet()
    basic_rf.o(i.EINT3_IRQHandler) refers to bmac.o(i._Z14rf_rx_callbackP10RF_RX_INFO) for rf_rx_callback(RF_RX_INFO*)
    basic_rf.o(i.EINT3_IRQHandler) refers to basic_rf.o(.data) for .data
    basic_rf.o(i.EINT3_IRQHandler) refers to basic_rf.o(.bss) for .bss
    basic_rf.o(i._Z11rf_power_upv) refers to mrf24j40.o(i._Z15mrf_write_shorthh) for mrf_write_short(unsigned char, unsigned char)
    basic_rf.o(i._Z11rf_power_upv) refers to nrk_timer.o(i._Z16nrk_spin_wait_usj) for nrk_spin_wait_us(unsigned)
    basic_rf.o(i._Z11rf_tx_powerh) refers to mrf24j40.o(i._Z14mrf_write_longth) for mrf_write_long(unsigned short, unsigned char)
    basic_rf.o(i._Z12rf_data_modev) refers to mrf24j40.o(i._Z14mrf_write_longth) for mrf_write_long(unsigned short, unsigned char)
    basic_rf.o(i._Z12rf_rx_packetv) refers to basic_rf.o(.data) for .data
    basic_rf.o(i._Z12rf_test_modev) refers to mrf24j40.o(i._Z14mrf_write_longth) for mrf_write_long(unsigned short, unsigned char)
    basic_rf.o(i._Z12rf_tx_packetP10RF_TX_INFO) refers to mrf24j40.o(i._Z14mrf_write_longth) for mrf_write_long(unsigned short, unsigned char)
    basic_rf.o(i._Z12rf_tx_packetP10RF_TX_INFO) refers to basic_rf.o(i._Z8rf_rx_onv) for rf_rx_on()
    basic_rf.o(i._Z12rf_tx_packetP10RF_TX_INFO) refers to hal_wait.o(i._Z7halWaitt) for halWait(unsigned short)
    basic_rf.o(i._Z12rf_tx_packetP10RF_TX_INFO) refers to basic_rf.o(i._Z15rf_rx_check_ccav) for rf_rx_check_cca()
    basic_rf.o(i._Z12rf_tx_packetP10RF_TX_INFO) refers to mrf24j40.o(i._Z15mrf_write_shorthh) for mrf_write_short(unsigned char, unsigned char)
    basic_rf.o(i._Z12rf_tx_packetP10RF_TX_INFO) refers to mrf24j40.o(i._Z14mrf_read_shorth) for mrf_read_short(unsigned char)
    basic_rf.o(i._Z12rf_tx_packetP10RF_TX_INFO) refers to basic_rf.o(.data) for .data
    basic_rf.o(i._Z12rf_tx_packetP10RF_TX_INFO) refers to basic_rf.o(.bss) for .bss
    basic_rf.o(i._Z13rf_carrier_onv) refers to mrf24j40.o(i._Z15mrf_write_shorthh) for mrf_write_short(unsigned char, unsigned char)
    basic_rf.o(i._Z13rf_carrier_onv) refers to nrk_timer.o(i._Z16nrk_spin_wait_usj) for nrk_spin_wait_us(unsigned)
    basic_rf.o(i._Z13rf_power_downv) refers to mrf24j40.o(i._Z15mrf_write_shorthh) for mrf_write_short(unsigned char, unsigned char)
    basic_rf.o(i._Z14rf_carrier_offv) refers to mrf24j40.o(i._Z15mrf_write_shorthh) for mrf_write_short(unsigned char, unsigned char)
    basic_rf.o(i._Z14rf_carrier_offv) refers to nrk_timer.o(i._Z16nrk_spin_wait_usj) for nrk_spin_wait_us(unsigned)
    basic_rf.o(i._Z14rf_set_channelh) refers to mrf24j40.o(i._Z14mrf_write_longth) for mrf_write_long(unsigned short, unsigned char)
    basic_rf.o(i._Z14rf_set_channelh) refers to mrf24j40.o(i._Z15mrf_write_shorthh) for mrf_write_short(unsigned char, unsigned char)
    basic_rf.o(i._Z15rf_rx_check_ccav) refers to mrf24j40.o(i._Z8mrf_rssiv) for mrf_rssi()
    basic_rf.o(i._Z15rf_rx_check_ccav) refers to basic_rf.o(.data) for .data
    basic_rf.o(i._Z15rf_set_cca_modeh) refers to mrf24j40.o(i._Z14mrf_read_shorth) for mrf_read_short(unsigned char)
    basic_rf.o(i._Z15rf_set_cca_modeh) refers to mrf24j40.o(i._Z15mrf_write_shorthh) for mrf_write_short(unsigned char, unsigned char)
    basic_rf.o(i._Z16rf_flush_rx_fifov) refers to mrf24j40.o(i._Z13mrf_read_longt) for mrf_read_long(unsigned short)
    basic_rf.o(i._Z16rf_polling_rx_onv) refers to mrf24j40.o(i._Z13mrf_read_longt) for mrf_read_long(unsigned short)
    basic_rf.o(i._Z16rf_polling_rx_onv) refers to mrf24j40.o(i._Z15mrf_write_shorthh) for mrf_write_short(unsigned char, unsigned char)
    basic_rf.o(i._Z16rf_polling_rx_onv) refers to basic_rf.o(.bss) for .bss
    basic_rf.o(i._Z16rf_polling_rx_onv) refers to basic_rf.o(.data) for .data
    basic_rf.o(i._Z17rf_rx_check_fifopv) refers to basic_rf.o(.data) for .data
    basic_rf.o(i._Z17rf_set_cca_thresha) refers to basic_rf.o(.data) for .data
    basic_rf.o(i._Z18rf_auto_ack_enablev) refers to mrf24j40.o(i._Z14mrf_read_shorth) for mrf_read_short(unsigned char)
    basic_rf.o(i._Z18rf_auto_ack_enablev) refers to mrf24j40.o(i._Z15mrf_write_shorthh) for mrf_write_short(unsigned char, unsigned char)
    basic_rf.o(i._Z18rf_auto_ack_enablev) refers to basic_rf.o(.data) for .data
    basic_rf.o(i._Z18rf_parse_rx_packetv) refers to basic_rf.o(i._Z9rf_rx_offv) for rf_rx_off()
    basic_rf.o(i._Z18rf_parse_rx_packetv) refers to mrf24j40.o(i._Z13mrf_read_longt) for mrf_read_long(unsigned short)
    basic_rf.o(i._Z18rf_parse_rx_packetv) refers to basic_rf.o(i._Z8rf_rx_onv) for rf_rx_on()
    basic_rf.o(i._Z18rf_parse_rx_packetv) refers to basic_rf.o(.bss) for .bss
    basic_rf.o(i._Z18rf_parse_rx_packetv) refers to basic_rf.o(.data) for .data
    basic_rf.o(i._Z19rf_auto_ack_disablev) refers to mrf24j40.o(i._Z14mrf_read_shorth) for mrf_read_short(unsigned char)
    basic_rf.o(i._Z19rf_auto_ack_disablev) refers to mrf24j40.o(i._Z15mrf_write_shorthh) for mrf_write_short(unsigned char, unsigned char)
    basic_rf.o(i._Z19rf_auto_ack_disablev) refers to basic_rf.o(.data) for .data
    basic_rf.o(i._Z20rf_polling_rx_packetv) refers to basic_rf.o(i._Z12rf_rx_packetv) for rf_rx_packet()
    basic_rf.o(i._Z21rf_addr_decode_enablev) refers to mrf24j40.o(i._Z14mrf_read_shorth) for mrf_read_short(unsigned char)
    basic_rf.o(i._Z21rf_addr_decode_enablev) refers to mrf24j40.o(i._Z15mrf_write_shorthh) for mrf_write_short(unsigned char, unsigned char)
    basic_rf.o(i._Z22rf_addr_decode_disablev) refers to mrf24j40.o(i._Z14mrf_read_shorth) for mrf_read_short(unsigned char)
    basic_rf.o(i._Z22rf_addr_decode_disablev) refers to mrf24j40.o(i._Z15mrf_write_shorthh) for mrf_write_short(unsigned char, unsigned char)
    basic_rf.o(i._Z25rf_addr_decode_set_my_mact) refers to mrf24j40.o(i._Z15mrf_write_shorthh) for mrf_write_short(unsigned char, unsigned char)
    basic_rf.o(i._Z25rf_addr_decode_set_my_mact) refers to basic_rf.o(.bss) for .bss
    basic_rf.o(i._Z7rf_initP10RF_RX_INFOhtt) refers to mrf24j40.o(i._Z8mrf_initv) for mrf_init()
    basic_rf.o(i._Z7rf_initP10RF_RX_INFOhtt) refers to basic_rf.o(i._Z14rf_set_channelh) for rf_set_channel(unsigned char)
    basic_rf.o(i._Z7rf_initP10RF_RX_INFOhtt) refers to mrf24j40.o(i._Z12mrf_set_addrt) for mrf_set_addr(unsigned short)
    basic_rf.o(i._Z7rf_initP10RF_RX_INFOhtt) refers to mrf24j40.o(i._Z13mrf_set_panidt) for mrf_set_panid(unsigned short)
    basic_rf.o(i._Z7rf_initP10RF_RX_INFOhtt) refers to basic_rf.o(i._Z18rf_auto_ack_enablev) for rf_auto_ack_enable()
    basic_rf.o(i._Z7rf_initP10RF_RX_INFOhtt) refers to basic_rf.o(.bss) for .bss
    basic_rf.o(i._Z7rf_initP10RF_RX_INFOhtt) refers to basic_rf.o(.data) for .data
    basic_rf.o(i._Z8rf_rx_onv) refers to mrf24j40.o(i._Z15mrf_write_shorthh) for mrf_write_short(unsigned char, unsigned char)
    basic_rf.o(i._Z8rf_rx_onv) refers to basic_rf.o(.bss) for .bss
    basic_rf.o(i._Z8rf_rx_onv) refers to basic_rf.o(.data) for .data
    basic_rf.o(i._Z9rf_rx_offv) refers to mrf24j40.o(i._Z15mrf_write_shorthh) for mrf_write_short(unsigned char, unsigned char)
    basic_rf.o(i._Z9rf_rx_offv) refers to basic_rf.o(.bss) for .bss
    basic_rf.o(i._Z9rf_rx_offv) refers to basic_rf.o(.data) for .data
    basic_rf.o(i._Z9rf_set_rxP10RF_RX_INFOh) refers to mrf24j40.o(i._Z13mrf_read_longt) for mrf_read_long(unsigned short)
    basic_rf.o(i._Z9rf_set_rxP10RF_RX_INFOh) refers to basic_rf.o(i._Z14rf_set_channelh) for rf_set_channel(unsigned char)
    basic_rf.o(i._Z9rf_set_rxP10RF_RX_INFOh) refers to mrf24j40.o(i._Z15mrf_write_shorthh) for mrf_write_short(unsigned char, unsigned char)
    basic_rf.o(i._Z9rf_set_rxP10RF_RX_INFOh) refers to basic_rf.o(.bss) for .bss
    basic_rf.o(.ARM.exidx) refers to basic_rf.o(i._Z13rf_power_downv) for i._Z13rf_power_downv
    basic_rf.o(.ARM.exidx) refers to basic_rf.o(i._Z11rf_power_upv) for i._Z11rf_power_upv
    basic_rf.o(.ARM.exidx) refers to basic_rf.o(i._Z11rf_tx_powerh) for i._Z11rf_tx_powerh
    basic_rf.o(.ARM.exidx) refers to basic_rf.o(i._Z27rf_security_last_pkt_statusv) for i._Z27rf_security_last_pkt_statusv
    basic_rf.o(.ARM.exidx) refers to basic_rf.o(i._Z27rf_security_set_ctr_counterPh) for i._Z27rf_security_set_ctr_counterPh
    basic_rf.o(.ARM.exidx) refers to basic_rf.o(i._Z19rf_security_set_keyPh) for i._Z19rf_security_set_keyPh
    basic_rf.o(.ARM.exidx) refers to basic_rf.o(i._Z18rf_security_enablev) for i._Z18rf_security_enablev
    basic_rf.o(.ARM.exidx) refers to basic_rf.o(i._Z19rf_security_disablev) for i._Z19rf_security_disablev
    basic_rf.o(.ARM.exidx) refers to basic_rf.o(i._Z14rf_set_channelh) for i._Z14rf_set_channelh
    basic_rf.o(.ARM.exidx) refers to basic_rf.o(i._Z21rf_addr_decode_enablev) for i._Z21rf_addr_decode_enablev
    basic_rf.o(.ARM.exidx) refers to basic_rf.o(i._Z22rf_addr_decode_disablev) for i._Z22rf_addr_decode_disablev
    basic_rf.o(.ARM.exidx) refers to basic_rf.o(i._Z18rf_auto_ack_enablev) for i._Z18rf_auto_ack_enablev
    basic_rf.o(.ARM.exidx) refers to basic_rf.o(i._Z19rf_auto_ack_disablev) for i._Z19rf_auto_ack_disablev
    basic_rf.o(.ARM.exidx) refers to basic_rf.o(i._Z25rf_addr_decode_set_my_mact) for i._Z25rf_addr_decode_set_my_mact
    basic_rf.o(.ARM.exidx) refers to basic_rf.o(i._Z16rf_flush_rx_fifov) for i._Z16rf_flush_rx_fifov
    basic_rf.o(.ARM.exidx) refers to basic_rf.o(i._Z9rf_set_rxP10RF_RX_INFOh) for i._Z9rf_set_rxP10RF_RX_INFOh
    basic_rf.o(.ARM.exidx) refers to basic_rf.o(i._Z7rf_initP10RF_RX_INFOhtt) for i._Z7rf_initP10RF_RX_INFOhtt
    basic_rf.o(.ARM.exidx) refers to basic_rf.o(i._Z8rf_rx_onv) for i._Z8rf_rx_onv
    basic_rf.o(.ARM.exidx) refers to basic_rf.o(i._Z16rf_polling_rx_onv) for i._Z16rf_polling_rx_onv
    basic_rf.o(.ARM.exidx) refers to basic_rf.o(i._Z9rf_rx_offv) for i._Z9rf_rx_offv
    basic_rf.o(.ARM.exidx) refers to basic_rf.o(i._Z12rf_test_modev) for i._Z12rf_test_modev
    basic_rf.o(.ARM.exidx) refers to basic_rf.o(i._Z12rf_data_modev) for i._Z12rf_data_modev
    basic_rf.o(.ARM.exidx) refers to basic_rf.o(i._Z16rf_rx_set_serialv) for i._Z16rf_rx_set_serialv
    basic_rf.o(.ARM.exidx) refers to basic_rf.o(i._Z16rf_tx_set_serialv) for i._Z16rf_tx_set_serialv
    basic_rf.o(.ARM.exidx) refers to basic_rf.o(i._Z22rf_set_preamble_lengthh) for i._Z22rf_set_preamble_lengthh
    basic_rf.o(.ARM.exidx) refers to basic_rf.o(i._Z13rf_carrier_onv) for i._Z13rf_carrier_onv
    basic_rf.o(.ARM.exidx) refers to basic_rf.o(i._Z14rf_carrier_offv) for i._Z14rf_carrier_offv
    basic_rf.o(.ARM.exidx) refers to basic_rf.o(i._Z17rf_rx_check_fifopv) for i._Z17rf_rx_check_fifopv
    basic_rf.o(.ARM.exidx) refers to basic_rf.o(i._Z17rf_set_cca_thresha) for i._Z17rf_set_cca_thresha
    basic_rf.o(.ARM.exidx) refers to basic_rf.o(i._Z15rf_set_cca_modeh) for i._Z15rf_set_cca_modeh
    basic_rf.o(.ARM.exidx) refers to basic_rf.o(i._Z15rf_rx_check_ccav) for i._Z15rf_rx_check_ccav
    basic_rf.o(.ARM.exidx) refers to basic_rf.o(i._Z12rf_rx_packetv) for i._Z12rf_rx_packetv
    basic_rf.o(.ARM.exidx) refers to basic_rf.o(i._Z20rf_polling_rx_packetv) for i._Z20rf_polling_rx_packetv
    basic_rf.o(.ARM.exidx) refers to basic_rf.o(i._Z17rf_tx_tdma_packetP10RF_TX_INFOtt) for i._Z17rf_tx_tdma_packetP10RF_TX_INFOtt
    basic_rf.o(.ARM.exidx) refers to basic_rf.o(i._Z12rf_tx_packetP10RF_TX_INFO) for i._Z12rf_tx_packetP10RF_TX_INFO
    basic_rf.o(.ARM.exidx) refers to basic_rf.o(i._Z18rf_parse_rx_packetv) for i._Z18rf_parse_rx_packetv
    basic_rf.o(.ARM.exidx) refers to basic_rf.o(i.EINT3_IRQHandler) for i.EINT3_IRQHandler
    mrf24j40.o(i._Z12mrf_set_addrt) refers to mrf24j40.o(i._Z15mrf_write_shorthh) for mrf_write_short(unsigned char, unsigned char)
    mrf24j40.o(i._Z12mrf_set_addrt) refers to mrf24j40.o(.data) for .data
    mrf24j40.o(i._Z13mrf_data_modev) refers to mrf24j40.o(i._Z14mrf_write_longth) for mrf_write_long(unsigned short, unsigned char)
    mrf24j40.o(i._Z13mrf_data_modev) refers to nrk_timer.o(i._Z16nrk_spin_wait_usj) for nrk_spin_wait_us(unsigned)
    mrf24j40.o(i._Z13mrf_data_modev) refers to mrf24j40.o(i._Z15mrf_write_shorthh) for mrf_write_short(unsigned char, unsigned char)
    mrf24j40.o(i._Z13mrf_read_longt) refers to mrf24j40.o(i._Z10mrf_cs_seth) for mrf_cs_set(unsigned char)
    mrf24j40.o(i._Z13mrf_read_longt) refers to nrk_timer.o(i._Z16nrk_spin_wait_usj) for nrk_spin_wait_us(unsigned)
    mrf24j40.o(i._Z13mrf_read_longt) refers to mrf24j40.o(i._Z13mrf_spi_writet) for mrf_spi_write(unsigned short)
    mrf24j40.o(i._Z13mrf_set_panidt) refers to mrf24j40.o(i._Z15mrf_write_shorthh) for mrf_write_short(unsigned char, unsigned char)
    mrf24j40.o(i._Z13mrf_set_panidt) refers to mrf24j40.o(.data) for .data
    mrf24j40.o(i._Z13mrf_test_modev) refers to mrf24j40.o(i._Z14mrf_write_longth) for mrf_write_long(unsigned short, unsigned char)
    mrf24j40.o(i._Z13mrf_test_modev) refers to nrk_timer.o(i._Z16nrk_spin_wait_usj) for nrk_spin_wait_us(unsigned)
    mrf24j40.o(i._Z13mrf_test_modev) refers to mrf24j40.o(i._Z15mrf_write_shorthh) for mrf_write_short(unsigned char, unsigned char)
    mrf24j40.o(i._Z14mrf_read_shorth) refers to mrf24j40.o(i._Z10mrf_cs_seth) for mrf_cs_set(unsigned char)
    mrf24j40.o(i._Z14mrf_read_shorth) refers to nrk_timer.o(i._Z16nrk_spin_wait_usj) for nrk_spin_wait_us(unsigned)
    mrf24j40.o(i._Z14mrf_read_shorth) refers to mrf24j40.o(i._Z13mrf_spi_writet) for mrf_spi_write(unsigned short)
    mrf24j40.o(i._Z14mrf_write_longth) refers to mrf24j40.o(i._Z10mrf_cs_seth) for mrf_cs_set(unsigned char)
    mrf24j40.o(i._Z14mrf_write_longth) refers to nrk_timer.o(i._Z16nrk_spin_wait_usj) for nrk_spin_wait_us(unsigned)
    mrf24j40.o(i._Z14mrf_write_longth) refers to mrf24j40.o(i._Z13mrf_spi_writet) for mrf_spi_write(unsigned short)
    mrf24j40.o(i._Z15mrf_write_shorthh) refers to mrf24j40.o(i._Z10mrf_cs_seth) for mrf_cs_set(unsigned char)
    mrf24j40.o(i._Z15mrf_write_shorthh) refers to nrk_timer.o(i._Z16nrk_spin_wait_usj) for nrk_spin_wait_us(unsigned)
    mrf24j40.o(i._Z15mrf_write_shorthh) refers to mrf24j40.o(i._Z13mrf_spi_writet) for mrf_spi_write(unsigned short)
    mrf24j40.o(i._Z8mrf_initv) refers to mrf24j40.o(i._Z13mrf_gpio_initv) for mrf_gpio_init()
    mrf24j40.o(i._Z8mrf_initv) refers to mrf24j40.o(i._Z12mrf_spi_inithhi) for mrf_spi_init(unsigned char, unsigned char, int)
    mrf24j40.o(i._Z8mrf_initv) refers to mrf24j40.o(i._Z9mrf_resetv) for mrf_reset()
    mrf24j40.o(i._Z8mrf_initv) refers to mrf24j40.o(i._Z16mrf_gpioint_initv) for mrf_gpioint_init()
    mrf24j40.o(i._Z8mrf_rssiv) refers to mrf24j40.o(i._Z15mrf_write_shorthh) for mrf_write_short(unsigned char, unsigned char)
    mrf24j40.o(i._Z8mrf_rssiv) refers to mrf24j40.o(i._Z14mrf_read_shorth) for mrf_read_short(unsigned char)
    mrf24j40.o(i._Z8mrf_rssiv) refers to mrf24j40.o(i._Z13mrf_read_longt) for mrf_read_long(unsigned short)
    mrf24j40.o(i._Z8mrf_wakev) refers to mrf24j40.o(i._Z15mrf_write_shorthh) for mrf_write_short(unsigned char, unsigned char)
    mrf24j40.o(i._Z8mrf_wakev) refers to nrk_timer.o(i._Z16nrk_spin_wait_usj) for nrk_spin_wait_us(unsigned)
    mrf24j40.o(i._Z9mrf_resetv) refers to mrf24j40.o(i._Z10mrf_cs_seth) for mrf_cs_set(unsigned char)
    mrf24j40.o(i._Z9mrf_resetv) refers to mrf24j40.o(i._Z13mrf_reset_seth) for mrf_reset_set(unsigned char)
    mrf24j40.o(i._Z9mrf_resetv) refers to nrk_timer.o(i._Z16nrk_spin_wait_usj) for nrk_spin_wait_us(unsigned)
    mrf24j40.o(i._Z9mrf_resetv) refers to mrf24j40.o(i._Z15mrf_write_shorthh) for mrf_write_short(unsigned char, unsigned char)
    mrf24j40.o(i._Z9mrf_resetv) refers to mrf24j40.o(i._Z14mrf_write_longth) for mrf_write_long(unsigned short, unsigned char)
    mrf24j40.o(i._Z9mrf_sleepv) refers to mrf24j40.o(i._Z15mrf_write_shorthh) for mrf_write_short(unsigned char, unsigned char)
    mrf24j40.o(.ARM.exidx) refers to mrf24j40.o(i._Z12mrf_spi_inithhi) for i._Z12mrf_spi_inithhi
    mrf24j40.o(.ARM.exidx) refers to mrf24j40.o(i._Z13mrf_spi_writet) for i._Z13mrf_spi_writet
    mrf24j40.o(.ARM.exidx) refers to mrf24j40.o(i._Z16mrf_gpioint_initv) for i._Z16mrf_gpioint_initv
    mrf24j40.o(.ARM.exidx) refers to mrf24j40.o(i._Z13mrf_gpio_initv) for i._Z13mrf_gpio_initv
    mrf24j40.o(.ARM.exidx) refers to mrf24j40.o(i._Z10mrf_cs_seth) for i._Z10mrf_cs_seth
    mrf24j40.o(.ARM.exidx) refers to mrf24j40.o(i._Z13mrf_reset_seth) for i._Z13mrf_reset_seth
    mrf24j40.o(.ARM.exidx) refers to mrf24j40.o(i._Z15mrf_write_shorthh) for i._Z15mrf_write_shorthh
    mrf24j40.o(.ARM.exidx) refers to mrf24j40.o(i._Z14mrf_read_shorth) for i._Z14mrf_read_shorth
    mrf24j40.o(.ARM.exidx) refers to mrf24j40.o(i._Z14mrf_write_longth) for i._Z14mrf_write_longth
    mrf24j40.o(.ARM.exidx) refers to mrf24j40.o(i._Z13mrf_read_longt) for i._Z13mrf_read_longt
    mrf24j40.o(.ARM.exidx) refers to mrf24j40.o(i._Z9mrf_resetv) for i._Z9mrf_resetv
    mrf24j40.o(.ARM.exidx) refers to mrf24j40.o(i._Z8mrf_initv) for i._Z8mrf_initv
    mrf24j40.o(.ARM.exidx) refers to mrf24j40.o(i._Z12mrf_set_addrt) for i._Z12mrf_set_addrt
    mrf24j40.o(.ARM.exidx) refers to mrf24j40.o(i._Z13mrf_set_panidt) for i._Z13mrf_set_panidt
    mrf24j40.o(.ARM.exidx) refers to mrf24j40.o(i._Z13mrf_test_modev) for i._Z13mrf_test_modev
    mrf24j40.o(.ARM.exidx) refers to mrf24j40.o(i._Z13mrf_data_modev) for i._Z13mrf_data_modev
    mrf24j40.o(.ARM.exidx) refers to mrf24j40.o(i._Z8mrf_rssiv) for i._Z8mrf_rssiv
    mrf24j40.o(.ARM.exidx) refers to mrf24j40.o(i._Z9mrf_sleepv) for i._Z9mrf_sleepv
    mrf24j40.o(.ARM.exidx) refers to mrf24j40.o(i._Z8mrf_wakev) for i._Z8mrf_wakev
    main.o(i._Z10go_forwardv) refers to m3pi.o(i._ZN4m3pi7forwardEf) for m3pi::forward(float)
    main.o(i._Z10go_forwardv) refers to wait_api.c.lpc1768.arm.o(i.wait_ms) for wait_ms
    main.o(i._Z10go_forwardv) refers to m3pi.o(i._ZN4m3pi4stopEv) for m3pi::stop()
    main.o(i._Z10go_forwardv) refers to wait_api.c.lpc1768.arm.o(i.wait) for wait
    main.o(i._Z10go_forwardv) refers to m3pi.o(i._ZN4m3pi8backwardEf) for m3pi::backward(float)
    main.o(i._Z10go_forwardv) refers to main.o(.bss) for .bss
    main.o(i._Z10i2c_write2icc) refers to I2C.cpp.lpc1768.arm.o(i._ZN4mbed3I2C5writeEiPKci) for mbed::I2C::write(int, const char*, int)
    main.o(i._Z10i2c_write2icc) refers to wait_api.c.lpc1768.arm.o(i.wait) for wait
    main.o(i._Z10i2c_write2icc) refers to main.o(.bss) for .bss
    main.o(i._Z10led_passerv) refers to ulib.o(i._Z11nrk_led_clri) for nrk_led_clr(int)
    main.o(i._Z10led_passerv) refers to ulib.o(i._Z11nrk_led_seti) for nrk_led_set(int)
    main.o(i._Z11read_cameraPj) refers to I2C.cpp.lpc1768.arm.o(i._ZN4mbed3I2C5writeEiPKci) for mbed::I2C::write(int, const char*, int)
    main.o(i._Z11read_cameraPj) refers to I2C.cpp.lpc1768.arm.o(i._ZN4mbed3I2C4readEiPci) for mbed::I2C::read(int, char*, int)
    main.o(i._Z11read_cameraPj) refers to wait_api.c.lpc1768.arm.o(i.wait) for wait
    main.o(i._Z11read_cameraPj) refers to main.o(.bss) for .bss
    main.o(i._Z12led_attackerv) refers to ulib.o(i._Z11nrk_led_seti) for nrk_led_set(int)
    main.o(i._Z12led_attackerv) refers to ulib.o(i._Z11nrk_led_clri) for nrk_led_clr(int)
    main.o(i._Z12led_defenderv) refers to ulib.o(i._Z11nrk_led_clri) for nrk_led_clr(int)
    main.o(i._Z12led_defenderv) refers to ulib.o(i._Z11nrk_led_seti) for nrk_led_set(int)
    main.o(i._Z13led_assistantv) refers to ulib.o(i._Z11nrk_led_seti) for nrk_led_set(int)
    main.o(i._Z13led_assistantv) refers to ulib.o(i._Z11nrk_led_clri) for nrk_led_clr(int)
    main.o(i._Z14approach_net_Aii) refers to dflt_clz.o(x$fpl$dflt) for __aeabi_i2d
    main.o(i._Z14approach_net_Aii) refers to daddsub_clz.o(x$fpl$dsub) for __aeabi_dsub
    main.o(i._Z14approach_net_Aii) refers to dmul.o(x$fpl$dmul) for __aeabi_dmul
    main.o(i._Z14approach_net_Aii) refers to daddsub_clz.o(x$fpl$dadd) for __aeabi_dadd
    main.o(i._Z14approach_net_Aii) refers to sqrt.o(i.sqrt) for sqrt
    main.o(i._Z14approach_net_Aii) refers to main.o(i._ZSt3absd) for std::abs(double)
    main.o(i._Z14approach_net_Aii) refers to ddiv.o(x$fpl$ddiv) for __aeabi_ddiv
    main.o(i._Z14approach_net_Aii) refers to atan.o(i.atan) for atan
    main.o(i._Z14approach_net_Aii) refers to drleqf.o(x$fpl$drleqf) for __aeabi_cdrcmple
    main.o(i._Z14approach_net_Aii) refers to dleqf.o(x$fpl$dleqf) for __aeabi_cdcmple
    main.o(i._Z14approach_net_Aii) refers to main.o(.data) for .data
    main.o(i._Z14approach_net_Bii) refers to dflt_clz.o(x$fpl$dflt) for __aeabi_i2d
    main.o(i._Z14approach_net_Bii) refers to daddsub_clz.o(x$fpl$dsub) for __aeabi_dsub
    main.o(i._Z14approach_net_Bii) refers to dmul.o(x$fpl$dmul) for __aeabi_dmul
    main.o(i._Z14approach_net_Bii) refers to daddsub_clz.o(x$fpl$dadd) for __aeabi_dadd
    main.o(i._Z14approach_net_Bii) refers to sqrt.o(i.sqrt) for sqrt
    main.o(i._Z14approach_net_Bii) refers to main.o(i._ZSt3absd) for std::abs(double)
    main.o(i._Z14approach_net_Bii) refers to ddiv.o(x$fpl$ddiv) for __aeabi_ddiv
    main.o(i._Z14approach_net_Bii) refers to atan.o(i.atan) for atan
    main.o(i._Z14approach_net_Bii) refers to drleqf.o(x$fpl$drleqf) for __aeabi_cdrcmple
    main.o(i._Z14approach_net_Bii) refers to dleqf.o(x$fpl$dleqf) for __aeabi_cdcmple
    main.o(i._Z14approach_net_Bii) refers to main.o(.data) for .data
    main.o(i._Z18nrk_create_tasksetv) refers to nrk_cpu.o(i._Z16nrk_task_set_stkP9task_typePjt) for nrk_task_set_stk(task_type*, unsigned*, unsigned short)
    main.o(i._Z18nrk_create_tasksetv) refers to nrk_task.o(i._Z17nrk_activate_taskP9task_type) for nrk_activate_task(task_type*)
    main.o(i._Z18nrk_create_tasksetv) refers to main.o(i._Z7rx_taskv) for rx_task()
    main.o(i._Z18nrk_create_tasksetv) refers to main.o(.bss) for .bss
    main.o(i._Z18nrk_create_tasksetv) refers to main.o(i._Z7tx_taskv) for tx_task()
    main.o(i._Z4passv) refers to m3pi.o(i._ZN4m3pi7forwardEf) for m3pi::forward(float)
    main.o(i._Z4passv) refers to wait_api.c.lpc1768.arm.o(i.wait_ms) for wait_ms
    main.o(i._Z4passv) refers to m3pi.o(i._ZN4m3pi4stopEv) for m3pi::stop()
    main.o(i._Z4passv) refers to m3pi.o(i._ZN4m3pi8backwardEf) for m3pi::backward(float)
    main.o(i._Z4passv) refers to main.o(.bss) for .bss
    main.o(i._Z4stopv) refers to m3pi.o(i._ZN4m3pi4stopEv) for m3pi::stop()
    main.o(i._Z4stopv) refers to wait_api.c.lpc1768.arm.o(i.wait) for wait
    main.o(i._Z4stopv) refers to main.o(.bss) for .bss
    main.o(i._Z5shootv) refers to m3pi.o(i._ZN4m3pi7forwardEf) for m3pi::forward(float)
    main.o(i._Z5shootv) refers to wait_api.c.lpc1768.arm.o(i.wait_ms) for wait_ms
    main.o(i._Z5shootv) refers to m3pi.o(i._ZN4m3pi4stopEv) for m3pi::stop()
    main.o(i._Z5shootv) refers to m3pi.o(i._ZN4m3pi8backwardEf) for m3pi::backward(float)
    main.o(i._Z5shootv) refers to main.o(.bss) for .bss
    main.o(i._Z5trackPj) refers to dflt_clz.o(x$fpl$dflt) for __aeabi_i2d
    main.o(i._Z5trackPj) refers to sqrt.o(i.sqrt) for sqrt
    main.o(i._Z5trackPj) refers to ddiv.o(x$fpl$ddiv) for __aeabi_ddiv
    main.o(i._Z5trackPj) refers to dmul.o(x$fpl$dmul) for __aeabi_dmul
    main.o(i._Z5trackPj) refers to dfix.o(x$fpl$dfix) for __aeabi_d2iz
    main.o(i._Z5trackPj) refers to scalbn.o(x$fpl$scalbn) for __ARM_scalbn
    main.o(i._Z5trackPj) refers to atan2.o(i.atan2) for atan2
    main.o(i._Z5trackPj) refers to daddsub_clz.o(x$fpl$dadd) for __aeabi_dadd
    main.o(i._Z5trackPj) refers to daddsub_clz.o(x$fpl$dsub) for __aeabi_dsub
    main.o(i._Z5trackPj) refers to cos.o(i.cos) for cos
    main.o(i._Z5trackPj) refers to sin.o(i.sin) for sin
    main.o(i._Z5trackPj) refers to main.o(.data) for .data
    main.o(i._Z6assigni) refers to main.o(.data) for .data
    main.o(i._Z6rotatei) refers to m3pi.o(i._ZN4m3pi4leftEf) for m3pi::left(float)
    main.o(i._Z6rotatei) refers to m3pi.o(i._ZN4m3pi5rightEf) for m3pi::right(float)
    main.o(i._Z6rotatei) refers to wait_api.c.lpc1768.arm.o(i.wait_ms) for wait_ms
    main.o(i._Z6rotatei) refers to main.o(.bss) for .bss
    main.o(i._Z7forwardii) refers to m3pi.o(i._ZN4m3pi7forwardEf) for m3pi::forward(float)
    main.o(i._Z7forwardii) refers to wait_api.c.lpc1768.arm.o(i.wait_ms) for wait_ms
    main.o(i._Z7forwardii) refers to m3pi.o(i._ZN4m3pi4stopEv) for m3pi::stop()
    main.o(i._Z7forwardii) refers to main.o(.data) for .data
    main.o(i._Z7forwardii) refers to main.o(.bss) for .bss
    main.o(i._Z7led_clrv) refers to ulib.o(i._Z11nrk_led_clri) for nrk_led_clr(int)
    main.o(i._Z7led_setv) refers to ulib.o(i._Z11nrk_led_seti) for nrk_led_set(int)
    main.o(i._Z7rx_taskv) refers to bmac.o(i._Z9bmac_inith) for bmac_init(unsigned char)
    main.o(i._Z7rx_taskv) refers to bmac.o(i._Z19bmac_set_cca_thresha) for bmac_set_cca_thresh(signed char)
    main.o(i._Z7rx_taskv) refers to bmac.o(i._Z22bmac_rx_pkt_set_bufferPch) for bmac_rx_pkt_set_buffer(char*, unsigned char)
    main.o(i._Z7rx_taskv) refers to bmac.o(i._Z22bmac_wait_until_rx_pktv) for bmac_wait_until_rx_pkt()
    main.o(i._Z7rx_taskv) refers to bmac.o(i._Z15bmac_rx_pkt_getPhS_) for bmac_rx_pkt_get(unsigned char*, unsigned char*)
    main.o(i._Z7rx_taskv) refers to m3pi.o(i._ZN4m3pi4stopEv) for m3pi::stop()
    main.o(i._Z7rx_taskv) refers to wait_api.c.lpc1768.arm.o(i.wait_ms) for wait_ms
    main.o(i._Z7rx_taskv) refers to main.o(i._Z7led_setv) for led_set()
    main.o(i._Z7rx_taskv) refers to main.o(i._Z7led_clrv) for led_clr()
    main.o(i._Z7rx_taskv) refers to m3pi.o(i._ZN4m3pi8backwardEf) for m3pi::backward(float)
    main.o(i._Z7rx_taskv) refers to bmac.o(i._Z19bmac_rx_pkt_releasev) for bmac_rx_pkt_release()
    main.o(i._Z7rx_taskv) refers to nrk_task.o(i._Z26nrk_wait_until_next_periodv) for nrk_wait_until_next_period()
    main.o(i._Z7rx_taskv) refers to main.o(.bss) for .bss
    main.o(i._Z7rx_taskv) refers to main.o(.data) for .data
    main.o(i._Z7tx_taskv) refers to main.o(i._Z12led_attackerv) for led_attacker()
    main.o(i._Z7tx_taskv) refers to adc_driver.o(i._Z12set_adc_chanh) for set_adc_chan(unsigned char)
    main.o(i._Z7tx_taskv) refers to adc_driver.o(i._Z11get_adc_valv) for get_adc_val()
    main.o(i._Z7tx_taskv) refers to m3pi.o(i._ZN4m3pi7forwardEf) for m3pi::forward(float)
    main.o(i._Z7tx_taskv) refers to m3pi.o(i._ZN4m3pi4leftEf) for m3pi::left(float)
    main.o(i._Z7tx_taskv) refers to m3pi.o(i._ZN4m3pi5rightEf) for m3pi::right(float)
    main.o(i._Z7tx_taskv) refers to wait_api.c.lpc1768.arm.o(i.wait_ms) for wait_ms
    main.o(i._Z7tx_taskv) refers to main.o(i._Z8transmiti) for transmit(int)
    main.o(i._Z7tx_taskv) refers to main.o(i._Z11read_cameraPj) for read_camera(unsigned*)
    main.o(i._Z7tx_taskv) refers to main.o(i._Z5trackPj) for track(unsigned*)
    main.o(i._Z7tx_taskv) refers to dmul.o(x$fpl$dmul) for __aeabi_dmul
    main.o(i._Z7tx_taskv) refers to ddiv.o(x$fpl$ddiv) for __aeabi_ddiv
    main.o(i._Z7tx_taskv) refers to dfix.o(x$fpl$dfix) for __aeabi_d2iz
    main.o(i._Z7tx_taskv) refers to dflt_clz.o(x$fpl$dflt) for __aeabi_i2d
    main.o(i._Z7tx_taskv) refers to daddsub_clz.o(x$fpl$dadd) for __aeabi_dadd
    main.o(i._Z7tx_taskv) refers to sqrt.o(i.sqrt) for sqrt
    main.o(i._Z7tx_taskv) refers to m3pi.o(i._ZN4m3pi4stopEv) for m3pi::stop()
    main.o(i._Z7tx_taskv) refers to main.o(i._Z7led_setv) for led_set()
    main.o(i._Z7tx_taskv) refers to main.o(i._Z9track_degPj) for track_deg(unsigned*)
    main.o(i._Z7tx_taskv) refers to main.o(i._Z14approach_net_Bii) for approach_net_B(int, int)
    main.o(i._Z7tx_taskv) refers to main.o(i._Z14approach_net_Aii) for approach_net_A(int, int)
    main.o(i._Z7tx_taskv) refers to main.o(.data) for .data
    main.o(i._Z7tx_taskv) refers to main.o(.bss) for .bss
    main.o(i._Z7tx_taskv) refers to main.o(i._Z7forwardii) for forward(int, int)
    main.o(i._Z7tx_taskv) refers to main.o(i._Z12led_defenderv) for led_defender()
    main.o(i._Z7tx_taskv) refers to main.o(i._Z10go_forwardv) for go_forward()
    main.o(i._Z7tx_taskv) refers to main.o(i._Z10led_passerv) for led_passer()
    main.o(i._Z7tx_taskv) refers to main.o(i._Z4passv) for pass()
    main.o(i._Z7tx_taskv) refers to main.o(i._Z13led_assistantv) for led_assistant()
    main.o(i._Z7tx_taskv) refers to main.o(i._Z6rotatei) for rotate(int)
    main.o(i._Z7tx_taskv) refers to main.o(i._Z5shootv) for shoot()
    main.o(i._Z7tx_taskv) refers to main.o(i._Z7led_clrv) for led_clr()
    main.o(i._Z7tx_taskv) refers to main.o(i._Z4stopv) for stop()
    main.o(i._Z7tx_taskv) refers to nrk_task.o(i._Z26nrk_wait_until_next_periodv) for nrk_wait_until_next_period()
    main.o(i._Z8cam_initv) refers to main.o(i._Z10i2c_write2icc) for i2c_write2(int, char, char)
    main.o(i._Z8cam_initv) refers to wait_api.c.lpc1768.arm.o(i.wait) for wait
    main.o(i._Z8transmiti) refers to _printf_percent.o(.ARM.Collect$$_printf_percent$$00000000) for _printf_percent
    main.o(i._Z8transmiti) refers to _printf_d.o(.ARM.Collect$$_printf_percent$$00000009) for _printf_d
    main.o(i._Z8transmiti) refers to _printf_c.o(.ARM.Collect$$_printf_percent$$00000013) for _printf_c
    main.o(i._Z8transmiti) refers to _printf_dec.o(.text) for _printf_int_dec
    main.o(i._Z8transmiti) refers to _printf_str.o(.text) for _printf_str
    main.o(i._Z8transmiti) refers to nrk_task.o(i._Z26nrk_wait_until_next_periodv) for nrk_wait_until_next_period()
    main.o(i._Z8transmiti) refers to bmac.o(i._Z12bmac_startedv) for bmac_started()
    main.o(i._Z8transmiti) refers to bmac.o(i._Z23bmac_get_tx_done_signalv) for bmac_get_tx_done_signal()
    main.o(i._Z8transmiti) refers to nrk_events.o(i._Z19nrk_signal_registera) for nrk_signal_register(signed char)
    main.o(i._Z8transmiti) refers to __2sprintf.o(.text) for __2sprintf
    main.o(i._Z8transmiti) refers to bmac.o(i._Z21bmac_auto_ack_disablev) for bmac_auto_ack_disable()
    main.o(i._Z8transmiti) refers to strlen.o(.text) for strlen
    main.o(i._Z8transmiti) refers to bmac.o(i._Z11bmac_tx_pktPch) for bmac_tx_pkt(char*, unsigned char)
    main.o(i._Z8transmiti) refers to main.o(.data) for .data
    main.o(i._Z8transmiti) refers to main.o(.bss) for .bss
    main.o(i._Z9track_degPj) refers to dflt_clz.o(x$fpl$dflt) for __aeabi_i2d
    main.o(i._Z9track_degPj) refers to sqrt.o(i.sqrt) for sqrt
    main.o(i._Z9track_degPj) refers to ddiv.o(x$fpl$ddiv) for __aeabi_ddiv
    main.o(i._Z9track_degPj) refers to dmul.o(x$fpl$dmul) for __aeabi_dmul
    main.o(i._Z9track_degPj) refers to dfix.o(x$fpl$dfix) for __aeabi_d2iz
    main.o(i._Z9track_degPj) refers to atan2.o(i.atan2) for atan2
    main.o(i._Z9track_degPj) refers to main.o(.data) for .data
    main.o(i.__sti___8_main_cpp) refers to PwmOut.cpp.lpc1768.arm.o(i._ZN4mbed6PwmOutC1E7PinNamePKc) for mbed::PwmOut::PwmOut(PinName, const char*)
    main.o(i.__sti___8_main_cpp) refers to aeabi_atexit.o(i.__aeabi_atexit) for __aeabi_atexit
    main.o(i.__sti___8_main_cpp) refers to I2C.cpp.lpc1768.arm.o(i._ZN4mbed3I2CC1E7PinNameS1_PKc) for mbed::I2C::I2C(PinName, PinName, const char*)
    main.o(i.__sti___8_main_cpp) refers to m3pi.o(i._ZN4m3piC1E7PinNameS0_S0_) for m3pi::m3pi(PinName, PinName, PinName)
    main.o(i.__sti___8_main_cpp) refers to main.o(.bss) for .bss
    main.o(i.__sti___8_main_cpp) refers to PwmOut.cpp.lpc1768.arm.o(i._ZN4mbed6PwmOutD1Ev) for mbed::PwmOut::~PwmOut()
    main.o(i.__sti___8_main_cpp) refers to I2C.cpp.lpc1768.arm.o(i._ZN4mbed3I2CD1Ev) for mbed::I2C::~I2C()
    main.o(i.__sti___8_main_cpp) refers to main.o(i._ZN4m3piD1Ev) for m3pi::~m3pi()
    main.o(i.main) refers to ulib.o(i._Z15nrk_setup_portsv) for nrk_setup_ports()
    main.o(i.main) refers to __2printf.o(.text) for __2printf
    main.o(i.main) refers to nrk.o(i._Z8nrk_initv) for nrk_init()
    main.o(i.main) refers to adc_driver.o(i._Z8init_adcv) for init_adc()
    main.o(i.main) refers to main.o(i._Z10clock_initv) for clock_init()
    main.o(i.main) refers to main.o(i._Z8cam_initv) for cam_init()
    main.o(i.main) refers to main.o(i._Z6assigni) for assign(int)
    main.o(i.main) refers to bmac.o(i._Z16bmac_task_configv) for bmac_task_config()
    main.o(i.main) refers to main.o(i._Z18nrk_create_tasksetv) for nrk_create_taskset()
    main.o(i.main) refers to nrk.o(i._Z9nrk_startv) for nrk_start()
    main.o(i.main) refers to main.o(.data) for .data
    main.o(.ARM.exidx) refers to main.o(i._Z5trackPj) for i._Z5trackPj
    main.o(.ARM.exidx) refers to main.o(i._Z9track_degPj) for i._Z9track_degPj
    main.o(.ARM.exidx) refers to main.o(i._Z10i2c_write2icc) for i._Z10i2c_write2icc
    main.o(.ARM.exidx) refers to main.o(i._Z10clock_initv) for i._Z10clock_initv
    main.o(.ARM.exidx) refers to main.o(i._Z8cam_initv) for i._Z8cam_initv
    main.o(.ARM.exidx) refers to main.o(i._Z11read_cameraPj) for i._Z11read_cameraPj
    main.o(.ARM.exidx) refers to main.o(i._Z14approach_net_Aii) for i._Z14approach_net_Aii
    main.o(.ARM.exidx) refers to main.o(i._Z14approach_net_Bii) for i._Z14approach_net_Bii
    main.o(.ARM.exidx) refers to main.o(i._Z6assigni) for i._Z6assigni
    main.o(.ARM.exidx) refers to main.o(i._Z5shootv) for i._Z5shootv
    main.o(.ARM.exidx) refers to main.o(i._Z4passv) for i._Z4passv
    main.o(.ARM.exidx) refers to main.o(i._Z4stopv) for i._Z4stopv
    main.o(.ARM.exidx) refers to main.o(i._Z6rotatei) for i._Z6rotatei
    main.o(.ARM.exidx) refers to main.o(i._Z7forwardii) for i._Z7forwardii
    main.o(.ARM.exidx) refers to main.o(i._Z10go_forwardv) for i._Z10go_forwardv
    main.o(.ARM.exidx) refers to main.o(i._Z12led_attackerv) for i._Z12led_attackerv
    main.o(.ARM.exidx) refers to main.o(i._Z12led_defenderv) for i._Z12led_defenderv
    main.o(.ARM.exidx) refers to main.o(i._Z10led_passerv) for i._Z10led_passerv
    main.o(.ARM.exidx) refers to main.o(i._Z13led_assistantv) for i._Z13led_assistantv
    main.o(.ARM.exidx) refers to main.o(i._Z7led_setv) for i._Z7led_setv
    main.o(.ARM.exidx) refers to main.o(i._Z7led_clrv) for i._Z7led_clrv
    main.o(.ARM.exidx) refers to main.o(i._Z8transmiti) for i._Z8transmiti
    main.o(.ARM.exidx) refers to main.o(i._Z7tx_taskv) for i._Z7tx_taskv
    main.o(.ARM.exidx) refers to main.o(i._Z7rx_taskv) for i._Z7rx_taskv
    main.o(.ARM.exidx) refers to main.o(i._Z18nrk_create_tasksetv) for i._Z18nrk_create_tasksetv
    main.o(.ARM.exidx) refers to main.o(i.main) for i.main
    main.o(.ARM.exidx) refers to main.o(i.__sti___8_main_cpp) for i.__sti___8_main_cpp
    main.o(.init_array) refers to main.o(i.__sti___8_main_cpp) for __sti___8_main_cpp
    main.o(.init_array) refers to init_aeabi.o(.text) for __cpp_initialize__aeabi_
    m3pi.o(i._ZN4m3pi10left_motorEf) refers to m3pi.o(i._ZN4m3pi5motorEif) for m3pi::motor(int, float)
    m3pi.o(i._ZN4m3pi11pot_voltageEv) refers to Stream.cpp.lpc1768.arm.o(i._ZN4mbed6Stream4putcEi) for mbed::Stream::putc(int)
    m3pi.o(i._ZN4m3pi11pot_voltageEv) refers to Stream.cpp.lpc1768.arm.o(i._ZN4mbed6Stream4getcEv) for mbed::Stream::getc()
    m3pi.o(i._ZN4m3pi11pot_voltageEv) refers to fflt_clz.o(x$fpl$fflt) for __aeabi_i2f
    m3pi.o(i._ZN4m3pi11right_motorEf) refers to m3pi.o(i._ZN4m3pi5motorEif) for m3pi::motor(int, float)
    m3pi.o(i._ZN4m3pi13line_positionEv) refers to Stream.cpp.lpc1768.arm.o(i._ZN4mbed6Stream4putcEi) for mbed::Stream::putc(int)
    m3pi.o(i._ZN4m3pi13line_positionEv) refers to Stream.cpp.lpc1768.arm.o(i._ZN4mbed6Stream4getcEv) for mbed::Stream::getc()
    m3pi.o(i._ZN4m3pi13line_positionEv) refers to fflt_clz.o(x$fpl$fflt) for __aeabi_i2f
    m3pi.o(i._ZN4m3pi13line_positionEv) refers to f2d.o(x$fpl$f2d) for __aeabi_f2d
    m3pi.o(i._ZN4m3pi13line_positionEv) refers to daddsub_clz.o(x$fpl$dsub) for __aeabi_dsub
    m3pi.o(i._ZN4m3pi13line_positionEv) refers to scalbn.o(x$fpl$scalbn) for __ARM_scalbn
    m3pi.o(i._ZN4m3pi13line_positionEv) refers to d2f.o(x$fpl$d2f) for __aeabi_d2f
    m3pi.o(i._ZN4m3pi15get_rpc_methodsEv) refers to m3pi.o(.constdata) for .constdata
    m3pi.o(i._ZN4m3pi17reset_calibrationEv) refers to Stream.cpp.lpc1768.arm.o(i._ZN4mbed6Stream4putcEi) for mbed::Stream::putc(int)
    m3pi.o(i._ZN4m3pi21sensor_auto_calibrateEv) refers to Stream.cpp.lpc1768.arm.o(i._ZN4mbed6Stream4putcEi) for mbed::Stream::putc(int)
    m3pi.o(i._ZN4m3pi21sensor_auto_calibrateEv) refers to Stream.cpp.lpc1768.arm.o(i._ZN4mbed6Stream4getcEv) for mbed::Stream::getc()
    m3pi.o(i._ZN4m3pi3clsEv) refers to Stream.cpp.lpc1768.arm.o(i._ZN4mbed6Stream4putcEi) for mbed::Stream::putc(int)
    m3pi.o(i._ZN4m3pi4getcEv) refers to Stream.cpp.lpc1768.arm.o(i._ZN4mbed6Stream4getcEv) for mbed::Stream::getc()
    m3pi.o(i._ZN4m3pi4ledsEi) refers to BusOut.cpp.lpc1768.arm.o(i._ZN4mbed6BusOutC1E7PinNameS1_S1_S1_S1_S1_S1_S1_S1_S1_S1_S1_S1_S1_S1_S1_PKc) for mbed::BusOut::BusOut(PinName, PinName, PinName, PinName, PinName, PinName, PinName, PinName, PinName, PinName, PinName, PinName, PinName, PinName, PinName, PinName, const char*)
    m3pi.o(i._ZN4m3pi4ledsEi) refers to BusOut.cpp.lpc1768.arm.o(i._ZN4mbed6BusOutaSEi) for mbed::BusOut::operator =(int)
    m3pi.o(i._ZN4m3pi4ledsEi) refers to BusOut.cpp.lpc1768.arm.o(i._ZN4mbed6BusOutD1Ev) for mbed::BusOut::~BusOut()
    m3pi.o(i._ZN4m3pi4leftEf) refers to m3pi.o(i._ZN4m3pi5motorEif) for m3pi::motor(int, float)
    m3pi.o(i._ZN4m3pi4playEPci) refers to Stream.cpp.lpc1768.arm.o(i._ZN4mbed6Stream4putcEi) for mbed::Stream::putc(int)
    m3pi.o(i._ZN4m3pi4putcEi) refers to Stream.cpp.lpc1768.arm.o(i._ZN4mbed6Stream4putcEi) for mbed::Stream::putc(int)
    m3pi.o(i._ZN4m3pi4stopEv) refers to m3pi.o(i._ZN4m3pi5motorEif) for m3pi::motor(int, float)
    m3pi.o(i._ZN4m3pi5_putcEi) refers to Stream.cpp.lpc1768.arm.o(i._ZN4mbed6Stream4putcEi) for mbed::Stream::putc(int)
    m3pi.o(i._ZN4m3pi5_putcEi) refers to wait_api.c.lpc1768.arm.o(i.wait) for wait
    m3pi.o(i._ZN4m3pi5motorEif) refers to fmul.o(x$fpl$fmul) for __aeabi_fmul
    m3pi.o(i._ZN4m3pi5motorEif) refers to ffixu.o(x$fpl$ffixu) for __aeabi_f2uiz
    m3pi.o(i._ZN4m3pi5motorEif) refers to Stream.cpp.lpc1768.arm.o(i._ZN4mbed6Stream4putcEi) for mbed::Stream::putc(int)
    m3pi.o(i._ZN4m3pi5printEPci) refers to Stream.cpp.lpc1768.arm.o(i._ZN4mbed6Stream4putcEi) for mbed::Stream::putc(int)
    m3pi.o(i._ZN4m3pi5resetEv) refers to DigitalOut.cpp.lpc1768.arm.o(i._ZN4mbed10DigitalOutaSEi) for mbed::DigitalOut::operator =(int)
    m3pi.o(i._ZN4m3pi5resetEv) refers to wait_api.c.lpc1768.arm.o(i.wait) for wait
    m3pi.o(i._ZN4m3pi5rightEf) refers to m3pi.o(i._ZN4m3pi5motorEif) for m3pi::motor(int, float)
    m3pi.o(i._ZN4m3pi6locateEii) refers to Stream.cpp.lpc1768.arm.o(i._ZN4mbed6Stream4putcEi) for mbed::Stream::putc(int)
    m3pi.o(i._ZN4m3pi7batteryEv) refers to Stream.cpp.lpc1768.arm.o(i._ZN4mbed6Stream4putcEi) for mbed::Stream::putc(int)
    m3pi.o(i._ZN4m3pi7batteryEv) refers to Stream.cpp.lpc1768.arm.o(i._ZN4mbed6Stream4getcEv) for mbed::Stream::getc()
    m3pi.o(i._ZN4m3pi7batteryEv) refers to dflt_clz.o(x$fpl$dfltu) for __aeabi_ui2d
    m3pi.o(i._ZN4m3pi7batteryEv) refers to ddiv.o(x$fpl$ddiv) for __aeabi_ddiv
    m3pi.o(i._ZN4m3pi7batteryEv) refers to d2f.o(x$fpl$d2f) for __aeabi_d2f
    m3pi.o(i._ZN4m3pi7forwardEf) refers to m3pi.o(i._ZN4m3pi5motorEif) for m3pi::motor(int, float)
    m3pi.o(i._ZN4m3pi8PID_stopEv) refers to Stream.cpp.lpc1768.arm.o(i._ZN4mbed6Stream4putcEi) for mbed::Stream::putc(int)
    m3pi.o(i._ZN4m3pi8backwardEf) refers to m3pi.o(i._ZN4m3pi5motorEif) for m3pi::motor(int, float)
    m3pi.o(i._ZN4m3pi9PID_startEiiiii) refers to Stream.cpp.lpc1768.arm.o(i._ZN4mbed6Stream4putcEi) for mbed::Stream::putc(int)
    m3pi.o(i._ZN4m3pi9calibrateEv) refers to Stream.cpp.lpc1768.arm.o(i._ZN4mbed6Stream4putcEi) for mbed::Stream::putc(int)
    m3pi.o(i._ZN4m3piC1E7PinNameS0_S0_) refers to Stream.cpp.lpc1768.arm.o(i._ZN4mbed6StreamC2EPKc) for mbed::Stream::Stream__sub_object(const char*)
    m3pi.o(i._ZN4m3piC1E7PinNameS0_S0_) refers to DigitalOut.cpp.lpc1768.arm.o(i._ZN4mbed10DigitalOutC1E7PinNamePKc) for mbed::DigitalOut::DigitalOut(PinName, const char*)
    m3pi.o(i._ZN4m3piC1E7PinNameS0_S0_) refers to Serial.cpp.lpc1768.arm.o(i._ZN4mbed6SerialC1E7PinNameS1_PKc) for mbed::Serial::Serial(PinName, PinName, const char*)
    m3pi.o(i._ZN4m3piC1E7PinNameS0_S0_) refers to Serial.cpp.lpc1768.arm.o(i._ZN4mbed6Serial4baudEi) for mbed::Serial::baud(int)
    m3pi.o(i._ZN4m3piC1E7PinNameS0_S0_) refers to m3pi.o(i._ZN4m3pi5resetEv) for m3pi::reset()
    m3pi.o(i._ZN4m3piC1E7PinNameS0_S0_) refers to m3pi.o(.constdata__ZTV4m3pi) for vtable for m3pi
    m3pi.o(i._ZN4m3piC1Ev) refers to Stream.cpp.lpc1768.arm.o(i._ZN4mbed6StreamC2EPKc) for mbed::Stream::Stream__sub_object(const char*)
    m3pi.o(i._ZN4m3piC1Ev) refers to DigitalOut.cpp.lpc1768.arm.o(i._ZN4mbed10DigitalOutC1E7PinNamePKc) for mbed::DigitalOut::DigitalOut(PinName, const char*)
    m3pi.o(i._ZN4m3piC1Ev) refers to Serial.cpp.lpc1768.arm.o(i._ZN4mbed6SerialC1E7PinNameS1_PKc) for mbed::Serial::Serial(PinName, PinName, const char*)
    m3pi.o(i._ZN4m3piC1Ev) refers to Serial.cpp.lpc1768.arm.o(i._ZN4mbed6Serial4baudEi) for mbed::Serial::baud(int)
    m3pi.o(i._ZN4m3piC1Ev) refers to m3pi.o(i._ZN4m3pi5resetEv) for m3pi::reset()
    m3pi.o(i._ZN4m3piC1Ev) refers to m3pi.o(.constdata__ZTV4m3pi) for vtable for m3pi
    m3pi.o(.ARM.exidx) refers to m3pi.o(i._ZN4m3pi5resetEv) for i._ZN4m3pi5resetEv
    m3pi.o(.ARM.exidx) refers to m3pi.o(i._ZN4m3piC1Ev) for i._ZN4m3piC1Ev
    m3pi.o(.ARM.exidx) refers to m3pi.o(i._ZN4m3piC1E7PinNameS0_S0_) for i._ZN4m3piC1E7PinNameS0_S0_
    m3pi.o(.ARM.exidx) refers to m3pi.o(i._ZN4m3pi5motorEif) for i._ZN4m3pi5motorEif
    m3pi.o(.ARM.exidx) refers to m3pi.o(i._ZN4m3pi10left_motorEf) for i._ZN4m3pi10left_motorEf
    m3pi.o(.ARM.exidx) refers to m3pi.o(i._ZN4m3pi11right_motorEf) for i._ZN4m3pi11right_motorEf
    m3pi.o(.ARM.exidx) refers to m3pi.o(i._ZN4m3pi7forwardEf) for i._ZN4m3pi7forwardEf
    m3pi.o(.ARM.exidx) refers to m3pi.o(i._ZN4m3pi8backwardEf) for i._ZN4m3pi8backwardEf
    m3pi.o(.ARM.exidx) refers to m3pi.o(i._ZN4m3pi4leftEf) for i._ZN4m3pi4leftEf
    m3pi.o(.ARM.exidx) refers to m3pi.o(i._ZN4m3pi5rightEf) for i._ZN4m3pi5rightEf
    m3pi.o(.ARM.exidx) refers to m3pi.o(i._ZN4m3pi4stopEv) for i._ZN4m3pi4stopEv
    m3pi.o(.ARM.exidx) refers to m3pi.o(i._ZN4m3pi11pot_voltageEv) for i._ZN4m3pi11pot_voltageEv
    m3pi.o(.ARM.exidx) refers to m3pi.o(i._ZN4m3pi7batteryEv) for i._ZN4m3pi7batteryEv
    m3pi.o(.ARM.exidx) refers to m3pi.o(i._ZN4m3pi13line_positionEv) for i._ZN4m3pi13line_positionEv
    m3pi.o(.ARM.exidx) refers to m3pi.o(i._ZN4m3pi21sensor_auto_calibrateEv) for i._ZN4m3pi21sensor_auto_calibrateEv
    m3pi.o(.ARM.exidx) refers to m3pi.o(i._ZN4m3pi9calibrateEv) for i._ZN4m3pi9calibrateEv
    m3pi.o(.ARM.exidx) refers to m3pi.o(i._ZN4m3pi17reset_calibrationEv) for i._ZN4m3pi17reset_calibrationEv
    m3pi.o(.ARM.exidx) refers to m3pi.o(i._ZN4m3pi9PID_startEiiiii) for i._ZN4m3pi9PID_startEiiiii
    m3pi.o(.ARM.exidx) refers to m3pi.o(i._ZN4m3pi8PID_stopEv) for i._ZN4m3pi8PID_stopEv
    m3pi.o(.ARM.exidx) refers to m3pi.o(i._ZN4m3pi4ledsEi) for i._ZN4m3pi4ledsEi
    m3pi.o(.ARM.exidx) refers to m3pi.o(i._ZN4m3pi6locateEii) for i._ZN4m3pi6locateEii
    m3pi.o(.ARM.exidx) refers to m3pi.o(i._ZN4m3pi3clsEv) for i._ZN4m3pi3clsEv
    m3pi.o(.ARM.exidx) refers to m3pi.o(i._ZN4m3pi4putcEi) for i._ZN4m3pi4putcEi
    m3pi.o(.ARM.exidx) refers to m3pi.o(i._ZN4m3pi4getcEv) for i._ZN4m3pi4getcEv
    m3pi.o(.ARM.exidx) refers to m3pi.o(i._ZN4m3pi5printEPci) for i._ZN4m3pi5printEPci
    m3pi.o(.ARM.exidx) refers to m3pi.o(i._ZN4m3pi4playEPci) for i._ZN4m3pi4playEPci
    m3pi.o(.ARM.exidx) refers to m3pi.o(i._ZN4m3pi15get_rpc_methodsEv) for i._ZN4m3pi15get_rpc_methodsEv
    m3pi.o(.ARM.exidx) refers to m3pi.o(i._ZN4m3pi5_putcEi) for i._ZN4m3pi5_putcEi
    m3pi.o(.ARM.exidx) refers to m3pi.o(i._ZN4m3pi5_getcEv) for i._ZN4m3pi5_getcEv
    m3pi.o(.constdata) refers to m3pi.o(i._ZN4m3pi7forwardEf) for m3pi::forward(float)
    m3pi.o(.constdata) refers to m3pi.o(i._ZN4m3pi8backwardEf) for m3pi::backward(float)
    m3pi.o(.constdata) refers to m3pi.o(i._ZN4m3pi4leftEf) for m3pi::left(float)
    m3pi.o(.constdata) refers to m3pi.o(i._ZN4m3pi5rightEf) for m3pi::right(float)
    m3pi.o(.constdata) refers to m3pi.o(i._ZN4m3pi4stopEv) for m3pi::stop()
    m3pi.o(.constdata) refers to m3pi.o(i._ZN4m3pi10left_motorEf) for m3pi::left_motor(float)
    m3pi.o(.constdata) refers to m3pi.o(i._ZN4m3pi11right_motorEf) for m3pi::right_motor(float)
    m3pi.o(.constdata) refers to m3pi.o(i._ZN4m3pi7batteryEv) for m3pi::battery()
    m3pi.o(.constdata) refers to m3pi.o(i._ZN4m3pi13line_positionEv) for m3pi::line_position()
    m3pi.o(.constdata) refers to m3pi.o(i._ZN4m3pi21sensor_auto_calibrateEv) for m3pi::sensor_auto_calibrate()
    m3pi.o(.constdata) refers to m3pi.o(.conststring) for .conststring
    m3pi.o(.constdata) refers to m3pi.o(t._ZN4mbed17rpc_method_callerI4m3pifXadL_ZNS1_7forwardEfEEEEvPNS_4BaseEPKcPc) for mbed::rpc_method_caller<m3pi, float, (&m3pi::forward)>(mbed::Base*, const char*, char*)
    m3pi.o(.constdata) refers to m3pi.o(t._ZN4mbed17rpc_method_callerI4m3pifXadL_ZNS1_8backwardEfEEEEvPNS_4BaseEPKcPc) for mbed::rpc_method_caller<m3pi, float, (&m3pi::backward)>(mbed::Base*, const char*, char*)
    m3pi.o(.constdata) refers to m3pi.o(t._ZN4mbed17rpc_method_callerI4m3pifXadL_ZNS1_4leftEfEEEEvPNS_4BaseEPKcPc) for mbed::rpc_method_caller<m3pi, float, (&m3pi::left)>(mbed::Base*, const char*, char*)
    m3pi.o(.constdata) refers to m3pi.o(t._ZN4mbed17rpc_method_callerI4m3pifXadL_ZNS1_5rightEfEEEEvPNS_4BaseEPKcPc) for mbed::rpc_method_caller<m3pi, float, (&m3pi::right)>(mbed::Base*, const char*, char*)
    m3pi.o(.constdata) refers to m3pi.o(t._ZN4mbed17rpc_method_callerI4m3piXadL_ZNS1_4stopEvEEEEvPNS_4BaseEPKcPc) for mbed::rpc_method_caller<m3pi, (&m3pi::stop)>(mbed::Base*, const char*, char*)
    m3pi.o(.constdata) refers to m3pi.o(t._ZN4mbed17rpc_method_callerI4m3pifXadL_ZNS1_10left_motorEfEEEEvPNS_4BaseEPKcPc) for mbed::rpc_method_caller<m3pi, float, (&m3pi::left_motor)>(mbed::Base*, const char*, char*)
    m3pi.o(.constdata) refers to m3pi.o(t._ZN4mbed17rpc_method_callerI4m3pifXadL_ZNS1_11right_motorEfEEEEvPNS_4BaseEPKcPc) for mbed::rpc_method_caller<m3pi, float, (&m3pi::right_motor)>(mbed::Base*, const char*, char*)
    m3pi.o(.constdata) refers to m3pi.o(t._ZN4mbed17rpc_method_callerIf4m3piXadL_ZNS1_7batteryEvEEEEvPNS_4BaseEPKcPc) for mbed::rpc_method_caller<float, m3pi, (&m3pi::battery)>(mbed::Base*, const char*, char*)
    m3pi.o(.constdata) refers to m3pi.o(t._ZN4mbed17rpc_method_callerIf4m3piXadL_ZNS1_13line_positionEvEEEEvPNS_4BaseEPKcPc) for mbed::rpc_method_caller<float, m3pi, (&m3pi::line_position)>(mbed::Base*, const char*, char*)
    m3pi.o(.constdata) refers to m3pi.o(t._ZN4mbed17rpc_method_callerIc4m3piXadL_ZNS1_21sensor_auto_calibrateEvEEEEvPNS_4BaseEPKcPc) for mbed::rpc_method_caller<char, m3pi, (&m3pi::sensor_auto_calibrate)>(mbed::Base*, const char*, char*)
    m3pi.o(.constdata) refers to PwmOut.cpp.lpc1768.arm.o(t._ZN4mbed9rpc_superINS_4BaseEEEPKNS_10rpc_methodEPS1_) for mbed::rpc_super<mbed::Base>(mbed::Base*)
    startup_LPC17xx.o(RESET) refers to startup_LPC17xx.o(.text) for Reset_Handler
    startup_LPC17xx.o(RESET) refers to my_asm.o(.text) for PendSV_Handler
    startup_LPC17xx.o(RESET) refers to nrk_timer.o(i.TIMER0_IRQHandler) for TIMER0_IRQHandler
    startup_LPC17xx.o(RESET) refers to nrk_timer.o(i.TIMER1_IRQHandler) for TIMER1_IRQHandler
    startup_LPC17xx.o(RESET) refers to basic_rf.o(i.EINT3_IRQHandler) for EINT3_IRQHandler
    startup_LPC17xx.o(.text) refers to system_LPC17xx.o(i.SystemInit) for SystemInit
    startup_LPC17xx.o(.text) refers to __main.o(!!!main) for __main
    system_LPC17xx.o(i.SystemCoreClockUpdate) refers to system_LPC17xx.o(.data) for .data
    cmsis_nvic.o(i.NVIC_SetVector) refers to cmsis_nvic.o(.ARM.__AT_0x10000000) for .ARM.__AT_0x10000000
    wait_api.c.lpc1768.arm.o(i.wait) refers to f2d.o(x$fpl$f2d) for __aeabi_f2d
    wait_api.c.lpc1768.arm.o(i.wait) refers to dmul.o(x$fpl$dmul) for __aeabi_dmul
    wait_api.c.lpc1768.arm.o(i.wait) refers to dfix.o(x$fpl$dfix) for __aeabi_d2iz
    wait_api.c.lpc1768.arm.o(i.wait) refers to us_ticker_api.c.lpc1768.arm.o(i.us_ticker_read) for us_ticker_read
    wait_api.c.lpc1768.arm.o(i.wait_ms) refers to us_ticker_api.c.lpc1768.arm.o(i.us_ticker_read) for us_ticker_read
    wait_api.c.lpc1768.arm.o(i.wait_us) refers to us_ticker_api.c.lpc1768.arm.o(i.us_ticker_read) for us_ticker_read
    PwmOut.cpp.lpc1768.arm.o(i._ZN4mbed6PwmOut10pulsewidthEf) refers to pwmout_api.c.lpc1768.arm.o(i.pwmout_pulsewidth) for pwmout_pulsewidth
    PwmOut.cpp.lpc1768.arm.o(i._ZN4mbed6PwmOut13get_rpc_classEv) refers to PwmOut.cpp.lpc1768.arm.o(.data) for .data
    PwmOut.cpp.lpc1768.arm.o(i._ZN4mbed6PwmOut13pulsewidth_msEi) refers to pwmout_api.c.lpc1768.arm.o(i.pwmout_pulsewidth_ms) for pwmout_pulsewidth_ms
    PwmOut.cpp.lpc1768.arm.o(i._ZN4mbed6PwmOut13pulsewidth_usEi) refers to pwmout_api.c.lpc1768.arm.o(i.pwmout_pulsewidth_us) for pwmout_pulsewidth_us
    PwmOut.cpp.lpc1768.arm.o(i._ZN4mbed6PwmOut15get_rpc_methodsEv) refers to PwmOut.cpp.lpc1768.arm.o(.constdata) for .constdata
    PwmOut.cpp.lpc1768.arm.o(i._ZN4mbed6PwmOut4readEv) refers to pwmout_api.c.lpc1768.arm.o(i.pwmout_read) for pwmout_read
    PwmOut.cpp.lpc1768.arm.o(i._ZN4mbed6PwmOut5writeEf) refers to pwmout_api.c.lpc1768.arm.o(i.pwmout_write) for pwmout_write
    PwmOut.cpp.lpc1768.arm.o(i._ZN4mbed6PwmOut6periodEf) refers to pwmout_api.c.lpc1768.arm.o(i.pwmout_period) for pwmout_period
    PwmOut.cpp.lpc1768.arm.o(i._ZN4mbed6PwmOut9period_msEi) refers to pwmout_api.c.lpc1768.arm.o(i.pwmout_period_ms) for pwmout_period_ms
    PwmOut.cpp.lpc1768.arm.o(i._ZN4mbed6PwmOut9period_usEi) refers to pwmout_api.c.lpc1768.arm.o(i.pwmout_period_us) for pwmout_period_us
    PwmOut.cpp.lpc1768.arm.o(i._ZN4mbed6PwmOutC1E7PinNamePKc) refers to Base.cpp.lpc1768.arm.o(i._ZN4mbed4BaseC1EPKc) for mbed::Base::Base(const char*)
    PwmOut.cpp.lpc1768.arm.o(i._ZN4mbed6PwmOutC1E7PinNamePKc) refers to pwmout_api.c.lpc1768.arm.o(i.pwmout_init) for pwmout_init
    PwmOut.cpp.lpc1768.arm.o(i._ZN4mbed6PwmOutC1E7PinNamePKc) refers to PwmOut.cpp.lpc1768.arm.o(.constdata__ZTVN4mbed6PwmOutE) for vtable for mbed::PwmOut
    PwmOut.cpp.lpc1768.arm.o(i._ZN4mbed6PwmOutaSERS0_) refers to pwmout_api.c.lpc1768.arm.o(i.pwmout_read) for pwmout_read
    PwmOut.cpp.lpc1768.arm.o(i._ZN4mbed6PwmOutaSERS0_) refers to pwmout_api.c.lpc1768.arm.o(i.pwmout_write) for pwmout_write
    PwmOut.cpp.lpc1768.arm.o(i._ZN4mbed6PwmOutaSEf) refers to pwmout_api.c.lpc1768.arm.o(i.pwmout_write) for pwmout_write
    PwmOut.cpp.lpc1768.arm.o(i._ZN4mbed6PwmOutcvfEv) refers to pwmout_api.c.lpc1768.arm.o(i.pwmout_read) for pwmout_read
    PwmOut.cpp.lpc1768.arm.o(.ARM.exidx) refers to PwmOut.cpp.lpc1768.arm.o(i._ZN4mbed6PwmOutC1E7PinNamePKc) for i._ZN4mbed6PwmOutC1E7PinNamePKc
    PwmOut.cpp.lpc1768.arm.o(.ARM.exidx) refers to PwmOut.cpp.lpc1768.arm.o(i._ZN4mbed6PwmOut5writeEf) for i._ZN4mbed6PwmOut5writeEf
    PwmOut.cpp.lpc1768.arm.o(.ARM.exidx) refers to PwmOut.cpp.lpc1768.arm.o(i._ZN4mbed6PwmOut4readEv) for i._ZN4mbed6PwmOut4readEv
    PwmOut.cpp.lpc1768.arm.o(.ARM.exidx) refers to PwmOut.cpp.lpc1768.arm.o(i._ZN4mbed6PwmOut6periodEf) for i._ZN4mbed6PwmOut6periodEf
    PwmOut.cpp.lpc1768.arm.o(.ARM.exidx) refers to PwmOut.cpp.lpc1768.arm.o(i._ZN4mbed6PwmOut9period_msEi) for i._ZN4mbed6PwmOut9period_msEi
    PwmOut.cpp.lpc1768.arm.o(.ARM.exidx) refers to PwmOut.cpp.lpc1768.arm.o(i._ZN4mbed6PwmOut9period_usEi) for i._ZN4mbed6PwmOut9period_usEi
    PwmOut.cpp.lpc1768.arm.o(.ARM.exidx) refers to PwmOut.cpp.lpc1768.arm.o(i._ZN4mbed6PwmOut10pulsewidthEf) for i._ZN4mbed6PwmOut10pulsewidthEf
    PwmOut.cpp.lpc1768.arm.o(.ARM.exidx) refers to PwmOut.cpp.lpc1768.arm.o(i._ZN4mbed6PwmOut13pulsewidth_msEi) for i._ZN4mbed6PwmOut13pulsewidth_msEi
    PwmOut.cpp.lpc1768.arm.o(.ARM.exidx) refers to PwmOut.cpp.lpc1768.arm.o(i._ZN4mbed6PwmOut13pulsewidth_usEi) for i._ZN4mbed6PwmOut13pulsewidth_usEi
    PwmOut.cpp.lpc1768.arm.o(.ARM.exidx) refers to PwmOut.cpp.lpc1768.arm.o(i._ZN4mbed6PwmOutaSEf) for i._ZN4mbed6PwmOutaSEf
    PwmOut.cpp.lpc1768.arm.o(.ARM.exidx) refers to PwmOut.cpp.lpc1768.arm.o(i._ZN4mbed6PwmOutaSERS0_) for i._ZN4mbed6PwmOutaSERS0_
    PwmOut.cpp.lpc1768.arm.o(.ARM.exidx) refers to PwmOut.cpp.lpc1768.arm.o(i._ZN4mbed6PwmOutcvfEv) for i._ZN4mbed6PwmOutcvfEv
    PwmOut.cpp.lpc1768.arm.o(.ARM.exidx) refers to PwmOut.cpp.lpc1768.arm.o(i._ZN4mbed6PwmOut15get_rpc_methodsEv) for i._ZN4mbed6PwmOut15get_rpc_methodsEv
    PwmOut.cpp.lpc1768.arm.o(.ARM.exidx) refers to PwmOut.cpp.lpc1768.arm.o(i._ZN4mbed6PwmOut13get_rpc_classEv) for i._ZN4mbed6PwmOut13get_rpc_classEv
    PwmOut.cpp.lpc1768.arm.o(.constdata) refers to PwmOut.cpp.lpc1768.arm.o(i._ZN4mbed6PwmOut4readEv) for mbed::PwmOut::read()
    PwmOut.cpp.lpc1768.arm.o(.constdata) refers to PwmOut.cpp.lpc1768.arm.o(i._ZN4mbed6PwmOut5writeEf) for mbed::PwmOut::write(float)
    PwmOut.cpp.lpc1768.arm.o(.constdata) refers to PwmOut.cpp.lpc1768.arm.o(i._ZN4mbed6PwmOut6periodEf) for mbed::PwmOut::period(float)
    PwmOut.cpp.lpc1768.arm.o(.constdata) refers to PwmOut.cpp.lpc1768.arm.o(i._ZN4mbed6PwmOut9period_msEi) for mbed::PwmOut::period_ms(int)
    PwmOut.cpp.lpc1768.arm.o(.constdata) refers to PwmOut.cpp.lpc1768.arm.o(i._ZN4mbed6PwmOut10pulsewidthEf) for mbed::PwmOut::pulsewidth(float)
    PwmOut.cpp.lpc1768.arm.o(.constdata) refers to PwmOut.cpp.lpc1768.arm.o(i._ZN4mbed6PwmOut13pulsewidth_msEi) for mbed::PwmOut::pulsewidth_ms(int)
    PwmOut.cpp.lpc1768.arm.o(.constdata) refers to PwmOut.cpp.lpc1768.arm.o(.conststring) for .conststring
    PwmOut.cpp.lpc1768.arm.o(.constdata) refers to PwmOut.cpp.lpc1768.arm.o(t._ZN4mbed17rpc_method_callerIfNS_6PwmOutEXadL_ZNS1_4readEvEEEEvPNS_4BaseEPKcPc) for mbed::rpc_method_caller<float, mbed::PwmOut, (&mbed::PwmOut::read)>(mbed::Base*, const char*, char*)
    PwmOut.cpp.lpc1768.arm.o(.constdata) refers to PwmOut.cpp.lpc1768.arm.o(t._ZN4mbed17rpc_method_callerINS_6PwmOutEfXadL_ZNS1_5writeEfEEEEvPNS_4BaseEPKcPc) for mbed::rpc_method_caller<mbed::PwmOut, float, (&mbed::PwmOut::write)>(mbed::Base*, const char*, char*)
    PwmOut.cpp.lpc1768.arm.o(.constdata) refers to PwmOut.cpp.lpc1768.arm.o(t._ZN4mbed17rpc_method_callerINS_6PwmOutEfXadL_ZNS1_6periodEfEEEEvPNS_4BaseEPKcPc) for mbed::rpc_method_caller<mbed::PwmOut, float, (&mbed::PwmOut::period)>(mbed::Base*, const char*, char*)
    PwmOut.cpp.lpc1768.arm.o(.constdata) refers to PwmOut.cpp.lpc1768.arm.o(t._ZN4mbed17rpc_method_callerINS_6PwmOutEiXadL_ZNS1_9period_msEiEEEEvPNS_4BaseEPKcPc) for mbed::rpc_method_caller<mbed::PwmOut, int, (&mbed::PwmOut::period_ms)>(mbed::Base*, const char*, char*)
    PwmOut.cpp.lpc1768.arm.o(.constdata) refers to PwmOut.cpp.lpc1768.arm.o(t._ZN4mbed17rpc_method_callerINS_6PwmOutEfXadL_ZNS1_10pulsewidthEfEEEEvPNS_4BaseEPKcPc) for mbed::rpc_method_caller<mbed::PwmOut, float, (&mbed::PwmOut::pulsewidth)>(mbed::Base*, const char*, char*)
    PwmOut.cpp.lpc1768.arm.o(.constdata) refers to PwmOut.cpp.lpc1768.arm.o(t._ZN4mbed17rpc_method_callerINS_6PwmOutEiXadL_ZNS1_13pulsewidth_msEiEEEEvPNS_4BaseEPKcPc) for mbed::rpc_method_caller<mbed::PwmOut, int, (&mbed::PwmOut::pulsewidth_ms)>(mbed::Base*, const char*, char*)
    PwmOut.cpp.lpc1768.arm.o(.constdata) refers to PwmOut.cpp.lpc1768.arm.o(t._ZN4mbed9rpc_superINS_4BaseEEEPKNS_10rpc_methodEPS1_) for mbed::rpc_super<mbed::Base>(mbed::Base*)
    PwmOut.cpp.lpc1768.arm.o(.constdata) refers to PwmOut.cpp.lpc1768.arm.o(.conststring) for .conststring
    PwmOut.cpp.lpc1768.arm.o(.constdata) refers to PwmOut.cpp.lpc1768.arm.o(t._ZN4mbed19rpc_function_callerIPKc7PinNameS2_XadL_ZNS_4Base9constructINS_6PwmOutES3_S2_EES2_T0_T1_EEEEvS2_Pc) for mbed::rpc_function_caller<const char*, PinName, const char*, (&mbed::Base::construct<mbed::PwmOut, PinName, const char*>)>(const char*, char*)
    PwmOut.cpp.lpc1768.arm.o(.data) refers to PwmOut.cpp.lpc1768.arm.o(.conststring) for .conststring
    PwmOut.cpp.lpc1768.arm.o(.data) refers to PwmOut.cpp.lpc1768.arm.o(.constdata) for funcs
    Base.cpp.lpc1768.arm.o(i._ZN4mbed4Base11delete_selfEv) refers to array_del.o(i._ZdaPv) for operator delete[] (void*)
    Base.cpp.lpc1768.arm.o(i._ZN4mbed4Base15get_rpc_methodsEv) refers to Base.cpp.lpc1768.arm.o(.constdata) for .constdata
    Base.cpp.lpc1768.arm.o(i._ZN4mbed4Base15register_objectEPKc) refers to Base.cpp.lpc1768.arm.o(.data) for .data
    Base.cpp.lpc1768.arm.o(i._ZN4mbed4Base3rpcEPKcS2_Pc) refers to sprintf.o(.text) for sprintf
    Base.cpp.lpc1768.arm.o(i._ZN4mbed4Base3rpcEPKcS2_Pc) refers to strcmpv7m.o(.text) for strcmp
    Base.cpp.lpc1768.arm.o(i._ZN4mbed4Base3rpcEPKcS2_S2_Pc) refers to sprintf.o(.text) for sprintf
    Base.cpp.lpc1768.arm.o(i._ZN4mbed4Base3rpcEPKcS2_S2_Pc) refers to strlen.o(.text) for strlen
    Base.cpp.lpc1768.arm.o(i._ZN4mbed4Base3rpcEPKcS2_S2_Pc) refers to strncmp.o(.text) for strncmp
    Base.cpp.lpc1768.arm.o(i._ZN4mbed4Base3rpcEPKcS2_S2_Pc) refers to strcmpv7m.o(.text) for strcmp
    Base.cpp.lpc1768.arm.o(i._ZN4mbed4Base3rpcEPKcS2_S2_Pc) refers to Base.cpp.lpc1768.arm.o(.data) for .data
    Base.cpp.lpc1768.arm.o(i._ZN4mbed4Base5clearEPKcPc) refers to array_del.o(i._ZdaPv) for operator delete[] (void*)
    Base.cpp.lpc1768.arm.o(i._ZN4mbed4Base5clearEPKcPc) refers to Base.cpp.lpc1768.arm.o(.data) for .data
    Base.cpp.lpc1768.arm.o(i._ZN4mbed4Base6lookupEPKcj) refers to strncmp.o(.text) for strncmp
    Base.cpp.lpc1768.arm.o(i._ZN4mbed4Base6lookupEPKcj) refers to strlen.o(.text) for strlen
    Base.cpp.lpc1768.arm.o(i._ZN4mbed4Base6lookupEPKcj) refers to Base.cpp.lpc1768.arm.o(.data) for .data
    Base.cpp.lpc1768.arm.o(i._ZN4mbed4Base7opendirEv) refers to new.o(i._Znwj) for operator new(unsigned)
    Base.cpp.lpc1768.arm.o(i._ZN4mbed4Base7opendirEv) refers to Base.cpp.lpc1768.arm.o(.constdata__ZTVN4mbed13BaseDirHandleE) for vtable for mbed::BaseDirHandle
    Base.cpp.lpc1768.arm.o(i._ZN4mbed4Base8new_nameEPS0_) refers to array_new.o(i._Znaj) for operator new[] (unsigned)
    Base.cpp.lpc1768.arm.o(i._ZN4mbed4Base8new_nameEPS0_) refers to sprintf.o(.text) for sprintf
    Base.cpp.lpc1768.arm.o(i._ZN4mbed4Base9list_objsEPKcPc) refers to sprintf.o(.text) for sprintf
    Base.cpp.lpc1768.arm.o(i._ZN4mbed4Base9list_objsEPKcPc) refers to Base.cpp.lpc1768.arm.o(.data) for .data
    Base.cpp.lpc1768.arm.o(i._ZN4mbed4BaseC1EPKc) refers to Base.cpp.lpc1768.arm.o(.constdata__ZTVN4mbed4BaseE) for vtable for mbed::Base
    Base.cpp.lpc1768.arm.o(i._ZN4mbed4BaseC1EPKc) refers to Base.cpp.lpc1768.arm.o(.data) for .data
    Base.cpp.lpc1768.arm.o(i._ZN4mbed4BaseD0Ev) refers to delete.o(i._ZdlPv) for operator delete (void*)
    Base.cpp.lpc1768.arm.o(i._ZN4mbed4BaseD0Ev) refers to Base.cpp.lpc1768.arm.o(.constdata__ZTVN4mbed4BaseE) for vtable for mbed::Base
    Base.cpp.lpc1768.arm.o(i._ZN4mbed4BaseD0Ev) refers to Base.cpp.lpc1768.arm.o(.data) for .data
    Base.cpp.lpc1768.arm.o(i._ZN4mbed4BaseD1Ev) refers to Base.cpp.lpc1768.arm.o(.constdata__ZTVN4mbed4BaseE) for vtable for mbed::Base
    Base.cpp.lpc1768.arm.o(i._ZN4mbed4BaseD1Ev) refers to Base.cpp.lpc1768.arm.o(.data) for .data
    Base.cpp.lpc1768.arm.o(.ARM.exidx) refers to Base.cpp.lpc1768.arm.o(i._ZN4mbed4BaseC1EPKc) for i._ZN4mbed4BaseC1EPKc
    Base.cpp.lpc1768.arm.o(.ARM.exidx) refers to Base.cpp.lpc1768.arm.o(i._ZN4mbed4BaseD1Ev) for i._ZN4mbed4BaseD1Ev
    Base.cpp.lpc1768.arm.o(.ARM.exidx) refers to Base.cpp.lpc1768.arm.o(i._ZN4mbed4BaseD0Ev) for i._ZN4mbed4BaseD0Ev
    Base.cpp.lpc1768.arm.o(.ARM.exidx) refers to Base.cpp.lpc1768.arm.o(i._ZN4mbed4Base15register_objectEPKc) for i._ZN4mbed4Base15register_objectEPKc
    Base.cpp.lpc1768.arm.o(.ARM.exidx) refers to Base.cpp.lpc1768.arm.o(i._ZN4mbed4Base4nameEv) for i._ZN4mbed4Base4nameEv
    Base.cpp.lpc1768.arm.o(.ARM.exidx) refers to Base.cpp.lpc1768.arm.o(i._ZN4mbed4Base3rpcEPKcS2_Pc) for i._ZN4mbed4Base3rpcEPKcS2_Pc
    Base.cpp.lpc1768.arm.o(.ARM.exidx) refers to Base.cpp.lpc1768.arm.o(i._ZN4mbed4Base15get_rpc_methodsEv) for i._ZN4mbed4Base15get_rpc_methodsEv
    Base.cpp.lpc1768.arm.o(.ARM.exidx) refers to Base.cpp.lpc1768.arm.o(i._ZN4mbed4Base6lookupEPKcj) for i._ZN4mbed4Base6lookupEPKcj
    Base.cpp.lpc1768.arm.o(.ARM.exidx) refers to Base.cpp.lpc1768.arm.o(i._ZN4mbed4Base3rpcEPKcS2_S2_Pc) for i._ZN4mbed4Base3rpcEPKcS2_S2_Pc
    Base.cpp.lpc1768.arm.o(.ARM.exidx) refers to Base.cpp.lpc1768.arm.o(i._ZN4mbed4Base7opendirEv) for i._ZN4mbed4Base7opendirEv
    Base.cpp.lpc1768.arm.o(.ARM.exidx) refers to Base.cpp.lpc1768.arm.o(i._ZN4mbed4Base11delete_selfEv) for i._ZN4mbed4Base11delete_selfEv
    Base.cpp.lpc1768.arm.o(.ARM.exidx) refers to Base.cpp.lpc1768.arm.o(i._ZN4mbed4Base9list_objsEPKcPc) for i._ZN4mbed4Base9list_objsEPKcPc
    Base.cpp.lpc1768.arm.o(.ARM.exidx) refers to Base.cpp.lpc1768.arm.o(i._ZN4mbed4Base5clearEPKcPc) for i._ZN4mbed4Base5clearEPKcPc
    Base.cpp.lpc1768.arm.o(.ARM.exidx) refers to Base.cpp.lpc1768.arm.o(i._ZN4mbed4Base8new_nameEPS0_) for i._ZN4mbed4Base8new_nameEPS0_
    Base.cpp.lpc1768.arm.o(.constdata) refers to Base.cpp.lpc1768.arm.o(i._ZN4mbed4Base11delete_selfEv) for mbed::Base::delete_self()
    Base.cpp.lpc1768.arm.o(.constdata) refers to Base.cpp.lpc1768.arm.o(.conststring) for .conststring
    Base.cpp.lpc1768.arm.o(.constdata) refers to Base.cpp.lpc1768.arm.o(t._ZN4mbed17rpc_method_callerINS_4BaseEXadL_ZNS1_11delete_selfEvEEEEvPS1_PKcPc) for mbed::rpc_method_caller<mbed::Base, (&mbed::Base::delete_self)>(mbed::Base*, const char*, char*)
    Base.cpp.lpc1768.arm.o(.constdata) refers to Base.cpp.lpc1768.arm.o(.conststring) for .conststring
    Base.cpp.lpc1768.arm.o(.constdata) refers to Base.cpp.lpc1768.arm.o(i._ZN4mbed4Base5clearEPKcPc) for mbed::Base::clear(const char*, char*)
    Base.cpp.lpc1768.arm.o(.constdata) refers to Base.cpp.lpc1768.arm.o(i._ZN4mbed4Base9list_objsEPKcPc) for mbed::Base::list_objs(const char*, char*)
    Base.cpp.lpc1768.arm.o(.data) refers to Base.cpp.lpc1768.arm.o(.data) for mbed::Base::_base_class
    Base.cpp.lpc1768.arm.o(.data) refers to Base.cpp.lpc1768.arm.o(.conststring) for .conststring
    Base.cpp.lpc1768.arm.o(.data) refers to Base.cpp.lpc1768.arm.o(.constdata) for mbed::Base::_base_funcs
    BusOut.cpp.lpc1768.arm.o(i._ZN4mbed6BusOut13get_rpc_classEv) refers to BusOut.cpp.lpc1768.arm.o(.data) for .data
    BusOut.cpp.lpc1768.arm.o(i._ZN4mbed6BusOut15get_rpc_methodsEv) refers to BusOut.cpp.lpc1768.arm.o(.constdata) for .constdata
    BusOut.cpp.lpc1768.arm.o(i._ZN4mbed6BusOut4readEv) refers to DigitalOut.cpp.lpc1768.arm.o(i._ZN4mbed10DigitalOut4readEv) for mbed::DigitalOut::read()
    BusOut.cpp.lpc1768.arm.o(i._ZN4mbed6BusOut5writeEi) refers to DigitalOut.cpp.lpc1768.arm.o(i._ZN4mbed10DigitalOut5writeEi) for mbed::DigitalOut::write(int)
    BusOut.cpp.lpc1768.arm.o(i._ZN4mbed6BusOut9constructEPKcPc) refers to rt_memcpy_w.o(.text) for __aeabi_memcpy4
    BusOut.cpp.lpc1768.arm.o(i._ZN4mbed6BusOut9constructEPKcPc) refers to array_new.o(i._Znaj) for operator new[] (unsigned)
    BusOut.cpp.lpc1768.arm.o(i._ZN4mbed6BusOut9constructEPKcPc) refers to strtol.o(.text) for strtol
    BusOut.cpp.lpc1768.arm.o(i._ZN4mbed6BusOut9constructEPKcPc) refers to rt_memcpy_v6.o(.text) for __aeabi_memcpy
    BusOut.cpp.lpc1768.arm.o(i._ZN4mbed6BusOut9constructEPKcPc) refers to new.o(i._Znwj) for operator new(unsigned)
    BusOut.cpp.lpc1768.arm.o(i._ZN4mbed6BusOut9constructEPKcPc) refers to Base.cpp.lpc1768.arm.o(i._ZN4mbed4BaseC1EPKc) for mbed::Base::Base(const char*)
    BusOut.cpp.lpc1768.arm.o(i._ZN4mbed6BusOut9constructEPKcPc) refers to DigitalOut.cpp.lpc1768.arm.o(i._ZN4mbed10DigitalOutC1E7PinNamePKc) for mbed::DigitalOut::DigitalOut(PinName, const char*)
    BusOut.cpp.lpc1768.arm.o(i._ZN4mbed6BusOut9constructEPKcPc) refers to Base.cpp.lpc1768.arm.o(i._ZN4mbed4Base8new_nameEPS0_) for mbed::Base::new_name(mbed::Base*)
    BusOut.cpp.lpc1768.arm.o(i._ZN4mbed6BusOut9constructEPKcPc) refers to Base.cpp.lpc1768.arm.o(i._ZN4mbed4Base15register_objectEPKc) for mbed::Base::register_object(const char*)
    BusOut.cpp.lpc1768.arm.o(i._ZN4mbed6BusOut9constructEPKcPc) refers to strcpy.o(.text) for strcpy
    BusOut.cpp.lpc1768.arm.o(i._ZN4mbed6BusOut9constructEPKcPc) refers to aeabi_ctype_def.o(.constdata) for __aeabi_ctype_table_
    BusOut.cpp.lpc1768.arm.o(i._ZN4mbed6BusOut9constructEPKcPc) refers to PwmOut.cpp.lpc1768.arm.o(.constdata___ARM__ZN4mbed10parse_pinsEPKc_anon0) for __ARM__ZN4mbed10parse_pinsEPKc_anon0
    BusOut.cpp.lpc1768.arm.o(i._ZN4mbed6BusOut9constructEPKcPc) refers to BusOut.cpp.lpc1768.arm.o(.constdata__ZTVN4mbed6BusOutE) for vtable for mbed::BusOut
    BusOut.cpp.lpc1768.arm.o(i._ZN4mbed6BusOutC1E7PinNameS1_S1_S1_S1_S1_S1_S1_S1_S1_S1_S1_S1_S1_S1_S1_PKc) refers to Base.cpp.lpc1768.arm.o(i._ZN4mbed4BaseC1EPKc) for mbed::Base::Base(const char*)
    BusOut.cpp.lpc1768.arm.o(i._ZN4mbed6BusOutC1E7PinNameS1_S1_S1_S1_S1_S1_S1_S1_S1_S1_S1_S1_S1_S1_S1_PKc) refers to new.o(i._Znwj) for operator new(unsigned)
    BusOut.cpp.lpc1768.arm.o(i._ZN4mbed6BusOutC1E7PinNameS1_S1_S1_S1_S1_S1_S1_S1_S1_S1_S1_S1_S1_S1_S1_PKc) refers to DigitalOut.cpp.lpc1768.arm.o(i._ZN4mbed10DigitalOutC1E7PinNamePKc) for mbed::DigitalOut::DigitalOut(PinName, const char*)
    BusOut.cpp.lpc1768.arm.o(i._ZN4mbed6BusOutC1E7PinNameS1_S1_S1_S1_S1_S1_S1_S1_S1_S1_S1_S1_S1_S1_S1_PKc) refers to BusOut.cpp.lpc1768.arm.o(.constdata__ZTVN4mbed6BusOutE) for vtable for mbed::BusOut
    BusOut.cpp.lpc1768.arm.o(i._ZN4mbed6BusOutC1EP7PinNamePKc) refers to Base.cpp.lpc1768.arm.o(i._ZN4mbed4BaseC1EPKc) for mbed::Base::Base(const char*)
    BusOut.cpp.lpc1768.arm.o(i._ZN4mbed6BusOutC1EP7PinNamePKc) refers to new.o(i._Znwj) for operator new(unsigned)
    BusOut.cpp.lpc1768.arm.o(i._ZN4mbed6BusOutC1EP7PinNamePKc) refers to DigitalOut.cpp.lpc1768.arm.o(i._ZN4mbed10DigitalOutC1E7PinNamePKc) for mbed::DigitalOut::DigitalOut(PinName, const char*)
    BusOut.cpp.lpc1768.arm.o(i._ZN4mbed6BusOutC1EP7PinNamePKc) refers to BusOut.cpp.lpc1768.arm.o(.constdata__ZTVN4mbed6BusOutE) for vtable for mbed::BusOut
    BusOut.cpp.lpc1768.arm.o(i._ZN4mbed6BusOutD0Ev) refers to Base.cpp.lpc1768.arm.o(i._ZN4mbed4BaseD1Ev) for mbed::Base::~Base()
    BusOut.cpp.lpc1768.arm.o(i._ZN4mbed6BusOutD0Ev) refers to delete.o(i._ZdlPv) for operator delete (void*)
    BusOut.cpp.lpc1768.arm.o(i._ZN4mbed6BusOutD0Ev) refers to BusOut.cpp.lpc1768.arm.o(.constdata__ZTVN4mbed6BusOutE) for vtable for mbed::BusOut
    BusOut.cpp.lpc1768.arm.o(i._ZN4mbed6BusOutD1Ev) refers to Base.cpp.lpc1768.arm.o(i._ZN4mbed4BaseD1Ev) for mbed::Base::~Base()
    BusOut.cpp.lpc1768.arm.o(i._ZN4mbed6BusOutD1Ev) refers to BusOut.cpp.lpc1768.arm.o(.constdata__ZTVN4mbed6BusOutE) for vtable for mbed::BusOut
    BusOut.cpp.lpc1768.arm.o(i._ZN4mbed6BusOutaSERS0_) refers to DigitalOut.cpp.lpc1768.arm.o(i._ZN4mbed10DigitalOut4readEv) for mbed::DigitalOut::read()
    BusOut.cpp.lpc1768.arm.o(i._ZN4mbed6BusOutaSERS0_) refers to DigitalOut.cpp.lpc1768.arm.o(i._ZN4mbed10DigitalOut5writeEi) for mbed::DigitalOut::write(int)
    BusOut.cpp.lpc1768.arm.o(i._ZN4mbed6BusOutaSEi) refers to DigitalOut.cpp.lpc1768.arm.o(i._ZN4mbed10DigitalOut5writeEi) for mbed::DigitalOut::write(int)
    BusOut.cpp.lpc1768.arm.o(i._ZN4mbed6BusOutcviEv) refers to DigitalOut.cpp.lpc1768.arm.o(i._ZN4mbed10DigitalOut4readEv) for mbed::DigitalOut::read()
    BusOut.cpp.lpc1768.arm.o(.ARM.exidx) refers to BusOut.cpp.lpc1768.arm.o(i._ZN4mbed6BusOutC1EP7PinNamePKc) for i._ZN4mbed6BusOutC1EP7PinNamePKc
    BusOut.cpp.lpc1768.arm.o(.ARM.exidx) refers to BusOut.cpp.lpc1768.arm.o(i._ZN4mbed6BusOutC1E7PinNameS1_S1_S1_S1_S1_S1_S1_S1_S1_S1_S1_S1_S1_S1_S1_PKc) for i._ZN4mbed6BusOutC1E7PinNameS1_S1_S1_S1_S1_S1_S1_S1_S1_S1_S1_S1_S1_S1_S1_PKc
    BusOut.cpp.lpc1768.arm.o(.ARM.exidx) refers to BusOut.cpp.lpc1768.arm.o(i._ZN4mbed6BusOutD1Ev) for i._ZN4mbed6BusOutD1Ev
    BusOut.cpp.lpc1768.arm.o(.ARM.exidx) refers to BusOut.cpp.lpc1768.arm.o(i._ZN4mbed6BusOutD0Ev) for i._ZN4mbed6BusOutD0Ev
    BusOut.cpp.lpc1768.arm.o(.ARM.exidx) refers to BusOut.cpp.lpc1768.arm.o(i._ZN4mbed6BusOut5writeEi) for i._ZN4mbed6BusOut5writeEi
    BusOut.cpp.lpc1768.arm.o(.ARM.exidx) refers to BusOut.cpp.lpc1768.arm.o(i._ZN4mbed6BusOut4readEv) for i._ZN4mbed6BusOut4readEv
    BusOut.cpp.lpc1768.arm.o(.ARM.exidx) refers to BusOut.cpp.lpc1768.arm.o(i._ZN4mbed6BusOutaSEi) for i._ZN4mbed6BusOutaSEi
    BusOut.cpp.lpc1768.arm.o(.ARM.exidx) refers to BusOut.cpp.lpc1768.arm.o(i._ZN4mbed6BusOutaSERS0_) for i._ZN4mbed6BusOutaSERS0_
    BusOut.cpp.lpc1768.arm.o(.ARM.exidx) refers to BusOut.cpp.lpc1768.arm.o(i._ZN4mbed6BusOutcviEv) for i._ZN4mbed6BusOutcviEv
    BusOut.cpp.lpc1768.arm.o(.ARM.exidx) refers to BusOut.cpp.lpc1768.arm.o(i._ZN4mbed6BusOut15get_rpc_methodsEv) for i._ZN4mbed6BusOut15get_rpc_methodsEv
    BusOut.cpp.lpc1768.arm.o(.ARM.exidx) refers to BusOut.cpp.lpc1768.arm.o(i._ZN4mbed6BusOut13get_rpc_classEv) for i._ZN4mbed6BusOut13get_rpc_classEv
    BusOut.cpp.lpc1768.arm.o(.ARM.exidx) refers to BusOut.cpp.lpc1768.arm.o(i._ZN4mbed6BusOut9constructEPKcPc) for i._ZN4mbed6BusOut9constructEPKcPc
    BusOut.cpp.lpc1768.arm.o(.constdata) refers to BusOut.cpp.lpc1768.arm.o(i._ZN4mbed6BusOut5writeEi) for mbed::BusOut::write(int)
    BusOut.cpp.lpc1768.arm.o(.constdata) refers to BusOut.cpp.lpc1768.arm.o(i._ZN4mbed6BusOut4readEv) for mbed::BusOut::read()
    BusOut.cpp.lpc1768.arm.o(.constdata) refers to BusOut.cpp.lpc1768.arm.o(.conststring) for .conststring
    BusOut.cpp.lpc1768.arm.o(.constdata) refers to BusOut.cpp.lpc1768.arm.o(t._ZN4mbed17rpc_method_callerINS_6BusOutEiXadL_ZNS1_5writeEiEEEEvPNS_4BaseEPKcPc) for mbed::rpc_method_caller<mbed::BusOut, int, (&mbed::BusOut::write)>(mbed::Base*, const char*, char*)
    BusOut.cpp.lpc1768.arm.o(.constdata) refers to BusOut.cpp.lpc1768.arm.o(t._ZN4mbed17rpc_method_callerIiNS_6BusOutEXadL_ZNS1_4readEvEEEEvPNS_4BaseEPKcPc) for mbed::rpc_method_caller<int, mbed::BusOut, (&mbed::BusOut::read)>(mbed::Base*, const char*, char*)
    BusOut.cpp.lpc1768.arm.o(.constdata) refers to PwmOut.cpp.lpc1768.arm.o(t._ZN4mbed9rpc_superINS_4BaseEEEPKNS_10rpc_methodEPS1_) for mbed::rpc_super<mbed::Base>(mbed::Base*)
    BusOut.cpp.lpc1768.arm.o(.constdata) refers to BusOut.cpp.lpc1768.arm.o(.conststring) for .conststring
    BusOut.cpp.lpc1768.arm.o(.constdata) refers to BusOut.cpp.lpc1768.arm.o(i._ZN4mbed6BusOut9constructEPKcPc) for mbed::BusOut::construct(const char*, char*)
    BusOut.cpp.lpc1768.arm.o(.data) refers to BusOut.cpp.lpc1768.arm.o(.conststring) for .conststring
    BusOut.cpp.lpc1768.arm.o(.data) refers to BusOut.cpp.lpc1768.arm.o(.constdata) for funcs
    I2C.cpp.lpc1768.arm.o(i._ZN4mbed3I2C4readEiPci) refers to i2c_api.c.lpc1768.arm.o(i.i2c_frequency) for i2c_frequency
    I2C.cpp.lpc1768.arm.o(i._ZN4mbed3I2C4readEiPci) refers to i2c_api.c.lpc1768.arm.o(i.i2c_read) for i2c_read
    I2C.cpp.lpc1768.arm.o(i._ZN4mbed3I2C4readEiPci) refers to I2C.cpp.lpc1768.arm.o(.data) for .data
    I2C.cpp.lpc1768.arm.o(i._ZN4mbed3I2C5writeEiPKci) refers to i2c_api.c.lpc1768.arm.o(i.i2c_frequency) for i2c_frequency
    I2C.cpp.lpc1768.arm.o(i._ZN4mbed3I2C5writeEiPKci) refers to i2c_api.c.lpc1768.arm.o(i.i2c_write) for i2c_write
    I2C.cpp.lpc1768.arm.o(i._ZN4mbed3I2C5writeEiPKci) refers to I2C.cpp.lpc1768.arm.o(.data) for .data
    I2C.cpp.lpc1768.arm.o(i._ZN4mbed3I2C6aquireEv) refers to i2c_api.c.lpc1768.arm.o(i.i2c_frequency) for i2c_frequency
    I2C.cpp.lpc1768.arm.o(i._ZN4mbed3I2C6aquireEv) refers to I2C.cpp.lpc1768.arm.o(.data) for .data
    I2C.cpp.lpc1768.arm.o(i._ZN4mbed3I2C9frequencyEi) refers to i2c_api.c.lpc1768.arm.o(i.i2c_frequency) for i2c_frequency
    I2C.cpp.lpc1768.arm.o(i._ZN4mbed3I2C9frequencyEi) refers to I2C.cpp.lpc1768.arm.o(.data) for .data
    I2C.cpp.lpc1768.arm.o(i._ZN4mbed3I2CC1E7PinNameS1_PKc) refers to Base.cpp.lpc1768.arm.o(i._ZN4mbed4BaseC1EPKc) for mbed::Base::Base(const char*)
    I2C.cpp.lpc1768.arm.o(i._ZN4mbed3I2CC1E7PinNameS1_PKc) refers to i2c_api.c.lpc1768.arm.o(i.i2c_init) for i2c_init
    I2C.cpp.lpc1768.arm.o(i._ZN4mbed3I2CC1E7PinNameS1_PKc) refers to i2c_api.c.lpc1768.arm.o(i.i2c_frequency) for i2c_frequency
    I2C.cpp.lpc1768.arm.o(i._ZN4mbed3I2CC1E7PinNameS1_PKc) refers to I2C.cpp.lpc1768.arm.o(.constdata__ZTVN4mbed3I2CE) for vtable for mbed::I2C
    I2C.cpp.lpc1768.arm.o(.ARM.exidx) refers to I2C.cpp.lpc1768.arm.o(i._ZN4mbed3I2CC1E7PinNameS1_PKc) for i._ZN4mbed3I2CC1E7PinNameS1_PKc
    I2C.cpp.lpc1768.arm.o(.ARM.exidx) refers to I2C.cpp.lpc1768.arm.o(i._ZN4mbed3I2C6aquireEv) for i._ZN4mbed3I2C6aquireEv
    I2C.cpp.lpc1768.arm.o(.ARM.exidx) refers to I2C.cpp.lpc1768.arm.o(i._ZN4mbed3I2C9frequencyEi) for i._ZN4mbed3I2C9frequencyEi
    I2C.cpp.lpc1768.arm.o(.ARM.exidx) refers to I2C.cpp.lpc1768.arm.o(i._ZN4mbed3I2C4readEiPci) for i._ZN4mbed3I2C4readEiPci
    I2C.cpp.lpc1768.arm.o(.ARM.exidx) refers to I2C.cpp.lpc1768.arm.o(i._ZN4mbed3I2C5writeEiPKci) for i._ZN4mbed3I2C5writeEiPKci
    DigitalOut.cpp.lpc1768.arm.o(i._ZN4mbed10DigitalOut13get_rpc_classEv) refers to DigitalOut.cpp.lpc1768.arm.o(.data) for .data
    DigitalOut.cpp.lpc1768.arm.o(i._ZN4mbed10DigitalOut15get_rpc_methodsEv) refers to DigitalOut.cpp.lpc1768.arm.o(.constdata) for .constdata
    DigitalOut.cpp.lpc1768.arm.o(i._ZN4mbed10DigitalOut4readEv) refers to gpio_api.c.lpc1768.arm.o(i.gpio_read) for gpio_read
    DigitalOut.cpp.lpc1768.arm.o(i._ZN4mbed10DigitalOut5writeEi) refers to gpio_api.c.lpc1768.arm.o(i.gpio_write) for gpio_write
    DigitalOut.cpp.lpc1768.arm.o(i._ZN4mbed10DigitalOutC1E7PinNamePKc) refers to Base.cpp.lpc1768.arm.o(i._ZN4mbed4BaseC1EPKc) for mbed::Base::Base(const char*)
    DigitalOut.cpp.lpc1768.arm.o(i._ZN4mbed10DigitalOutC1E7PinNamePKc) refers to gpio_api.c.lpc1768.arm.o(i.gpio_output) for gpio_output
    DigitalOut.cpp.lpc1768.arm.o(i._ZN4mbed10DigitalOutC1E7PinNamePKc) refers to DigitalOut.cpp.lpc1768.arm.o(.constdata__ZTVN4mbed10DigitalOutE) for vtable for mbed::DigitalOut
    DigitalOut.cpp.lpc1768.arm.o(i._ZN4mbed10DigitalOutaSERS0_) refers to gpio_api.c.lpc1768.arm.o(i.gpio_read) for gpio_read
    DigitalOut.cpp.lpc1768.arm.o(i._ZN4mbed10DigitalOutaSERS0_) refers to gpio_api.c.lpc1768.arm.o(i.gpio_write) for gpio_write
    DigitalOut.cpp.lpc1768.arm.o(i._ZN4mbed10DigitalOutaSEi) refers to gpio_api.c.lpc1768.arm.o(i.gpio_write) for gpio_write
    DigitalOut.cpp.lpc1768.arm.o(i._ZN4mbed10DigitalOutcviEv) refers to gpio_api.c.lpc1768.arm.o(i.gpio_read) for gpio_read
    DigitalOut.cpp.lpc1768.arm.o(.ARM.exidx) refers to DigitalOut.cpp.lpc1768.arm.o(i._ZN4mbed10DigitalOutC1E7PinNamePKc) for i._ZN4mbed10DigitalOutC1E7PinNamePKc
    DigitalOut.cpp.lpc1768.arm.o(.ARM.exidx) refers to DigitalOut.cpp.lpc1768.arm.o(i._ZN4mbed10DigitalOut5writeEi) for i._ZN4mbed10DigitalOut5writeEi
    DigitalOut.cpp.lpc1768.arm.o(.ARM.exidx) refers to DigitalOut.cpp.lpc1768.arm.o(i._ZN4mbed10DigitalOut4readEv) for i._ZN4mbed10DigitalOut4readEv
    DigitalOut.cpp.lpc1768.arm.o(.ARM.exidx) refers to DigitalOut.cpp.lpc1768.arm.o(i._ZN4mbed10DigitalOutaSEi) for i._ZN4mbed10DigitalOutaSEi
    DigitalOut.cpp.lpc1768.arm.o(.ARM.exidx) refers to DigitalOut.cpp.lpc1768.arm.o(i._ZN4mbed10DigitalOutaSERS0_) for i._ZN4mbed10DigitalOutaSERS0_
    DigitalOut.cpp.lpc1768.arm.o(.ARM.exidx) refers to DigitalOut.cpp.lpc1768.arm.o(i._ZN4mbed10DigitalOutcviEv) for i._ZN4mbed10DigitalOutcviEv
    DigitalOut.cpp.lpc1768.arm.o(.ARM.exidx) refers to DigitalOut.cpp.lpc1768.arm.o(i._ZN4mbed10DigitalOut15get_rpc_methodsEv) for i._ZN4mbed10DigitalOut15get_rpc_methodsEv
    DigitalOut.cpp.lpc1768.arm.o(.ARM.exidx) refers to DigitalOut.cpp.lpc1768.arm.o(i._ZN4mbed10DigitalOut13get_rpc_classEv) for i._ZN4mbed10DigitalOut13get_rpc_classEv
    DigitalOut.cpp.lpc1768.arm.o(.constdata) refers to DigitalOut.cpp.lpc1768.arm.o(i._ZN4mbed10DigitalOut5writeEi) for mbed::DigitalOut::write(int)
    DigitalOut.cpp.lpc1768.arm.o(.constdata) refers to DigitalOut.cpp.lpc1768.arm.o(i._ZN4mbed10DigitalOut4readEv) for mbed::DigitalOut::read()
    DigitalOut.cpp.lpc1768.arm.o(.constdata) refers to DigitalOut.cpp.lpc1768.arm.o(.conststring) for .conststring
    DigitalOut.cpp.lpc1768.arm.o(.constdata) refers to DigitalOut.cpp.lpc1768.arm.o(t._ZN4mbed17rpc_method_callerINS_10DigitalOutEiXadL_ZNS1_5writeEiEEEEvPNS_4BaseEPKcPc) for mbed::rpc_method_caller<mbed::DigitalOut, int, (&mbed::DigitalOut::write)>(mbed::Base*, const char*, char*)
    DigitalOut.cpp.lpc1768.arm.o(.constdata) refers to DigitalOut.cpp.lpc1768.arm.o(t._ZN4mbed17rpc_method_callerIiNS_10DigitalOutEXadL_ZNS1_4readEvEEEEvPNS_4BaseEPKcPc) for mbed::rpc_method_caller<int, mbed::DigitalOut, (&mbed::DigitalOut::read)>(mbed::Base*, const char*, char*)
    DigitalOut.cpp.lpc1768.arm.o(.constdata) refers to PwmOut.cpp.lpc1768.arm.o(t._ZN4mbed9rpc_superINS_4BaseEEEPKNS_10rpc_methodEPS1_) for mbed::rpc_super<mbed::Base>(mbed::Base*)
    DigitalOut.cpp.lpc1768.arm.o(.constdata) refers to DigitalOut.cpp.lpc1768.arm.o(.conststring) for .conststring
    DigitalOut.cpp.lpc1768.arm.o(.constdata) refers to DigitalOut.cpp.lpc1768.arm.o(t._ZN4mbed19rpc_function_callerIPKc7PinNameS2_XadL_ZNS_4Base9constructINS_10DigitalOutES3_S2_EES2_T0_T1_EEEEvS2_Pc) for mbed::rpc_function_caller<const char*, PinName, const char*, (&mbed::Base::construct<mbed::DigitalOut, PinName, const char*>)>(const char*, char*)
    DigitalOut.cpp.lpc1768.arm.o(.data) refers to DigitalOut.cpp.lpc1768.arm.o(.conststring) for .conststring
    DigitalOut.cpp.lpc1768.arm.o(.data) refers to DigitalOut.cpp.lpc1768.arm.o(.constdata) for funcs
    Serial.cpp.lpc1768.arm.o(i._ZN4mbed6Serial13get_rpc_classEv) refers to Serial.cpp.lpc1768.arm.o(.data) for .data
    Serial.cpp.lpc1768.arm.o(i._ZN4mbed6Serial15get_rpc_methodsEv) refers to Serial.cpp.lpc1768.arm.o(.constdata) for .constdata
    Serial.cpp.lpc1768.arm.o(i._ZN4mbed6Serial15setup_interruptEv) refers to cmsis_nvic.o(i.NVIC_SetVector) for NVIC_SetVector
    Serial.cpp.lpc1768.arm.o(i._ZN4mbed6Serial15setup_interruptEv) refers to Serial.cpp.lpc1768.arm.o(.bss) for .bss
    Serial.cpp.lpc1768.arm.o(i._ZN4mbed6Serial15setup_interruptEv) refers to Serial.cpp.lpc1768.arm.o(i._ZN4mbed9uart3_irqEv) for mbed::uart3_irq()
    Serial.cpp.lpc1768.arm.o(i._ZN4mbed6Serial15setup_interruptEv) refers to Serial.cpp.lpc1768.arm.o(i._ZN4mbed9uart0_irqEv) for mbed::uart0_irq()
    Serial.cpp.lpc1768.arm.o(i._ZN4mbed6Serial15setup_interruptEv) refers to Serial.cpp.lpc1768.arm.o(i._ZN4mbed9uart1_irqEv) for mbed::uart1_irq()
    Serial.cpp.lpc1768.arm.o(i._ZN4mbed6Serial15setup_interruptEv) refers to Serial.cpp.lpc1768.arm.o(i._ZN4mbed9uart2_irqEv) for mbed::uart2_irq()
    Serial.cpp.lpc1768.arm.o(i._ZN4mbed6Serial4baudEi) refers to serial_api.c.lpc1768.arm.o(i.serial_baud) for serial_baud
    Serial.cpp.lpc1768.arm.o(i._ZN4mbed6Serial5_getcEv) refers to serial_api.c.lpc1768.arm.o(i.serial_getc) for serial_getc
    Serial.cpp.lpc1768.arm.o(i._ZN4mbed6Serial5_putcEi) refers to serial_api.c.lpc1768.arm.o(i.serial_putc) for serial_putc
    Serial.cpp.lpc1768.arm.o(i._ZN4mbed6Serial6attachEPFvvE) refers to Serial.cpp.lpc1768.arm.o(i._ZN4mbed6Serial16remove_interruptEv) for mbed::Serial::remove_interrupt()
    Serial.cpp.lpc1768.arm.o(i._ZN4mbed6Serial6attachEPFvvE) refers to FunctionPointer.cpp.lpc1768.arm.o(i._ZN4mbed15FunctionPointer6attachEPFvvE) for mbed::FunctionPointer::attach(void(*)())
    Serial.cpp.lpc1768.arm.o(i._ZN4mbed6Serial6attachEPFvvE) refers to Serial.cpp.lpc1768.arm.o(i._ZN4mbed6Serial15setup_interruptEv) for mbed::Serial::setup_interrupt()
    Serial.cpp.lpc1768.arm.o(i._ZN4mbed6Serial6formatEiNS0_6ParityEi) refers to serial_api.c.lpc1768.arm.o(i.serial_format) for serial_format
    Serial.cpp.lpc1768.arm.o(i._ZN4mbed6Serial8readableEv) refers to serial_api.c.lpc1768.arm.o(i.serial_readable) for serial_readable
    Serial.cpp.lpc1768.arm.o(i._ZN4mbed6Serial9writeableEv) refers to serial_api.c.lpc1768.arm.o(i.serial_writable) for serial_writable
    Serial.cpp.lpc1768.arm.o(i._ZN4mbed6SerialC1E7PinNameS1_PKc) refers to Stream.cpp.lpc1768.arm.o(i._ZN4mbed6StreamC2EPKc) for mbed::Stream::Stream__sub_object(const char*)
    Serial.cpp.lpc1768.arm.o(i._ZN4mbed6SerialC1E7PinNameS1_PKc) refers to FunctionPointer.cpp.lpc1768.arm.o(i._ZN4mbed15FunctionPointerC1EPFvvE) for mbed::FunctionPointer::FunctionPointer(void(*)())
    Serial.cpp.lpc1768.arm.o(i._ZN4mbed6SerialC1E7PinNameS1_PKc) refers to serial_api.c.lpc1768.arm.o(i.serial_init) for serial_init
    Serial.cpp.lpc1768.arm.o(i._ZN4mbed6SerialC1E7PinNameS1_PKc) refers to Serial.cpp.lpc1768.arm.o(.constdata__ZTVN4mbed6SerialE) for vtable for mbed::Serial
    Serial.cpp.lpc1768.arm.o(i._ZN4mbed9uart0_irqEv) refers to FunctionPointer.cpp.lpc1768.arm.o(i._ZN4mbed15FunctionPointer4callEv) for mbed::FunctionPointer::call()
    Serial.cpp.lpc1768.arm.o(i._ZN4mbed9uart0_irqEv) refers to Serial.cpp.lpc1768.arm.o(.bss) for .bss
    Serial.cpp.lpc1768.arm.o(i._ZN4mbed9uart1_irqEv) refers to FunctionPointer.cpp.lpc1768.arm.o(i._ZN4mbed15FunctionPointer4callEv) for mbed::FunctionPointer::call()
    Serial.cpp.lpc1768.arm.o(i._ZN4mbed9uart1_irqEv) refers to Serial.cpp.lpc1768.arm.o(.bss) for .bss
    Serial.cpp.lpc1768.arm.o(i._ZN4mbed9uart2_irqEv) refers to FunctionPointer.cpp.lpc1768.arm.o(i._ZN4mbed15FunctionPointer4callEv) for mbed::FunctionPointer::call()
    Serial.cpp.lpc1768.arm.o(i._ZN4mbed9uart2_irqEv) refers to Serial.cpp.lpc1768.arm.o(.bss) for .bss
    Serial.cpp.lpc1768.arm.o(i._ZN4mbed9uart3_irqEv) refers to FunctionPointer.cpp.lpc1768.arm.o(i._ZN4mbed15FunctionPointer4callEv) for mbed::FunctionPointer::call()
    Serial.cpp.lpc1768.arm.o(i._ZN4mbed9uart3_irqEv) refers to Serial.cpp.lpc1768.arm.o(.bss) for .bss
    Serial.cpp.lpc1768.arm.o(.ARM.exidx) refers to Serial.cpp.lpc1768.arm.o(i._ZN4mbed6SerialC1E7PinNameS1_PKc) for i._ZN4mbed6SerialC1E7PinNameS1_PKc
    Serial.cpp.lpc1768.arm.o(.ARM.exidx) refers to Serial.cpp.lpc1768.arm.o(i._ZN4mbed6Serial4baudEi) for i._ZN4mbed6Serial4baudEi
    Serial.cpp.lpc1768.arm.o(.ARM.exidx) refers to Serial.cpp.lpc1768.arm.o(i._ZN4mbed6Serial6formatEiNS0_6ParityEi) for i._ZN4mbed6Serial6formatEiNS0_6ParityEi
    Serial.cpp.lpc1768.arm.o(.ARM.exidx) refers to Serial.cpp.lpc1768.arm.o(i._ZN4mbed6Serial8readableEv) for i._ZN4mbed6Serial8readableEv
    Serial.cpp.lpc1768.arm.o(.ARM.exidx) refers to Serial.cpp.lpc1768.arm.o(i._ZN4mbed6Serial9writeableEv) for i._ZN4mbed6Serial9writeableEv
    Serial.cpp.lpc1768.arm.o(.ARM.exidx) refers to Serial.cpp.lpc1768.arm.o(i._ZN4mbed6Serial16remove_interruptEv) for i._ZN4mbed6Serial16remove_interruptEv
    Serial.cpp.lpc1768.arm.o(.ARM.exidx) refers to Serial.cpp.lpc1768.arm.o(i._ZN4mbed9uart3_irqEv) for i._ZN4mbed9uart3_irqEv
    Serial.cpp.lpc1768.arm.o(.ARM.exidx) refers to Serial.cpp.lpc1768.arm.o(i._ZN4mbed9uart2_irqEv) for i._ZN4mbed9uart2_irqEv
    Serial.cpp.lpc1768.arm.o(.ARM.exidx) refers to Serial.cpp.lpc1768.arm.o(i._ZN4mbed9uart1_irqEv) for i._ZN4mbed9uart1_irqEv
    Serial.cpp.lpc1768.arm.o(.ARM.exidx) refers to Serial.cpp.lpc1768.arm.o(i._ZN4mbed9uart0_irqEv) for i._ZN4mbed9uart0_irqEv
    Serial.cpp.lpc1768.arm.o(.ARM.exidx) refers to Serial.cpp.lpc1768.arm.o(i._ZN4mbed6Serial15setup_interruptEv) for i._ZN4mbed6Serial15setup_interruptEv
    Serial.cpp.lpc1768.arm.o(.ARM.exidx) refers to Serial.cpp.lpc1768.arm.o(i._ZN4mbed6Serial6attachEPFvvE) for i._ZN4mbed6Serial6attachEPFvvE
    Serial.cpp.lpc1768.arm.o(.ARM.exidx) refers to Serial.cpp.lpc1768.arm.o(i._ZN4mbed6Serial15get_rpc_methodsEv) for i._ZN4mbed6Serial15get_rpc_methodsEv
    Serial.cpp.lpc1768.arm.o(.ARM.exidx) refers to Serial.cpp.lpc1768.arm.o(i._ZN4mbed6Serial13get_rpc_classEv) for i._ZN4mbed6Serial13get_rpc_classEv
    Serial.cpp.lpc1768.arm.o(.ARM.exidx) refers to Serial.cpp.lpc1768.arm.o(i._ZN4mbed6Serial5_getcEv) for i._ZN4mbed6Serial5_getcEv
    Serial.cpp.lpc1768.arm.o(.ARM.exidx) refers to Serial.cpp.lpc1768.arm.o(i._ZN4mbed6Serial5_putcEi) for i._ZN4mbed6Serial5_putcEi
    Serial.cpp.lpc1768.arm.o(.constdata) refers to Serial.cpp.lpc1768.arm.o(i._ZN4mbed6Serial4baudEi) for mbed::Serial::baud(int)
    Serial.cpp.lpc1768.arm.o(.constdata) refers to Serial.cpp.lpc1768.arm.o(i._ZN4mbed6Serial8readableEv) for mbed::Serial::readable()
    Serial.cpp.lpc1768.arm.o(.constdata) refers to Serial.cpp.lpc1768.arm.o(i._ZN4mbed6Serial9writeableEv) for mbed::Serial::writeable()
    Serial.cpp.lpc1768.arm.o(.constdata) refers to Serial.cpp.lpc1768.arm.o(.conststring) for .conststring
    Serial.cpp.lpc1768.arm.o(.constdata) refers to Serial.cpp.lpc1768.arm.o(t._ZN4mbed17rpc_method_callerINS_6SerialEiXadL_ZNS1_4baudEiEEEEvPNS_4BaseEPKcPc) for mbed::rpc_method_caller<mbed::Serial, int, (&mbed::Serial::baud)>(mbed::Base*, const char*, char*)
    Serial.cpp.lpc1768.arm.o(.constdata) refers to Serial.cpp.lpc1768.arm.o(t._ZN4mbed17rpc_method_callerIiNS_6SerialEXadL_ZNS1_8readableEvEEEEvPNS_4BaseEPKcPc) for mbed::rpc_method_caller<int, mbed::Serial, (&mbed::Serial::readable)>(mbed::Base*, const char*, char*)
    Serial.cpp.lpc1768.arm.o(.constdata) refers to Serial.cpp.lpc1768.arm.o(t._ZN4mbed17rpc_method_callerIiNS_6SerialEXadL_ZNS1_9writeableEvEEEEvPNS_4BaseEPKcPc) for mbed::rpc_method_caller<int, mbed::Serial, (&mbed::Serial::writeable)>(mbed::Base*, const char*, char*)
    Serial.cpp.lpc1768.arm.o(.constdata) refers to Serial.cpp.lpc1768.arm.o(t._ZN4mbed9rpc_superINS_6StreamEEEPKNS_10rpc_methodEPNS_4BaseE) for mbed::rpc_super<mbed::Stream>(mbed::Base*)
    Serial.cpp.lpc1768.arm.o(.constdata) refers to Serial.cpp.lpc1768.arm.o(.conststring) for .conststring
    Serial.cpp.lpc1768.arm.o(.constdata) refers to Serial.cpp.lpc1768.arm.o(t._ZN4mbed19rpc_function_callerIPKc7PinNameS3_S2_XadL_ZNS_4Base9constructINS_6SerialES3_S3_S2_EES2_T0_T1_T2_EEEEvS2_Pc) for mbed::rpc_function_caller<const char*, PinName, PinName, const char*, (&mbed::Base::construct<mbed::Serial, PinName, PinName, const char*>)>(const char*, char*)
    Serial.cpp.lpc1768.arm.o(.data) refers to Serial.cpp.lpc1768.arm.o(.conststring) for .conststring
    Serial.cpp.lpc1768.arm.o(.data) refers to Serial.cpp.lpc1768.arm.o(.constdata) for funcs
    Stream.cpp.lpc1768.arm.o(i._ZN4mbed6Stream15get_rpc_methodsEv) refers to Stream.cpp.lpc1768.arm.o(.constdata) for .constdata
    Stream.cpp.lpc1768.arm.o(i._ZN4mbed6Stream5scanfEPKcz) refers to fflush.o(.text) for fflush
    Stream.cpp.lpc1768.arm.o(i._ZN4mbed6Stream5scanfEPKcz) refers to vfscanf.o(.text) for vfscanf
    Stream.cpp.lpc1768.arm.o(i._ZN4mbed6Stream6printfEPKcz) refers to fflush.o(.text) for fflush
    Stream.cpp.lpc1768.arm.o(i._ZN4mbed6Stream6printfEPKcz) refers to vfprintf.o(.text) for vfprintf
    Stream.cpp.lpc1768.arm.o(i._ZN4mbed6StreamC2EPKc) refers to Base.cpp.lpc1768.arm.o(i._ZN4mbed4BaseC1EPKc) for mbed::Base::Base(const char*)
    Stream.cpp.lpc1768.arm.o(i._ZN4mbed6StreamC2EPKc) refers to sprintf.o(.text) for sprintf
    Stream.cpp.lpc1768.arm.o(i._ZN4mbed6StreamC2EPKc) refers to fopen.o(.text) for fopen
    Stream.cpp.lpc1768.arm.o(i._ZN4mbed6StreamC2EPKc) refers to setbuf.o(.text) for setbuf
    Stream.cpp.lpc1768.arm.o(i._ZN4mbed6StreamC2EPKc) refers to Stream.cpp.lpc1768.arm.o(.constdata__ZTVN4mbed6StreamE) for vtable for mbed::Stream
    Stream.cpp.lpc1768.arm.o(i._ZN4mbed6StreamD0Ev) refers to fclose.o(.text) for fclose
    Stream.cpp.lpc1768.arm.o(i._ZN4mbed6StreamD0Ev) refers to stdio.cpp.lpc1768.arm.o(i._ZN4mbed8FileLikeD2Ev) for mbed::FileLike::~FileLike__sub_object()
    Stream.cpp.lpc1768.arm.o(i._ZN4mbed6StreamD0Ev) refers to delete.o(i._ZdlPv) for operator delete (void*)
    Stream.cpp.lpc1768.arm.o(i._ZN4mbed6StreamD0Ev) refers to Stream.cpp.lpc1768.arm.o(.constdata__ZTVN4mbed6StreamE) for vtable for mbed::Stream
    Stream.cpp.lpc1768.arm.o(i._ZN4mbed6StreamD2Ev) refers to fclose.o(.text) for fclose
    Stream.cpp.lpc1768.arm.o(i._ZN4mbed6StreamD2Ev) refers to stdio.cpp.lpc1768.arm.o(i._ZN4mbed8FileLikeD2Ev) for mbed::FileLike::~FileLike__sub_object()
    Stream.cpp.lpc1768.arm.o(i._ZN4mbed6StreamD2Ev) refers to Stream.cpp.lpc1768.arm.o(.constdata__ZTVN4mbed6StreamE) for vtable for mbed::Stream
    Stream.cpp.lpc1768.arm.o(.ARM.exidx) refers to Stream.cpp.lpc1768.arm.o(i._ZN4mbed6StreamC2EPKc) for i._ZN4mbed6StreamC2EPKc
    Stream.cpp.lpc1768.arm.o(.ARM.exidx) refers to Stream.cpp.lpc1768.arm.o(i._ZN4mbed6StreamD2Ev) for i._ZN4mbed6StreamD2Ev
    Stream.cpp.lpc1768.arm.o(.ARM.exidx) refers to Stream.cpp.lpc1768.arm.o(i._ZN4mbed6StreamD0Ev) for i._ZN4mbed6StreamD0Ev
    Stream.cpp.lpc1768.arm.o(.ARM.exidx) refers to Stream.cpp.lpc1768.arm.o(i._ZN4mbed6Stream6printfEPKcz) for i._ZN4mbed6Stream6printfEPKcz
    Stream.cpp.lpc1768.arm.o(.ARM.exidx) refers to Stream.cpp.lpc1768.arm.o(i._ZN4mbed6Stream5scanfEPKcz) for i._ZN4mbed6Stream5scanfEPKcz
    Stream.cpp.lpc1768.arm.o(.ARM.exidx) refers to Stream.cpp.lpc1768.arm.o(i._ZN4mbed6Stream15get_rpc_methodsEv) for i._ZN4mbed6Stream15get_rpc_methodsEv
    Stream.cpp.lpc1768.arm.o(.ARM.exidx) refers to Stream.cpp.lpc1768.arm.o(i._ZN4mbed6Stream5closeEv) for i._ZN4mbed6Stream5closeEv
    Stream.cpp.lpc1768.arm.o(.ARM.exidx) refers to Stream.cpp.lpc1768.arm.o(i._ZThn16_N4mbed6Stream5closeEv) for i._ZThn16_N4mbed6Stream5closeEv
    Stream.cpp.lpc1768.arm.o(.ARM.exidx) refers to Stream.cpp.lpc1768.arm.o(i._ZN4mbed6Stream5writeEPKvj) for i._ZN4mbed6Stream5writeEPKvj
    Stream.cpp.lpc1768.arm.o(.ARM.exidx) refers to Stream.cpp.lpc1768.arm.o(i._ZThn16_N4mbed6Stream5writeEPKvj) for i._ZThn16_N4mbed6Stream5writeEPKvj
    Stream.cpp.lpc1768.arm.o(.ARM.exidx) refers to Stream.cpp.lpc1768.arm.o(i._ZN4mbed6Stream4readEPvj) for i._ZN4mbed6Stream4readEPvj
    Stream.cpp.lpc1768.arm.o(.ARM.exidx) refers to Stream.cpp.lpc1768.arm.o(i._ZThn16_N4mbed6Stream4readEPvj) for i._ZThn16_N4mbed6Stream4readEPvj
    Stream.cpp.lpc1768.arm.o(.ARM.exidx) refers to Stream.cpp.lpc1768.arm.o(i._ZN4mbed6Stream5lseekEli) for i._ZN4mbed6Stream5lseekEli
    Stream.cpp.lpc1768.arm.o(.ARM.exidx) refers to Stream.cpp.lpc1768.arm.o(i._ZThn16_N4mbed6Stream5lseekEli) for i._ZThn16_N4mbed6Stream5lseekEli
    Stream.cpp.lpc1768.arm.o(.ARM.exidx) refers to Stream.cpp.lpc1768.arm.o(i._ZN4mbed6Stream6isattyEv) for i._ZN4mbed6Stream6isattyEv
    Stream.cpp.lpc1768.arm.o(.ARM.exidx) refers to Stream.cpp.lpc1768.arm.o(i._ZThn16_N4mbed6Stream6isattyEv) for i._ZThn16_N4mbed6Stream6isattyEv
    Stream.cpp.lpc1768.arm.o(.ARM.exidx) refers to Stream.cpp.lpc1768.arm.o(i._ZN4mbed6Stream5fsyncEv) for i._ZN4mbed6Stream5fsyncEv
    Stream.cpp.lpc1768.arm.o(.ARM.exidx) refers to Stream.cpp.lpc1768.arm.o(i._ZThn16_N4mbed6Stream5fsyncEv) for i._ZThn16_N4mbed6Stream5fsyncEv
    Stream.cpp.lpc1768.arm.o(.ARM.exidx) refers to Stream.cpp.lpc1768.arm.o(i._ZN4mbed6Stream4flenEv) for i._ZN4mbed6Stream4flenEv
    Stream.cpp.lpc1768.arm.o(.ARM.exidx) refers to Stream.cpp.lpc1768.arm.o(i._ZThn16_N4mbed6Stream4flenEv) for i._ZThn16_N4mbed6Stream4flenEv
    Stream.cpp.lpc1768.arm.o(.constdata) refers to Stream.cpp.lpc1768.arm.o(i._ZN4mbed6Stream4putcEi) for mbed::Stream::putc(int)
    Stream.cpp.lpc1768.arm.o(.constdata) refers to Stream.cpp.lpc1768.arm.o(i._ZN4mbed6Stream4getcEv) for mbed::Stream::getc()
    Stream.cpp.lpc1768.arm.o(.constdata) refers to Stream.cpp.lpc1768.arm.o(i._ZN4mbed6Stream4putsEPKc) for mbed::Stream::puts(const char*)
    Stream.cpp.lpc1768.arm.o(.constdata) refers to Stream.cpp.lpc1768.arm.o(.conststring) for .conststring
    Stream.cpp.lpc1768.arm.o(.constdata) refers to Stream.cpp.lpc1768.arm.o(t._ZN4mbed17rpc_method_callerIiNS_6StreamEiXadL_ZNS1_4putcEiEEEEvPNS_4BaseEPKcPc) for mbed::rpc_method_caller<int, mbed::Stream, int, (&mbed::Stream::putc)>(mbed::Base*, const char*, char*)
    Stream.cpp.lpc1768.arm.o(.constdata) refers to Stream.cpp.lpc1768.arm.o(t._ZN4mbed17rpc_method_callerIiNS_6StreamEXadL_ZNS1_4getcEvEEEEvPNS_4BaseEPKcPc) for mbed::rpc_method_caller<int, mbed::Stream, (&mbed::Stream::getc)>(mbed::Base*, const char*, char*)
    Stream.cpp.lpc1768.arm.o(.constdata) refers to Stream.cpp.lpc1768.arm.o(t._ZN4mbed17rpc_method_callerIiNS_6StreamEPKcXadL_ZNS1_4putsES3_EEEEvPNS_4BaseES3_Pc) for mbed::rpc_method_caller<int, mbed::Stream, const char*, (&mbed::Stream::puts)>(mbed::Base*, const char*, char*)
    Stream.cpp.lpc1768.arm.o(.constdata) refers to PwmOut.cpp.lpc1768.arm.o(t._ZN4mbed9rpc_superINS_4BaseEEEPKNS_10rpc_methodEPS1_) for mbed::rpc_super<mbed::Base>(mbed::Base*)
    pwmout_api.c.lpc1768.arm.o(i.pwmout_init) refers to pinmap.c.lpc1768.arm.o(i.pinmap_peripheral) for pinmap_peripheral
    pwmout_api.c.lpc1768.arm.o(i.pwmout_init) refers to pwmout_api.c.lpc1768.arm.o(i.pwmout_period_us) for pwmout_period_us
    pwmout_api.c.lpc1768.arm.o(i.pwmout_init) refers to lludivv7m.o(.text) for __aeabi_uldivmod
    pwmout_api.c.lpc1768.arm.o(i.pwmout_init) refers to pinmap.c.lpc1768.arm.o(i.pinmap_pinout) for pinmap_pinout
    pwmout_api.c.lpc1768.arm.o(i.pwmout_init) refers to pwmout_api.c.lpc1768.arm.o(.constdata) for .constdata
    pwmout_api.c.lpc1768.arm.o(i.pwmout_init) refers to system_LPC17xx.o(.data) for SystemCoreClock
    pwmout_api.c.lpc1768.arm.o(i.pwmout_init) refers to pwmout_api.c.lpc1768.arm.o(.data) for .data
    pwmout_api.c.lpc1768.arm.o(i.pwmout_period) refers to fmul.o(x$fpl$fmul) for __aeabi_fmul
    pwmout_api.c.lpc1768.arm.o(i.pwmout_period) refers to ffix.o(x$fpl$ffix) for __aeabi_f2iz
    pwmout_api.c.lpc1768.arm.o(i.pwmout_period) refers to pwmout_api.c.lpc1768.arm.o(i.pwmout_period_us) for pwmout_period_us
    pwmout_api.c.lpc1768.arm.o(i.pwmout_period_ms) refers to pwmout_api.c.lpc1768.arm.o(i.pwmout_period_us) for pwmout_period_us
    pwmout_api.c.lpc1768.arm.o(i.pwmout_period_us) refers to lludivv7m.o(.text) for __aeabi_uldivmod
    pwmout_api.c.lpc1768.arm.o(i.pwmout_period_us) refers to system_LPC17xx.o(.data) for SystemCoreClock
    pwmout_api.c.lpc1768.arm.o(i.pwmout_pulsewidth) refers to fmul.o(x$fpl$fmul) for __aeabi_fmul
    pwmout_api.c.lpc1768.arm.o(i.pwmout_pulsewidth) refers to ffix.o(x$fpl$ffix) for __aeabi_f2iz
    pwmout_api.c.lpc1768.arm.o(i.pwmout_pulsewidth) refers to lludivv7m.o(.text) for __aeabi_uldivmod
    pwmout_api.c.lpc1768.arm.o(i.pwmout_pulsewidth) refers to system_LPC17xx.o(.data) for SystemCoreClock
    pwmout_api.c.lpc1768.arm.o(i.pwmout_pulsewidth) refers to pwmout_api.c.lpc1768.arm.o(.data) for .data
    pwmout_api.c.lpc1768.arm.o(i.pwmout_pulsewidth_ms) refers to lludivv7m.o(.text) for __aeabi_uldivmod
    pwmout_api.c.lpc1768.arm.o(i.pwmout_pulsewidth_ms) refers to system_LPC17xx.o(.data) for SystemCoreClock
    pwmout_api.c.lpc1768.arm.o(i.pwmout_pulsewidth_ms) refers to pwmout_api.c.lpc1768.arm.o(.data) for .data
    pwmout_api.c.lpc1768.arm.o(i.pwmout_pulsewidth_us) refers to lludivv7m.o(.text) for __aeabi_uldivmod
    pwmout_api.c.lpc1768.arm.o(i.pwmout_pulsewidth_us) refers to system_LPC17xx.o(.data) for SystemCoreClock
    pwmout_api.c.lpc1768.arm.o(i.pwmout_pulsewidth_us) refers to pwmout_api.c.lpc1768.arm.o(.data) for .data
    pwmout_api.c.lpc1768.arm.o(i.pwmout_read) refers to fflt_clz.o(x$fpl$ffltu) for __aeabi_ui2f
    pwmout_api.c.lpc1768.arm.o(i.pwmout_read) refers to fdiv.o(x$fpl$fdiv) for __aeabi_fdiv
    pwmout_api.c.lpc1768.arm.o(i.pwmout_read) refers to pwmout_api.c.lpc1768.arm.o(.data) for .data
    pwmout_api.c.lpc1768.arm.o(i.pwmout_write) refers to fflt_clz.o(x$fpl$ffltu) for __aeabi_ui2f
    pwmout_api.c.lpc1768.arm.o(i.pwmout_write) refers to fmul.o(x$fpl$fmul) for __aeabi_fmul
    pwmout_api.c.lpc1768.arm.o(i.pwmout_write) refers to ffixu.o(x$fpl$ffixu) for __aeabi_f2uiz
    pwmout_api.c.lpc1768.arm.o(i.pwmout_write) refers to pwmout_api.c.lpc1768.arm.o(.data) for .data
    i2c_api.c.lpc1768.arm.o(i.i2c_frequency) refers to system_LPC17xx.o(.data) for SystemCoreClock
    i2c_api.c.lpc1768.arm.o(i.i2c_init) refers to pinmap.c.lpc1768.arm.o(i.pinmap_peripheral) for pinmap_peripheral
    i2c_api.c.lpc1768.arm.o(i.i2c_init) refers to pinmap.c.lpc1768.arm.o(i.pinmap_merge) for pinmap_merge
    i2c_api.c.lpc1768.arm.o(i.i2c_init) refers to fprintf.o(.text) for fprintf
    i2c_api.c.lpc1768.arm.o(i.i2c_init) refers to exit.c.lpc1768.arm.o(i.exit) for exit
    i2c_api.c.lpc1768.arm.o(i.i2c_init) refers to pinmap.c.lpc1768.arm.o(i.pinmap_pinout) for pinmap_pinout
    i2c_api.c.lpc1768.arm.o(i.i2c_init) refers to i2c_api.c.lpc1768.arm.o(.constdata) for .constdata
    i2c_api.c.lpc1768.arm.o(i.i2c_init) refers to stdio_streams.o(.data) for __aeabi_stderr
    i2c_api.c.lpc1768.arm.o(i.i2c_init) refers to system_LPC17xx.o(.data) for SystemCoreClock
    i2c_api.c.lpc1768.arm.o(i.i2c_read) refers to i2c_api.c.lpc1768.arm.o(i.i2c_start) for i2c_start
    i2c_api.c.lpc1768.arm.o(i.i2c_read) refers to i2c_api.c.lpc1768.arm.o(i.i2c_do_read) for i2c_do_read
    i2c_api.c.lpc1768.arm.o(i.i2c_read) refers to i2c_api.c.lpc1768.arm.o(i.i2c_stop) for i2c_stop
    i2c_api.c.lpc1768.arm.o(i.i2c_write) refers to i2c_api.c.lpc1768.arm.o(i.i2c_start) for i2c_start
    i2c_api.c.lpc1768.arm.o(i.i2c_write) refers to i2c_api.c.lpc1768.arm.o(i.i2c_stop) for i2c_stop
    serial_api.c.lpc1768.arm.o(i.serial_baud) refers to fflt_clz.o(x$fpl$fflt) for __aeabi_i2f
    serial_api.c.lpc1768.arm.o(i.serial_baud) refers to scalbnf.o(i.scalbnf) for scalbnf
    serial_api.c.lpc1768.arm.o(i.serial_baud) refers to fmul.o(x$fpl$fmul) for __aeabi_fmul
    serial_api.c.lpc1768.arm.o(i.serial_baud) refers to fflt_clz.o(x$fpl$ffltu) for __aeabi_ui2f
    serial_api.c.lpc1768.arm.o(i.serial_baud) refers to fdiv.o(x$fpl$fdiv) for __aeabi_fdiv
    serial_api.c.lpc1768.arm.o(i.serial_baud) refers to faddsub_clz.o(x$fpl$fadd) for __aeabi_fadd
    serial_api.c.lpc1768.arm.o(i.serial_baud) refers to ffix.o(x$fpl$ffix) for __aeabi_f2iz
    serial_api.c.lpc1768.arm.o(i.serial_baud) refers to assert.o(.text) for __aeabi_assert
    serial_api.c.lpc1768.arm.o(i.serial_baud) refers to system_LPC17xx.o(.data) for SystemCoreClock
    serial_api.c.lpc1768.arm.o(i.serial_format) refers to fprintf.o(.text) for fprintf
    serial_api.c.lpc1768.arm.o(i.serial_format) refers to exit.c.lpc1768.arm.o(i.exit) for exit
    serial_api.c.lpc1768.arm.o(i.serial_format) refers to stdio_streams.o(.data) for __aeabi_stderr
    serial_api.c.lpc1768.arm.o(i.serial_format) refers to serial_api.c.lpc1768.arm.o(.constdata) for .constdata
    serial_api.c.lpc1768.arm.o(i.serial_init) refers to pinmap.c.lpc1768.arm.o(i.pinmap_peripheral) for pinmap_peripheral
    serial_api.c.lpc1768.arm.o(i.serial_init) refers to pinmap.c.lpc1768.arm.o(i.pinmap_merge) for pinmap_merge
    serial_api.c.lpc1768.arm.o(i.serial_init) refers to fprintf.o(.text) for fprintf
    serial_api.c.lpc1768.arm.o(i.serial_init) refers to exit.c.lpc1768.arm.o(i.exit) for exit
    serial_api.c.lpc1768.arm.o(i.serial_init) refers to serial_api.c.lpc1768.arm.o(i.serial_baud) for serial_baud
    serial_api.c.lpc1768.arm.o(i.serial_init) refers to serial_api.c.lpc1768.arm.o(i.serial_format) for serial_format
    serial_api.c.lpc1768.arm.o(i.serial_init) refers to pinmap.c.lpc1768.arm.o(i.pinmap_pinout) for pinmap_pinout
    serial_api.c.lpc1768.arm.o(i.serial_init) refers to serial_api.c.lpc1768.arm.o(.constdata) for .constdata
    serial_api.c.lpc1768.arm.o(i.serial_init) refers to stdio_streams.o(.data) for __aeabi_stderr
    gpio_api.c.lpc1768.arm.o(i.gpio_input) refers to pinmap.c.lpc1768.arm.o(i.pin_function) for pin_function
    gpio_api.c.lpc1768.arm.o(i.gpio_input) refers to pinmap.c.lpc1768.arm.o(i.pin_mode) for pin_mode
    gpio_api.c.lpc1768.arm.o(i.gpio_mode) refers to pinmap.c.lpc1768.arm.o(i.pin_mode) for pin_mode
    gpio_api.c.lpc1768.arm.o(i.gpio_output) refers to pinmap.c.lpc1768.arm.o(i.pin_function) for pin_function
    gpio_api.c.lpc1768.arm.o(i.gpio_output) refers to pinmap.c.lpc1768.arm.o(i.pin_mode) for pin_mode
    us_ticker_api.c.lpc1768.arm.o(i.us_ticker_read) refers to timer_api.c.lpc1768.arm.o(i.timer_init) for timer_init
    us_ticker_api.c.lpc1768.arm.o(i.us_ticker_read) refers to timer_api.c.lpc1768.arm.o(i.timer_frequency) for timer_frequency
    us_ticker_api.c.lpc1768.arm.o(i.us_ticker_read) refers to timer_api.c.lpc1768.arm.o(i.timer_start) for timer_start
    us_ticker_api.c.lpc1768.arm.o(i.us_ticker_read) refers to timer_api.c.lpc1768.arm.o(i.timer_read) for timer_read
    us_ticker_api.c.lpc1768.arm.o(i.us_ticker_read) refers to us_ticker_api.c.lpc1768.arm.o(.data) for .data
    FunctionPointer.cpp.lpc1768.arm.o(.ARM.exidx) refers to FunctionPointer.cpp.lpc1768.arm.o(i._ZN4mbed15FunctionPointer6attachEPFvvE) for i._ZN4mbed15FunctionPointer6attachEPFvvE
    FunctionPointer.cpp.lpc1768.arm.o(.ARM.exidx) refers to FunctionPointer.cpp.lpc1768.arm.o(i._ZN4mbed15FunctionPointerC1EPFvvE) for i._ZN4mbed15FunctionPointerC1EPFvvE
    FunctionPointer.cpp.lpc1768.arm.o(.ARM.exidx) refers to FunctionPointer.cpp.lpc1768.arm.o(i._ZN4mbed15FunctionPointer4callEv) for i._ZN4mbed15FunctionPointer4callEv
    stdio.cpp.lpc1768.arm.o(i._ZN4mbed8FileLikeD0Ev) refers to Base.cpp.lpc1768.arm.o(i._ZN4mbed4BaseD1Ev) for mbed::Base::~Base()
    stdio.cpp.lpc1768.arm.o(i._ZN4mbed8FileLikeD0Ev) refers to delete.o(i._ZdlPv) for operator delete (void*)
    stdio.cpp.lpc1768.arm.o(i._ZN4mbed8FileLikeD0Ev) refers to stdio.cpp.lpc1768.arm.o(.constdata__ZTVN4mbed8FileLikeE) for vtable for mbed::FileLike
    stdio.cpp.lpc1768.arm.o(i._ZN4mbed8FileLikeD0Ev) refers to stdio.cpp.lpc1768.arm.o(.bss) for .bss
    stdio.cpp.lpc1768.arm.o(i._ZN4mbed8FileLikeD2Ev) refers to Base.cpp.lpc1768.arm.o(i._ZN4mbed4BaseD1Ev) for mbed::Base::~Base()
    stdio.cpp.lpc1768.arm.o(i._ZN4mbed8FileLikeD2Ev) refers to stdio.cpp.lpc1768.arm.o(.constdata__ZTVN4mbed8FileLikeE) for vtable for mbed::FileLike
    stdio.cpp.lpc1768.arm.o(i._ZN4mbed8FileLikeD2Ev) refers to stdio.cpp.lpc1768.arm.o(.bss) for .bss
    stdio.cpp.lpc1768.arm.o(i._sys_close) refers to stdio.cpp.lpc1768.arm.o(.bss) for .bss
    stdio.cpp.lpc1768.arm.o(i._sys_ensure) refers to stdio.cpp.lpc1768.arm.o(.bss) for .bss
    stdio.cpp.lpc1768.arm.o(i._sys_flen) refers to stdio.cpp.lpc1768.arm.o(.bss) for .bss
    stdio.cpp.lpc1768.arm.o(i._sys_istty) refers to stdio.cpp.lpc1768.arm.o(.bss) for .bss
    stdio.cpp.lpc1768.arm.o(i._sys_open) refers to strcmpv7m.o(.text) for strcmp
    stdio.cpp.lpc1768.arm.o(i._sys_open) refers to serial_api.c.lpc1768.arm.o(i.serial_init) for serial_init
    stdio.cpp.lpc1768.arm.o(i._sys_open) refers to serial_api.c.lpc1768.arm.o(i.serial_format) for serial_format
    stdio.cpp.lpc1768.arm.o(i._sys_open) refers to serial_api.c.lpc1768.arm.o(i.serial_baud) for serial_baud
    stdio.cpp.lpc1768.arm.o(i._sys_open) refers to sscanf.o(.text) for sscanf
    stdio.cpp.lpc1768.arm.o(i._sys_open) refers to Base.cpp.lpc1768.arm.o(i._ZN4mbed4Base6lookupEPKcj) for mbed::Base::lookup(const char*, unsigned)
    stdio.cpp.lpc1768.arm.o(i._sys_open) refers to rtti.o(i.__dynamic_cast) for __dynamic_cast
    stdio.cpp.lpc1768.arm.o(i._sys_open) refers to stdio.cpp.lpc1768.arm.o(.constdata) for .constdata
    stdio.cpp.lpc1768.arm.o(i._sys_open) refers to stdio.cpp.lpc1768.arm.o(.bss) for .bss
    stdio.cpp.lpc1768.arm.o(i._sys_open) refers to stdio.cpp.lpc1768.arm.o(.constdata__ZTIN4mbed8FileLikeE) for typeinfo for mbed::FileLike
    stdio.cpp.lpc1768.arm.o(i._sys_open) refers to Base.cpp.lpc1768.arm.o(.constdata__ZTIN4mbed4BaseE) for typeinfo for mbed::Base
    stdio.cpp.lpc1768.arm.o(i._sys_open) refers to Base.cpp.lpc1768.arm.o(.constdata__ZTIN4mbed14FileSystemLikeE) for typeinfo for mbed::FileSystemLike
    stdio.cpp.lpc1768.arm.o(i._sys_read) refers to serial_api.c.lpc1768.arm.o(i.serial_getc) for serial_getc
    stdio.cpp.lpc1768.arm.o(i._sys_read) refers to stdio.cpp.lpc1768.arm.o(.bss) for .bss
    stdio.cpp.lpc1768.arm.o(i._sys_seek) refers to stdio.cpp.lpc1768.arm.o(.bss) for .bss
    stdio.cpp.lpc1768.arm.o(i._sys_write) refers to serial_api.c.lpc1768.arm.o(i.serial_putc) for serial_putc
    stdio.cpp.lpc1768.arm.o(i._sys_write) refers to stdio.cpp.lpc1768.arm.o(.bss) for .bss
    stdio.cpp.lpc1768.arm.o(i.mkdir) refers to Base.cpp.lpc1768.arm.o(i._ZN4mbed4Base6lookupEPKcj) for mbed::Base::lookup(const char*, unsigned)
    stdio.cpp.lpc1768.arm.o(i.mkdir) refers to rtti.o(i.__dynamic_cast) for __dynamic_cast
    stdio.cpp.lpc1768.arm.o(i.mkdir) refers to Base.cpp.lpc1768.arm.o(.constdata__ZTIN4mbed14FileSystemLikeE) for typeinfo for mbed::FileSystemLike
    stdio.cpp.lpc1768.arm.o(i.mkdir) refers to Base.cpp.lpc1768.arm.o(.constdata__ZTIN4mbed4BaseE) for typeinfo for mbed::Base
    stdio.cpp.lpc1768.arm.o(i.opendir) refers to Base.cpp.lpc1768.arm.o(i._ZN4mbed4Base7opendirEv) for mbed::Base::opendir()
    stdio.cpp.lpc1768.arm.o(i.opendir) refers to Base.cpp.lpc1768.arm.o(i._ZN4mbed4Base6lookupEPKcj) for mbed::Base::lookup(const char*, unsigned)
    stdio.cpp.lpc1768.arm.o(i.opendir) refers to rtti.o(i.__dynamic_cast) for __dynamic_cast
    stdio.cpp.lpc1768.arm.o(i.opendir) refers to Base.cpp.lpc1768.arm.o(.constdata__ZTIN4mbed14FileSystemLikeE) for typeinfo for mbed::FileSystemLike
    stdio.cpp.lpc1768.arm.o(i.opendir) refers to Base.cpp.lpc1768.arm.o(.constdata__ZTIN4mbed4BaseE) for typeinfo for mbed::Base
    stdio.cpp.lpc1768.arm.o(i.remove) refers to Base.cpp.lpc1768.arm.o(i._ZN4mbed4Base6lookupEPKcj) for mbed::Base::lookup(const char*, unsigned)
    stdio.cpp.lpc1768.arm.o(i.remove) refers to rtti.o(i.__dynamic_cast) for __dynamic_cast
    stdio.cpp.lpc1768.arm.o(i.remove) refers to Base.cpp.lpc1768.arm.o(.constdata__ZTIN4mbed14FileSystemLikeE) for typeinfo for mbed::FileSystemLike
    stdio.cpp.lpc1768.arm.o(i.remove) refers to Base.cpp.lpc1768.arm.o(.constdata__ZTIN4mbed4BaseE) for typeinfo for mbed::Base
    stdio.cpp.lpc1768.arm.o(.ARM.exidx) refers to stdio.cpp.lpc1768.arm.o(i._sys_open) for i._sys_open
    stdio.cpp.lpc1768.arm.o(.ARM.exidx) refers to stdio.cpp.lpc1768.arm.o(i._sys_close) for i._sys_close
    stdio.cpp.lpc1768.arm.o(.ARM.exidx) refers to stdio.cpp.lpc1768.arm.o(i._sys_write) for i._sys_write
    stdio.cpp.lpc1768.arm.o(.ARM.exidx) refers to stdio.cpp.lpc1768.arm.o(i._sys_read) for i._sys_read
    stdio.cpp.lpc1768.arm.o(.ARM.exidx) refers to stdio.cpp.lpc1768.arm.o(i._sys_istty) for i._sys_istty
    stdio.cpp.lpc1768.arm.o(.ARM.exidx) refers to stdio.cpp.lpc1768.arm.o(i._sys_seek) for i._sys_seek
    stdio.cpp.lpc1768.arm.o(.ARM.exidx) refers to stdio.cpp.lpc1768.arm.o(i._sys_ensure) for i._sys_ensure
    stdio.cpp.lpc1768.arm.o(.ARM.exidx) refers to stdio.cpp.lpc1768.arm.o(i._sys_flen) for i._sys_flen
    stdio.cpp.lpc1768.arm.o(.ARM.exidx) refers to stdio.cpp.lpc1768.arm.o(i.remove) for i.remove
    stdio.cpp.lpc1768.arm.o(.ARM.exidx) refers to stdio.cpp.lpc1768.arm.o(i.rename) for i.rename
    stdio.cpp.lpc1768.arm.o(.ARM.exidx) refers to stdio.cpp.lpc1768.arm.o(i.tmpnam) for i.tmpnam
    stdio.cpp.lpc1768.arm.o(.ARM.exidx) refers to stdio.cpp.lpc1768.arm.o(i.tmpfile) for i.tmpfile
    stdio.cpp.lpc1768.arm.o(.ARM.exidx) refers to stdio.cpp.lpc1768.arm.o(i._sys_command_string) for i._sys_command_string
    stdio.cpp.lpc1768.arm.o(.ARM.exidx) refers to stdio.cpp.lpc1768.arm.o(i.opendir) for i.opendir
    stdio.cpp.lpc1768.arm.o(.ARM.exidx) refers to stdio.cpp.lpc1768.arm.o(i.readdir) for i.readdir
    stdio.cpp.lpc1768.arm.o(.ARM.exidx) refers to stdio.cpp.lpc1768.arm.o(i.closedir) for i.closedir
    stdio.cpp.lpc1768.arm.o(.ARM.exidx) refers to stdio.cpp.lpc1768.arm.o(i.rewinddir) for i.rewinddir
    stdio.cpp.lpc1768.arm.o(.ARM.exidx) refers to stdio.cpp.lpc1768.arm.o(i.telldir) for i.telldir
    stdio.cpp.lpc1768.arm.o(.ARM.exidx) refers to stdio.cpp.lpc1768.arm.o(i.seekdir) for i.seekdir
    stdio.cpp.lpc1768.arm.o(.ARM.exidx) refers to stdio.cpp.lpc1768.arm.o(i.mkdir) for i.mkdir
    stdio.cpp.lpc1768.arm.o(.ARM.exidx) refers to stdio.cpp.lpc1768.arm.o(i._ZN4mbed8FileLikeD2Ev) for i._ZN4mbed8FileLikeD2Ev
    stdio.cpp.lpc1768.arm.o(.ARM.exidx) refers to stdio.cpp.lpc1768.arm.o(i._ZN4mbed8FileLikeD0Ev) for i._ZN4mbed8FileLikeD0Ev
    timer_api.c.lpc1768.arm.o(i.timer_frequency) refers to system_LPC17xx.o(.data) for SystemCoreClock
    timer_api.c.lpc1768.arm.o(i.timer_init) refers to system_LPC17xx.o(.data) for SystemCoreClock
    pinmap.c.lpc1768.arm.o(i.pinmap_merge) refers to fprintf.o(.text) for fprintf
    pinmap.c.lpc1768.arm.o(i.pinmap_merge) refers to exit.c.lpc1768.arm.o(i.exit) for exit
    pinmap.c.lpc1768.arm.o(i.pinmap_merge) refers to stdio_streams.o(.data) for __aeabi_stderr
    pinmap.c.lpc1768.arm.o(i.pinmap_peripheral) refers to fprintf.o(.text) for fprintf
    pinmap.c.lpc1768.arm.o(i.pinmap_peripheral) refers to exit.c.lpc1768.arm.o(i.exit) for exit
    pinmap.c.lpc1768.arm.o(i.pinmap_peripheral) refers to stdio_streams.o(.data) for __aeabi_stderr
    pinmap.c.lpc1768.arm.o(i.pinmap_pinout) refers to fprintf.o(.text) for fprintf
    pinmap.c.lpc1768.arm.o(i.pinmap_pinout) refers to exit.c.lpc1768.arm.o(i.exit) for exit
    pinmap.c.lpc1768.arm.o(i.pinmap_pinout) refers to stdio_streams.o(.data) for __aeabi_stderr
    exit.c.lpc1768.arm.o(i.exit) refers to semihost_api.c.lpc1768.arm.o(i.semihost_exit) for semihost_exit
    exit.c.lpc1768.arm.o(i.exit) refers to utils_api.c.lpc1768.arm.o(i.mbed_die) for mbed_die
    utils_api.c.lpc1768.arm.o(i.mbed_die) refers to gpio_api.c.lpc1768.arm.o(i.gpio_output) for gpio_output
    utils_api.c.lpc1768.arm.o(i.mbed_die) refers to gpio_api.c.lpc1768.arm.o(i.gpio_write) for gpio_write
    utils_api.c.lpc1768.arm.o(i.mbed_die) refers to wait_api.c.lpc1768.arm.o(i.wait_ms) for wait_ms
    utils_api.c.lpc1768.arm.o(i.mbed_mac_address) refers to semihost_api.c.lpc1768.arm.o(i.semihost_uid) for semihost_uid
    utils_api.c.lpc1768.arm.o(i.mbed_mac_address) refers to sscanf.o(.text) for sscanf
    utils_api.c.lpc1768.arm.o(i.mbed_reset) refers to semihost_api.c.lpc1768.arm.o(i.semihost_reset) for semihost_reset
    utils_api.c.lpc1768.arm.o(i.mbed_reset) refers to fprintf.o(.text) for fprintf
    utils_api.c.lpc1768.arm.o(i.mbed_reset) refers to exit.c.lpc1768.arm.o(i.exit) for exit
    utils_api.c.lpc1768.arm.o(i.mbed_reset) refers to stdio_streams.o(.data) for __aeabi_stderr
    utils_api.c.lpc1768.arm.o(i.mbed_uid) refers to semihost_api.c.lpc1768.arm.o(i.semihost_uid) for semihost_uid
    semihost_api.c.lpc1768.arm.o(i.semihost_open) refers to strlen.o(.text) for strlen
    semihost_api.c.lpc1768.arm.o(i.semihost_remove) refers to strlen.o(.text) for strlen
    semihost_api.c.lpc1768.arm.o(i.semihost_rename) refers to strlen.o(.text) for strlen
    fprintf.o(.text) refers (Special) to _printf_a.o(.ARM.Collect$$_printf_percent$$00000006) for _printf_a
    fprintf.o(.text) refers (Special) to _printf_c.o(.ARM.Collect$$_printf_percent$$00000013) for _printf_c
    fprintf.o(.text) refers (Special) to _printf_charcount.o(.text) for _printf_charcount
    fprintf.o(.text) refers (Special) to _printf_d.o(.ARM.Collect$$_printf_percent$$00000009) for _printf_d
    fprintf.o(.text) refers (Special) to _printf_e.o(.ARM.Collect$$_printf_percent$$00000004) for _printf_e
    fprintf.o(.text) refers (Special) to _printf_f.o(.ARM.Collect$$_printf_percent$$00000003) for _printf_f
    fprintf.o(.text) refers (Special) to printf1.o(x$fpl$printf1) for _printf_fp_dec
    fprintf.o(.text) refers (Special) to printf2.o(x$fpl$printf2) for _printf_fp_hex
    fprintf.o(.text) refers (Special) to _printf_g.o(.ARM.Collect$$_printf_percent$$00000005) for _printf_g
    fprintf.o(.text) refers (Special) to _printf_i.o(.ARM.Collect$$_printf_percent$$00000008) for _printf_i
    fprintf.o(.text) refers (Special) to _printf_dec.o(.text) for _printf_int_dec
    fprintf.o(.text) refers (Special) to _printf_l.o(.ARM.Collect$$_printf_percent$$00000012) for _printf_l
    fprintf.o(.text) refers (Special) to _printf_lc.o(.ARM.Collect$$_printf_percent$$00000015) for _printf_lc
    fprintf.o(.text) refers (Special) to _printf_ll.o(.ARM.Collect$$_printf_percent$$00000007) for _printf_ll
    fprintf.o(.text) refers (Special) to _printf_lld.o(.ARM.Collect$$_printf_percent$$0000000E) for _printf_lld
    fprintf.o(.text) refers (Special) to _printf_lli.o(.ARM.Collect$$_printf_percent$$0000000D) for _printf_lli
    fprintf.o(.text) refers (Special) to _printf_llo.o(.ARM.Collect$$_printf_percent$$00000010) for _printf_llo
    fprintf.o(.text) refers (Special) to _printf_llu.o(.ARM.Collect$$_printf_percent$$0000000F) for _printf_llu
    fprintf.o(.text) refers (Special) to _printf_llx.o(.ARM.Collect$$_printf_percent$$00000011) for _printf_llx
    fprintf.o(.text) refers (Special) to _printf_longlong_dec.o(.text) for _printf_longlong_dec
    fprintf.o(.text) refers (Special) to _printf_hex_int_ll_ptr.o(.text) for _printf_longlong_hex
    fprintf.o(.text) refers (Special) to _printf_oct_int_ll.o(.text) for _printf_longlong_oct
    fprintf.o(.text) refers (Special) to _printf_ls.o(.ARM.Collect$$_printf_percent$$00000016) for _printf_ls
    fprintf.o(.text) refers (Special) to _printf_n.o(.ARM.Collect$$_printf_percent$$00000001) for _printf_n
    fprintf.o(.text) refers (Special) to _printf_o.o(.ARM.Collect$$_printf_percent$$0000000B) for _printf_o
    fprintf.o(.text) refers (Special) to _printf_p.o(.ARM.Collect$$_printf_percent$$00000002) for _printf_p
    fprintf.o(.text) refers (Special) to _printf_percent.o(.ARM.Collect$$_printf_percent$$00000000) for _printf_percent
    fprintf.o(.text) refers (Special) to _printf_pad.o(.text) for _printf_post_padding
    fprintf.o(.text) refers (Special) to _printf_s.o(.ARM.Collect$$_printf_percent$$00000014) for _printf_s
    fprintf.o(.text) refers (Special) to _printf_str.o(.text) for _printf_str
    fprintf.o(.text) refers (Special) to _printf_truncate.o(.text) for _printf_truncate_signed
    fprintf.o(.text) refers (Special) to _printf_u.o(.ARM.Collect$$_printf_percent$$0000000A) for _printf_u
    fprintf.o(.text) refers (Special) to _printf_wctomb.o(.text) for _printf_wctomb
    fprintf.o(.text) refers (Special) to _printf_x.o(.ARM.Collect$$_printf_percent$$0000000C) for _printf_x
    fprintf.o(.text) refers to _printf_char_file.o(.text) for _printf_char_file
    vfprintf.o(.text) refers (Special) to _printf_a.o(.ARM.Collect$$_printf_percent$$00000006) for _printf_a
    vfprintf.o(.text) refers (Special) to _printf_c.o(.ARM.Collect$$_printf_percent$$00000013) for _printf_c
    vfprintf.o(.text) refers (Special) to _printf_charcount.o(.text) for _printf_charcount
    vfprintf.o(.text) refers (Special) to _printf_d.o(.ARM.Collect$$_printf_percent$$00000009) for _printf_d
    vfprintf.o(.text) refers (Special) to _printf_e.o(.ARM.Collect$$_printf_percent$$00000004) for _printf_e
    vfprintf.o(.text) refers (Special) to _printf_f.o(.ARM.Collect$$_printf_percent$$00000003) for _printf_f
    vfprintf.o(.text) refers (Special) to printf1.o(x$fpl$printf1) for _printf_fp_dec
    vfprintf.o(.text) refers (Special) to printf2.o(x$fpl$printf2) for _printf_fp_hex
    vfprintf.o(.text) refers (Special) to _printf_g.o(.ARM.Collect$$_printf_percent$$00000005) for _printf_g
    vfprintf.o(.text) refers (Special) to _printf_i.o(.ARM.Collect$$_printf_percent$$00000008) for _printf_i
    vfprintf.o(.text) refers (Special) to _printf_dec.o(.text) for _printf_int_dec
    vfprintf.o(.text) refers (Special) to _printf_l.o(.ARM.Collect$$_printf_percent$$00000012) for _printf_l
    vfprintf.o(.text) refers (Special) to _printf_lc.o(.ARM.Collect$$_printf_percent$$00000015) for _printf_lc
    vfprintf.o(.text) refers (Special) to _printf_ll.o(.ARM.Collect$$_printf_percent$$00000007) for _printf_ll
    vfprintf.o(.text) refers (Special) to _printf_lld.o(.ARM.Collect$$_printf_percent$$0000000E) for _printf_lld
    vfprintf.o(.text) refers (Special) to _printf_lli.o(.ARM.Collect$$_printf_percent$$0000000D) for _printf_lli
    vfprintf.o(.text) refers (Special) to _printf_llo.o(.ARM.Collect$$_printf_percent$$00000010) for _printf_llo
    vfprintf.o(.text) refers (Special) to _printf_llu.o(.ARM.Collect$$_printf_percent$$0000000F) for _printf_llu
    vfprintf.o(.text) refers (Special) to _printf_llx.o(.ARM.Collect$$_printf_percent$$00000011) for _printf_llx
    vfprintf.o(.text) refers (Special) to _printf_longlong_dec.o(.text) for _printf_longlong_dec
    vfprintf.o(.text) refers (Special) to _printf_hex_int_ll_ptr.o(.text) for _printf_longlong_hex
    vfprintf.o(.text) refers (Special) to _printf_oct_int_ll.o(.text) for _printf_longlong_oct
    vfprintf.o(.text) refers (Special) to _printf_ls.o(.ARM.Collect$$_printf_percent$$00000016) for _printf_ls
    vfprintf.o(.text) refers (Special) to _printf_n.o(.ARM.Collect$$_printf_percent$$00000001) for _printf_n
    vfprintf.o(.text) refers (Special) to _printf_o.o(.ARM.Collect$$_printf_percent$$0000000B) for _printf_o
    vfprintf.o(.text) refers (Special) to _printf_p.o(.ARM.Collect$$_printf_percent$$00000002) for _printf_p
    vfprintf.o(.text) refers (Special) to _printf_percent.o(.ARM.Collect$$_printf_percent$$00000000) for _printf_percent
    vfprintf.o(.text) refers (Special) to _printf_pad.o(.text) for _printf_post_padding
    vfprintf.o(.text) refers (Special) to _printf_s.o(.ARM.Collect$$_printf_percent$$00000014) for _printf_s
    vfprintf.o(.text) refers (Special) to _printf_str.o(.text) for _printf_str
    vfprintf.o(.text) refers (Special) to _printf_truncate.o(.text) for _printf_truncate_signed
    vfprintf.o(.text) refers (Special) to _printf_u.o(.ARM.Collect$$_printf_percent$$0000000A) for _printf_u
    vfprintf.o(.text) refers (Special) to _printf_wctomb.o(.text) for _printf_wctomb
    vfprintf.o(.text) refers (Special) to _printf_x.o(.ARM.Collect$$_printf_percent$$0000000C) for _printf_x
    vfprintf.o(.text) refers to _printf_char_file.o(.text) for _printf_char_file
    sprintf.o(.text) refers (Special) to _printf_a.o(.ARM.Collect$$_printf_percent$$00000006) for _printf_a
    sprintf.o(.text) refers (Special) to _printf_c.o(.ARM.Collect$$_printf_percent$$00000013) for _printf_c
    sprintf.o(.text) refers (Special) to _printf_charcount.o(.text) for _printf_charcount
    sprintf.o(.text) refers (Special) to _printf_d.o(.ARM.Collect$$_printf_percent$$00000009) for _printf_d
    sprintf.o(.text) refers (Special) to _printf_e.o(.ARM.Collect$$_printf_percent$$00000004) for _printf_e
    sprintf.o(.text) refers (Special) to _printf_f.o(.ARM.Collect$$_printf_percent$$00000003) for _printf_f
    sprintf.o(.text) refers (Special) to printf1.o(x$fpl$printf1) for _printf_fp_dec
    sprintf.o(.text) refers (Special) to printf2.o(x$fpl$printf2) for _printf_fp_hex
    sprintf.o(.text) refers (Special) to _printf_g.o(.ARM.Collect$$_printf_percent$$00000005) for _printf_g
    sprintf.o(.text) refers (Special) to _printf_i.o(.ARM.Collect$$_printf_percent$$00000008) for _printf_i
    sprintf.o(.text) refers (Special) to _printf_dec.o(.text) for _printf_int_dec
    sprintf.o(.text) refers (Special) to _printf_l.o(.ARM.Collect$$_printf_percent$$00000012) for _printf_l
    sprintf.o(.text) refers (Special) to _printf_lc.o(.ARM.Collect$$_printf_percent$$00000015) for _printf_lc
    sprintf.o(.text) refers (Special) to _printf_ll.o(.ARM.Collect$$_printf_percent$$00000007) for _printf_ll
    sprintf.o(.text) refers (Special) to _printf_lld.o(.ARM.Collect$$_printf_percent$$0000000E) for _printf_lld
    sprintf.o(.text) refers (Special) to _printf_lli.o(.ARM.Collect$$_printf_percent$$0000000D) for _printf_lli
    sprintf.o(.text) refers (Special) to _printf_llo.o(.ARM.Collect$$_printf_percent$$00000010) for _printf_llo
    sprintf.o(.text) refers (Special) to _printf_llu.o(.ARM.Collect$$_printf_percent$$0000000F) for _printf_llu
    sprintf.o(.text) refers (Special) to _printf_llx.o(.ARM.Collect$$_printf_percent$$00000011) for _printf_llx
    sprintf.o(.text) refers (Special) to _printf_longlong_dec.o(.text) for _printf_longlong_dec
    sprintf.o(.text) refers (Special) to _printf_hex_int_ll_ptr.o(.text) for _printf_longlong_hex
    sprintf.o(.text) refers (Special) to _printf_oct_int_ll.o(.text) for _printf_longlong_oct
    sprintf.o(.text) refers (Special) to _printf_ls.o(.ARM.Collect$$_printf_percent$$00000016) for _printf_ls
    sprintf.o(.text) refers (Special) to _printf_n.o(.ARM.Collect$$_printf_percent$$00000001) for _printf_n
    sprintf.o(.text) refers (Special) to _printf_o.o(.ARM.Collect$$_printf_percent$$0000000B) for _printf_o
    sprintf.o(.text) refers (Special) to _printf_p.o(.ARM.Collect$$_printf_percent$$00000002) for _printf_p
    sprintf.o(.text) refers (Special) to _printf_percent.o(.ARM.Collect$$_printf_percent$$00000000) for _printf_percent
    sprintf.o(.text) refers (Special) to _printf_pad.o(.text) for _printf_post_padding
    sprintf.o(.text) refers (Special) to _printf_s.o(.ARM.Collect$$_printf_percent$$00000014) for _printf_s
    sprintf.o(.text) refers (Special) to _printf_str.o(.text) for _printf_str
    sprintf.o(.text) refers (Special) to _printf_truncate.o(.text) for _printf_truncate_signed
    sprintf.o(.text) refers (Special) to _printf_u.o(.ARM.Collect$$_printf_percent$$0000000A) for _printf_u
    sprintf.o(.text) refers (Special) to _printf_wctomb.o(.text) for _printf_wctomb
    sprintf.o(.text) refers (Special) to _printf_x.o(.ARM.Collect$$_printf_percent$$0000000C) for _printf_x
    sprintf.o(.text) refers to _printf_char_common.o(.text) for _printf_char_common
    sprintf.o(.text) refers to _sputc.o(.text) for _sputc
    __2printf.o(.text) refers to _printf_char_file.o(.text) for _printf_char_file
    __2printf.o(.text) refers to stdio_streams.o(.bss) for __stdout
    __2sprintf.o(.text) refers to _printf_char_common.o(.text) for _printf_char_common
    __2sprintf.o(.text) refers to _sputc.o(.text) for _sputc
    noretval__2printf.o(.text) refers to _printf_char_file.o(.text) for _printf_char_file
    noretval__2printf.o(.text) refers to stdio_streams.o(.bss) for __stdout
    noretval__2sprintf.o(.text) refers to _printf_char_common.o(.text) for _printf_char_common
    noretval__2sprintf.o(.text) refers to _sputc.o(.text) for _sputc
    __printf.o(.text) refers to _printf_percent.o(.ARM.Collect$$_printf_percent$$00000000) for _printf_percent
    _printf_str.o(.text) refers (Special) to _printf_char.o(.text) for _printf_cs_common
    _printf_str.o(.text) refers (Weak) to _printf_pad.o(.text) for _printf_pre_padding
    _printf_str.o(.text) refers (Weak) to _printf_pad.o(.text) for _printf_post_padding
    _printf_dec.o(.text) refers (Weak) to _printf_truncate.o(.text) for _printf_truncate_signed
    _printf_dec.o(.text) refers (Weak) to _printf_truncate.o(.text) for _printf_truncate_unsigned
    _printf_dec.o(.text) refers to _printf_intcommon.o(.text) for _printf_int_common
    _printf_hex_ll.o(.text) refers to _printf_intcommon.o(.text) for _printf_int_common
    _printf_hex_ll.o(.text) refers to _printf_hex_ll.o(.constdata) for .constdata
    _printf_hex_int.o(.text) refers (Weak) to _printf_truncate.o(.text) for _printf_truncate_unsigned
    _printf_hex_int.o(.text) refers to _printf_intcommon.o(.text) for _printf_int_common
    _printf_hex_int.o(.text) refers to _printf_hex_int.o(.constdata) for .constdata
    _printf_hex_int_ll.o(.text) refers to _printf_intcommon.o(.text) for _printf_int_common
    _printf_hex_int_ll.o(.text) refers (Weak) to _printf_truncate.o(.text) for _printf_truncate_unsigned
    _printf_hex_int_ll.o(.text) refers to _printf_hex_int_ll.o(.constdata) for .constdata
    _printf_hex_ptr.o(.text) refers to _printf_intcommon.o(.text) for _printf_int_common
    _printf_hex_ptr.o(.text) refers to _printf_hex_ptr.o(.constdata) for .constdata
    _printf_hex_int_ptr.o(.text) refers to _printf_intcommon.o(.text) for _printf_int_common
    _printf_hex_int_ptr.o(.text) refers (Weak) to _printf_truncate.o(.text) for _printf_truncate_unsigned
    _printf_hex_int_ptr.o(.text) refers to _printf_hex_int_ptr.o(.constdata) for .constdata
    _printf_hex_ll_ptr.o(.text) refers to _printf_intcommon.o(.text) for _printf_int_common
    _printf_hex_ll_ptr.o(.text) refers to _printf_hex_ll_ptr.o(.constdata) for .constdata
    _printf_hex_int_ll_ptr.o(.text) refers to _printf_intcommon.o(.text) for _printf_int_common
    _printf_hex_int_ll_ptr.o(.text) refers (Weak) to _printf_truncate.o(.text) for _printf_truncate_unsigned
    _printf_hex_int_ll_ptr.o(.text) refers to _printf_hex_int_ll_ptr.o(.constdata) for .constdata
    __printf_flags.o(.text) refers to _printf_percent.o(.ARM.Collect$$_printf_percent$$00000000) for _printf_percent
    __printf_flags.o(.text) refers to __printf_flags.o(.constdata) for .constdata
    __printf_ss.o(.text) refers to _printf_percent.o(.ARM.Collect$$_printf_percent$$00000000) for _printf_percent
    __printf_flags_ss.o(.text) refers to _printf_percent.o(.ARM.Collect$$_printf_percent$$00000000) for _printf_percent
    __printf_flags_ss.o(.text) refers to __printf_flags_ss.o(.constdata) for .constdata
    __printf_wp.o(.text) refers to __printf_wp.o(i._is_digit) for _is_digit
    __printf_wp.o(.text) refers to _printf_percent.o(.ARM.Collect$$_printf_percent$$00000000) for _printf_percent
    __printf_flags_wp.o(.text) refers to __printf_wp.o(i._is_digit) for _is_digit
    __printf_flags_wp.o(.text) refers to _printf_percent.o(.ARM.Collect$$_printf_percent$$00000000) for _printf_percent
    __printf_flags_wp.o(.text) refers to __printf_flags_wp.o(.constdata) for .constdata
    __printf_ss_wp.o(.text) refers to __printf_wp.o(i._is_digit) for _is_digit
    __printf_ss_wp.o(.text) refers to _printf_percent.o(.ARM.Collect$$_printf_percent$$00000000) for _printf_percent
    __printf_flags_ss_wp.o(.text) refers to __printf_wp.o(i._is_digit) for _is_digit
    __printf_flags_ss_wp.o(.text) refers to _printf_percent.o(.ARM.Collect$$_printf_percent$$00000000) for _printf_percent
    __printf_flags_ss_wp.o(.text) refers to __printf_flags_ss_wp.o(.constdata) for .constdata
    _printf_c.o(.ARM.Collect$$_printf_percent$$00000013) refers (Weak) to _printf_char.o(.text) for _printf_char
    _printf_x.o(.ARM.Collect$$_printf_percent$$0000000C) refers (Weak) to _printf_hex_int_ll_ptr.o(.text) for _printf_int_hex
    _printf_d.o(.ARM.Collect$$_printf_percent$$00000009) refers (Weak) to _printf_dec.o(.text) for _printf_int_dec
    _printf_g.o(.ARM.Collect$$_printf_percent$$00000005) refers (Weak) to printf1.o(x$fpl$printf1) for _printf_fp_dec
    _printf_percent.o(.ARM.Collect$$_printf_percent$$00000000) refers (Special) to _printf_percent_end.o(.ARM.Collect$$_printf_percent$$00000017) for _printf_percent_end
    sscanf.o(.text) refers (Special) to _scanf_int.o(.text) for _scanf_int
    sscanf.o(.text) refers (Special) to _scanf_longlong.o(.text) for _scanf_longlong
    sscanf.o(.text) refers (Special) to _scanf_mbtowc.o(.text) for _scanf_mbtowc
    sscanf.o(.text) refers (Special) to scanf1.o(x$fpl$scanf1) for _scanf_real
    sscanf.o(.text) refers (Special) to _scanf_str.o(.text) for _scanf_string
    sscanf.o(.text) refers (Special) to _scanf_wctomb.o(.text) for _scanf_wctomb
    sscanf.o(.text) refers (Special) to _scanf_wstr.o(.text) for _scanf_wstring
    sscanf.o(.text) refers to scanf_char.o(.text) for __vfscanf_char
    sscanf.o(.text) refers to _sgetc.o(.text) for _sgetc
    vfscanf.o(.text) refers (Special) to _scanf_int.o(.text) for _scanf_int
    vfscanf.o(.text) refers (Special) to _scanf_longlong.o(.text) for _scanf_longlong
    vfscanf.o(.text) refers (Special) to _scanf_mbtowc.o(.text) for _scanf_mbtowc
    vfscanf.o(.text) refers (Special) to scanf1.o(x$fpl$scanf1) for _scanf_real
    vfscanf.o(.text) refers (Special) to _scanf_str.o(.text) for _scanf_string
    vfscanf.o(.text) refers (Special) to _scanf_wctomb.o(.text) for _scanf_wctomb
    vfscanf.o(.text) refers (Special) to _scanf_wstr.o(.text) for _scanf_wstring
    vfscanf.o(.text) refers to scanf_char_file.o(.text) for __vfscanf_char_file
    strtol.o(.text) refers to rt_ctype_table.o(.text) for __rt_ctype_table
    strtol.o(.text) refers to _strtoul.o(.text) for _strtoul
    strtol.o(.text) refers to rt_errno_addr.o(.text) for __aeabi_errno_addr
    fflush.o(.text) refers to stdio.o(.text) for _fflush
    fflush.o(.text) refers to fseek.o(.text) for _fseek
    fflush.o(.text) refers to stdio_streams.o(.bss) for __stdin
    fgetc.o(i.fgetc) refers to filbuf.o(.text) for __filbuf_byte
    fputc.o(i.fputc) refers to flsbuf.o(.text) for __flsbuf_byte
    fputs.o(.text) refers to fputc.o(i.fputc) for fputc
    putc.o(.text) refers to fputc.o(i.fputc) for fputc
    fopen.o(.text) refers to fclose.o(.text) for _fclose_internal
    fopen.o(.text) refers to stdio.cpp.lpc1768.arm.o(i._sys_open) for _sys_open
    fopen.o(.text) refers to fseek.o(.text) for _fseek
    fopen.o(.text) refers to h1_alloc.o(.text) for malloc
    fopen.o(.text) refers to rt_memclr_w.o(.text) for __aeabi_memclr4
    fopen.o(.text) refers to stdio_streams.o(.bss) for __stdin
    setbuf.o(.text) refers to setvbuf.o(.text) for setvbuf
    stdio_streams.o(.bss) refers (Special) to initio.o(.text) for _initio
    stdio_streams.o(.bss) refers (Special) to initio.o(.text) for _initio
    stdio_streams.o(.bss) refers (Special) to initio.o(.text) for _initio
    stdio_streams.o(.data) refers (Special) to initio.o(.text) for _initio
    stdio_streams.o(.data) refers (Special) to initio.o(.text) for _initio
    stdio_streams.o(.data) refers (Special) to initio.o(.text) for _initio
    fclose.o(.text) refers to stdio.o(.text) for _fflush
    fclose.o(.text) refers to stdio.cpp.lpc1768.arm.o(i._sys_close) for _sys_close
    fclose.o(.text) refers to h1_free.o(.text) for free
    fclose.o(.text) refers to rt_memclr_w.o(.text) for __aeabi_memclr4
    fclose_locked.o(.text) refers to fclose.o(.text) for _fclose_internal
    fclose_locked.o(.text) refers to streamlock.o(.data) for _stream_list_lock
    fflush_locked.o(.text) refers to stdio.o(.text) for _fflush
    fflush_locked.o(.text) refers to fseek.o(.text) for _fseek
    fflush_locked.o(.text) refers to fflush.o(.text) for _do_fflush
    fflush_locked.o(.text) refers to streamlock.o(.data) for _stream_list_lock
    fflush_locked.o(.text) refers to stdio_streams.o(.bss) for __stdin
    fopen_locked.o(.text) refers to fclose.o(.text) for _fclose_internal
    fopen_locked.o(.text) refers to stdio.cpp.lpc1768.arm.o(i._sys_open) for _sys_open
    fopen_locked.o(.text) refers to fseek.o(.text) for _fseek
    fopen_locked.o(.text) refers to h1_alloc.o(.text) for malloc
    fopen_locked.o(.text) refers to rt_memclr_w.o(.text) for __aeabi_memclr4
    fopen_locked.o(.text) refers to streamlock.o(.data) for _stream_list_lock
    fopen_locked.o(.text) refers to stdio_streams.o(.bss) for __stdin
    rand.o(.emb_text) refers (Special) to libinit2.o(.ARM.Collect$$libinit$$00000009) for __rt_lib_init_rand_2
    rand.o(.emb_text) refers to rand.o(.text) for _rand_init
    rand.o(.emb_text) refers to rand.o(.bss) for _random_number_data
    rand.o(.text) refers (Special) to libinit2.o(.ARM.Collect$$libinit$$00000009) for __rt_lib_init_rand_2
    rand.o(.text) refers to rand.o(.bss) for .bss
    rand.o(.bss) refers (Special) to libinit2.o(.ARM.Collect$$libinit$$00000009) for __rt_lib_init_rand_2
    atexit_cpp.o(.text) refers to cxa_atexit.o(i.__cxa_atexit) for __cxa_atexit
    atexit_cpp.o(.ARM.exidx) refers to atexit_cpp.o(.text) for .text
    assert.o(.text) refers to assert_stdio.o(.text) for __assert_puts
    assert.o(.text) refers to abort.o(.text) for abort
    rt_memcpy_v6.o(.text) refers to rt_memcpy_w.o(.text) for __aeabi_memcpy4
    strncpy.o(.text) refers to rt_memclr.o(.text) for __aeabi_memclr
    __main.o(!!!main) refers to rtentry.o(.ARM.Collect$$rtentry$$00000000) for __rt_entry
    init_aeabi.o(.emb_text) refers (Special) to libinit2.o(.ARM.Collect$$libinit$$0000002D) for __rt_lib_init_cpp_2
    init_aeabi.o(.init_array) refers (Special) to libinit2.o(.ARM.Collect$$libinit$$0000002D) for __rt_lib_init_cpp_2
    init_aeabi.o(.dummy_text) refers (Special) to libinit2.o(.ARM.Collect$$libinit$$0000002D) for __rt_lib_init_cpp_2
    init_aeabi.o(.text) refers (Special) to libinit2.o(.ARM.Collect$$libinit$$0000002D) for __rt_lib_init_cpp_2
    init_aeabi.o(.ARM.exidx) refers (Special) to libinit2.o(.ARM.Collect$$libinit$$0000002D) for __rt_lib_init_cpp_2
    init_aeabi.o(.ARM.exidx) refers to init_aeabi.o(.text) for .text
    array_del.o(i._ZdaPv) refers to delete.o(i._ZdlPv) for operator delete (void*)
    array_del.o(.ARM.exidx) refers to array_del.o(i._ZdaPv) for i._ZdaPv
    array_new.o(i._Znaj) refers to new.o(i._Znwj) for operator new(unsigned)
    array_new.o(.ARM.exidx) refers to array_new.o(i._Znaj) for i._Znaj
    array_new.o(.ARM.exidx) refers to unwind_pr0.o(.text) for __aeabi_unwind_cpp_pr0
    array_new.o(.ARM.exidx) refers to array_new.o(.ARM.extab) for .extab._Znaj
    array_new.o(.ARM.extab) refers to arm_callunex_noexceptions.o(.text) for __cxa_call_unexpected
    array_new.o(.ARM.extab) refers to bad_alloc_dtor.o(.constdata__ZTISt9bad_alloc) for typeinfo for std::bad_alloc
    delete.o(i._ZdlPv) refers to h1_free.o(.text) for free
    delete.o(.ARM.exidx) refers to delete.o(i._ZdlPv) for i._ZdlPv
    new.o(i._Znwj) refers to rt_new_handler_addr.o(.text) for __rt_new_handler_addr
    new.o(i._Znwj) refers to h1_alloc.o(.text) for malloc
    new.o(i._Znwj) refers to arm_newhandler_noexceptions.o(.text) for __default_new_handler()
    new.o(.ARM.exidx) refers to new.o(i._Znwj) for i._Znwj
    new.o(.ARM.exidx) refers to unwind_pr0.o(.text) for __aeabi_unwind_cpp_pr0
    new.o(.ARM.exidx) refers to new.o(.ARM.extab) for .extab._Znwj
    new.o(.ARM.extab) refers to arm_callunex_noexceptions.o(.text) for __cxa_call_unexpected
    new.o(.ARM.extab) refers to bad_alloc_dtor.o(.constdata__ZTISt9bad_alloc) for typeinfo for std::bad_alloc
    pure_virt.o(i.__cxa_pure_virtual) refers to defsig_pvfn_outer.o(.text) for __rt_SIGPVFN
    pure_virt.o(.ARM.exidx) refers to pure_virt.o(i.__cxa_pure_virtual) for i.__cxa_pure_virtual
    rtti.o(i._Z12tbc_downcastPvPKSt9type_infoP28a_base_class_traversal_blockPN10__cxxabiv122__base_class_type_infoE) refers to type_info_eq.o(i._ZNKSt9type_infoeqERKS_) for std::type_info::operator ==(const std::type_info&) const
    rtti.o(i._Z17tbc_post_downcastPvPKSt9type_infoP28a_base_class_traversal_blockPN10__cxxabiv122__base_class_type_infoE) refers to type_info_eq.o(i._ZNKSt9type_infoeqERKS_) for std::type_info::operator ==(const std::type_info&) const
    rtti.o(i._Z21traverse_base_classesPvPKSt9type_infoP28a_base_class_traversal_blockPN10__cxxabiv122__base_class_type_infoE) refers to rtti.o(i.__ARM_common_get_typeid) for __ARM_common_get_typeid
    rtti.o(i._Z21traverse_base_classesPvPKSt9type_infoP28a_base_class_traversal_blockPN10__cxxabiv122__base_class_type_infoE) refers to type_info_eq.o(i._ZNKSt9type_infoeqERKS_) for std::type_info::operator ==(const std::type_info&) const
    rtti.o(i._Z21traverse_base_classesPvPKSt9type_infoP28a_base_class_traversal_blockPN10__cxxabiv122__base_class_type_infoE) refers to lib_rtti_impl.o(.constdata__ZTIN10__cxxabiv120__si_class_type_infoE) for typeinfo for __cxxabiv1::__si_class_type_info
    rtti.o(i._Z21traverse_base_classesPvPKSt9type_infoP28a_base_class_traversal_blockPN10__cxxabiv122__base_class_type_infoE) refers to lib_rtti_impl.o(.constdata__ZTIN10__cxxabiv121__vmi_class_type_infoE) for typeinfo for __cxxabiv1::__vmi_class_type_info
    rtti.o(i._Z23find_base_class_at_addrPvS_PKSt9type_infoS2_Pi) refers to rtti.o(i.__ARM_common_get_typeid) for __ARM_common_get_typeid
    rtti.o(i._Z23find_base_class_at_addrPvS_PKSt9type_infoS2_Pi) refers to type_info_eq.o(i._ZNKSt9type_infoeqERKS_) for std::type_info::operator ==(const std::type_info&) const
    rtti.o(i._Z23find_base_class_at_addrPvS_PKSt9type_infoS2_Pi) refers to lib_rtti_impl.o(.constdata__ZTIN10__cxxabiv120__si_class_type_infoE) for typeinfo for __cxxabiv1::__si_class_type_info
    rtti.o(i._Z23find_base_class_at_addrPvS_PKSt9type_infoS2_Pi) refers to lib_rtti_impl.o(.constdata__ZTIN10__cxxabiv121__vmi_class_type_infoE) for typeinfo for __cxxabiv1::__vmi_class_type_info
    rtti.o(i._Z28derived_to_base_conversion_rPvPS_PKSt9type_infoS3_jPiiPS3_P19a_result_virtualityS4_) refers to rtti.o(i.__ARM_common_get_typeid) for __ARM_common_get_typeid
    rtti.o(i._Z28derived_to_base_conversion_rPvPS_PKSt9type_infoS3_jPiiPS3_P19a_result_virtualityS4_) refers to type_info_eq.o(i._ZNKSt9type_infoeqERKS_) for std::type_info::operator ==(const std::type_info&) const
    rtti.o(i._Z28derived_to_base_conversion_rPvPS_PKSt9type_infoS3_jPiiPS3_P19a_result_virtualityS4_) refers to lib_rtti_impl.o(.constdata__ZTIN10__cxxabiv120__si_class_type_infoE) for typeinfo for __cxxabiv1::__si_class_type_info
    rtti.o(i._Z28derived_to_base_conversion_rPvPS_PKSt9type_infoS3_jPiiPS3_P19a_result_virtualityS4_) refers to lib_rtti_impl.o(.constdata__ZTIN10__cxxabiv121__vmi_class_type_infoE) for typeinfo for __cxxabiv1::__vmi_class_type_info
    rtti.o(i.__derived_to_base_conversion) refers to rtti.o(i.__ARM_common_get_typeid) for __ARM_common_get_typeid
    rtti.o(i.__derived_to_base_conversion) refers to type_info_eq.o(i._ZNKSt9type_infoeqERKS_) for std::type_info::operator ==(const std::type_info&) const
    rtti.o(i.__derived_to_base_conversion) refers to rtti.o(i._Z28derived_to_base_conversion_rPvPS_PKSt9type_infoS3_jPiiPS3_P19a_result_virtualityS4_) for derived_to_base_conversion_r(void*, void**, const std::type_info*, const std::type_info*, unsigned, int*, int, const std::type_info**, a_result_virtuality*, int*)
    rtti.o(i.__derived_to_base_conversion) refers to lib_rtti_impl.o(.constdata__ZTIN10__cxxabiv121__vmi_class_type_infoE) for typeinfo for __cxxabiv1::__vmi_class_type_info
    rtti.o(i.__dynamic_cast) refers to rtti.o(i._Z21traverse_base_classesPvPKSt9type_infoP28a_base_class_traversal_blockPN10__cxxabiv122__base_class_type_infoE) for traverse_base_classes(void*, const std::type_info*, a_base_class_traversal_block*, __cxxabiv1::__base_class_type_info*)
    rtti.o(i.__dynamic_cast) refers to rtti.o(i._Z23find_base_class_at_addrPvS_PKSt9type_infoS2_Pi) for find_base_class_at_addr(void*, void*, const std::type_info*, const std::type_info*, int*)
    rtti.o(i.__dynamic_cast) refers to type_info_eq.o(i._ZNKSt9type_infoeqERKS_) for std::type_info::operator ==(const std::type_info&) const
    rtti.o(i.__dynamic_cast) refers to rtti.o(i.__derived_to_base_conversion) for __derived_to_base_conversion
    rtti.o(i.__dynamic_cast) refers to rtti.o(i._Z12tbc_downcastPvPKSt9type_infoP28a_base_class_traversal_blockPN10__cxxabiv122__base_class_type_infoE) for tbc_downcast(void*, const std::type_info*, a_base_class_traversal_block*, __cxxabiv1::__base_class_type_info*)
    rtti.o(i.__dynamic_cast) refers to rtti.o(i._Z17tbc_post_downcastPvPKSt9type_infoP28a_base_class_traversal_blockPN10__cxxabiv122__base_class_type_infoE) for tbc_post_downcast(void*, const std::type_info*, a_base_class_traversal_block*, __cxxabiv1::__base_class_type_info*)
    rtti.o(.ARM.exidx) refers to rtti.o(i._Z21traverse_base_classesPvPKSt9type_infoP28a_base_class_traversal_blockPN10__cxxabiv122__base_class_type_infoE) for i._Z21traverse_base_classesPvPKSt9type_infoP28a_base_class_traversal_blockPN10__cxxabiv122__base_class_type_infoE
    rtti.o(.ARM.exidx) refers to unwind_pr0.o(.text) for __aeabi_unwind_cpp_pr0
    rtti.o(.ARM.exidx) refers to rtti.o(i._Z28derived_to_base_conversion_rPvPS_PKSt9type_infoS3_jPiiPS3_P19a_result_virtualityS4_) for i._Z28derived_to_base_conversion_rPvPS_PKSt9type_infoS3_jPiiPS3_P19a_result_virtualityS4_
    rtti.o(.ARM.exidx) refers to unwind_pr0.o(.text) for __aeabi_unwind_cpp_pr0
    rtti.o(.ARM.exidx) refers to rtti.o(i.__derived_to_base_conversion) for i.__derived_to_base_conversion
    rtti.o(.ARM.exidx) refers to unwind_pr0.o(.text) for __aeabi_unwind_cpp_pr0
    rtti.o(.ARM.exidx) refers to rtti.o(i._Z23find_base_class_at_addrPvS_PKSt9type_infoS2_Pi) for i._Z23find_base_class_at_addrPvS_PKSt9type_infoS2_Pi
    rtti.o(.ARM.exidx) refers to unwind_pr0.o(.text) for __aeabi_unwind_cpp_pr0
    rtti.o(.ARM.exidx) refers to rtti.o(i._Z12tbc_downcastPvPKSt9type_infoP28a_base_class_traversal_blockPN10__cxxabiv122__base_class_type_infoE) for i._Z12tbc_downcastPvPKSt9type_infoP28a_base_class_traversal_blockPN10__cxxabiv122__base_class_type_infoE
    rtti.o(.ARM.exidx) refers to unwind_pr0.o(.text) for __aeabi_unwind_cpp_pr0
    rtti.o(.ARM.exidx) refers to rtti.o(i._Z17tbc_post_downcastPvPKSt9type_infoP28a_base_class_traversal_blockPN10__cxxabiv122__base_class_type_infoE) for i._Z17tbc_post_downcastPvPKSt9type_infoP28a_base_class_traversal_blockPN10__cxxabiv122__base_class_type_infoE
    rtti.o(.ARM.exidx) refers to unwind_pr0.o(.text) for __aeabi_unwind_cpp_pr0
    rtti.o(.ARM.exidx) refers to rtti.o(i.__dynamic_cast) for i.__dynamic_cast
    rtti.o(.ARM.exidx) refers to unwind_pr0.o(.text) for __aeabi_unwind_cpp_pr0
    aeabi_atexit.o(i.__aeabi_atexit) refers (Special) to cxa_finalize.o(i.__cxa_finalize) for __cxa_finalize
    aeabi_atexit.o(i.__aeabi_atexit) refers (Special) to libshutdown2.o(.ARM.Collect$$libshutdown$$00000001) for __rt_lib_shutdown_cpp_1
    aeabi_atexit.o(i.__aeabi_atexit) refers to h1_alloc.o(.text) for malloc
    aeabi_atexit.o(i.__aeabi_atexit) refers to rt_ddtor_pointer_addr.o(.text) for __rt_ddtor_pointer_addr
    aeabi_atexit.o(.ARM.exidx) refers (Special) to cxa_finalize.o(i.__cxa_finalize) for __cxa_finalize
    aeabi_atexit.o(.ARM.exidx) refers (Special) to libshutdown2.o(.ARM.Collect$$libshutdown$$00000001) for __rt_lib_shutdown_cpp_1
    aeabi_atexit.o(.ARM.exidx) refers to aeabi_atexit.o(i.__aeabi_atexit) for i.__aeabi_atexit
    lib_rtti_impl.o(i._ZN10__cxxabiv116__enum_type_infoD0Ev) refers to lib_rtti_impl.o(i._ZN10__cxxabiv116__enum_type_infoD1Ev) for __cxxabiv1::__enum_type_info::~__enum_type_info()
    lib_rtti_impl.o(i._ZN10__cxxabiv116__enum_type_infoD1Ev) refers to type_info_dtor.o(i._ZNSt9type_infoD1Ev) for std::type_info::~type_info()
    lib_rtti_impl.o(i._ZN10__cxxabiv117__array_type_infoD0Ev) refers to lib_rtti_impl.o(i._ZN10__cxxabiv117__array_type_infoD1Ev) for __cxxabiv1::__array_type_info::~__array_type_info()
    lib_rtti_impl.o(i._ZN10__cxxabiv117__array_type_infoD1Ev) refers to type_info_dtor.o(i._ZNSt9type_infoD1Ev) for std::type_info::~type_info()
    lib_rtti_impl.o(i._ZN10__cxxabiv117__class_type_infoD0Ev) refers to lib_rtti_impl.o(i._ZN10__cxxabiv117__class_type_infoD1Ev) for __cxxabiv1::__class_type_info::~__class_type_info()
    lib_rtti_impl.o(i._ZN10__cxxabiv117__class_type_infoD1Ev) refers to type_info_dtor.o(i._ZNSt9type_infoD1Ev) for std::type_info::~type_info()
    lib_rtti_impl.o(i._ZN10__cxxabiv117__pbase_type_infoD0Ev) refers to lib_rtti_impl.o(i._ZN10__cxxabiv117__pbase_type_infoD1Ev) for __cxxabiv1::__pbase_type_info::~__pbase_type_info()
    lib_rtti_impl.o(i._ZN10__cxxabiv117__pbase_type_infoD1Ev) refers to type_info_dtor.o(i._ZNSt9type_infoD1Ev) for std::type_info::~type_info()
    lib_rtti_impl.o(i._ZN10__cxxabiv119__pointer_type_infoD0Ev) refers to lib_rtti_impl.o(i._ZN10__cxxabiv119__pointer_type_infoD1Ev) for __cxxabiv1::__pointer_type_info::~__pointer_type_info()
    lib_rtti_impl.o(i._ZN10__cxxabiv119__pointer_type_infoD1Ev) refers to lib_rtti_impl.o(i._ZN10__cxxabiv117__pbase_type_infoD1Ev) for __cxxabiv1::__pbase_type_info::~__pbase_type_info()
    lib_rtti_impl.o(i._ZN10__cxxabiv120__function_type_infoD0Ev) refers to lib_rtti_impl.o(i._ZN10__cxxabiv120__function_type_infoD1Ev) for __cxxabiv1::__function_type_info::~__function_type_info()
    lib_rtti_impl.o(i._ZN10__cxxabiv120__function_type_infoD1Ev) refers to type_info_dtor.o(i._ZNSt9type_infoD1Ev) for std::type_info::~type_info()
    lib_rtti_impl.o(i._ZN10__cxxabiv120__si_class_type_infoD0Ev) refers to lib_rtti_impl.o(i._ZN10__cxxabiv120__si_class_type_infoD1Ev) for __cxxabiv1::__si_class_type_info::~__si_class_type_info()
    lib_rtti_impl.o(i._ZN10__cxxabiv120__si_class_type_infoD1Ev) refers to lib_rtti_impl.o(i._ZN10__cxxabiv117__class_type_infoD1Ev) for __cxxabiv1::__class_type_info::~__class_type_info()
    lib_rtti_impl.o(i._ZN10__cxxabiv121__vmi_class_type_infoD0Ev) refers to lib_rtti_impl.o(i._ZN10__cxxabiv121__vmi_class_type_infoD1Ev) for __cxxabiv1::__vmi_class_type_info::~__vmi_class_type_info()
    lib_rtti_impl.o(i._ZN10__cxxabiv121__vmi_class_type_infoD1Ev) refers to lib_rtti_impl.o(i._ZN10__cxxabiv117__class_type_infoD1Ev) for __cxxabiv1::__class_type_info::~__class_type_info()
    lib_rtti_impl.o(i._ZN10__cxxabiv123__fundamental_type_infoD0Ev) refers to lib_rtti_impl.o(i._ZN10__cxxabiv123__fundamental_type_infoD1Ev) for __cxxabiv1::__fundamental_type_info::~__fundamental_type_info()
    lib_rtti_impl.o(i._ZN10__cxxabiv123__fundamental_type_infoD1Ev) refers to type_info_dtor.o(i._ZNSt9type_infoD1Ev) for std::type_info::~type_info()
    lib_rtti_impl.o(i._ZN10__cxxabiv129__pointer_to_member_type_infoD0Ev) refers to lib_rtti_impl.o(i._ZN10__cxxabiv129__pointer_to_member_type_infoD1Ev) for __cxxabiv1::__pointer_to_member_type_info::~__pointer_to_member_type_info()
    lib_rtti_impl.o(i._ZN10__cxxabiv129__pointer_to_member_type_infoD1Ev) refers to lib_rtti_impl.o(i._ZN10__cxxabiv117__pbase_type_infoD1Ev) for __cxxabiv1::__pbase_type_info::~__pbase_type_info()
    lib_rtti_impl.o(.ARM.exidx) refers to lib_rtti_impl.o(i._ZN10__cxxabiv123__fundamental_type_infoD1Ev) for i._ZN10__cxxabiv123__fundamental_type_infoD1Ev
    lib_rtti_impl.o(.ARM.exidx) refers to lib_rtti_impl.o(i._ZN10__cxxabiv123__fundamental_type_infoD0Ev) for i._ZN10__cxxabiv123__fundamental_type_infoD0Ev
    lib_rtti_impl.o(.ARM.exidx) refers to lib_rtti_impl.o(i._ZN10__cxxabiv117__array_type_infoD1Ev) for i._ZN10__cxxabiv117__array_type_infoD1Ev
    lib_rtti_impl.o(.ARM.exidx) refers to lib_rtti_impl.o(i._ZN10__cxxabiv117__array_type_infoD0Ev) for i._ZN10__cxxabiv117__array_type_infoD0Ev
    lib_rtti_impl.o(.ARM.exidx) refers to lib_rtti_impl.o(i._ZN10__cxxabiv120__function_type_infoD1Ev) for i._ZN10__cxxabiv120__function_type_infoD1Ev
    lib_rtti_impl.o(.ARM.exidx) refers to lib_rtti_impl.o(i._ZN10__cxxabiv120__function_type_infoD0Ev) for i._ZN10__cxxabiv120__function_type_infoD0Ev
    lib_rtti_impl.o(.ARM.exidx) refers to lib_rtti_impl.o(i._ZN10__cxxabiv116__enum_type_infoD1Ev) for i._ZN10__cxxabiv116__enum_type_infoD1Ev
    lib_rtti_impl.o(.ARM.exidx) refers to lib_rtti_impl.o(i._ZN10__cxxabiv116__enum_type_infoD0Ev) for i._ZN10__cxxabiv116__enum_type_infoD0Ev
    lib_rtti_impl.o(.ARM.exidx) refers to lib_rtti_impl.o(i._ZN10__cxxabiv117__class_type_infoD1Ev) for i._ZN10__cxxabiv117__class_type_infoD1Ev
    lib_rtti_impl.o(.ARM.exidx) refers to lib_rtti_impl.o(i._ZN10__cxxabiv117__class_type_infoD0Ev) for i._ZN10__cxxabiv117__class_type_infoD0Ev
    lib_rtti_impl.o(.ARM.exidx) refers to lib_rtti_impl.o(i._ZN10__cxxabiv120__si_class_type_infoD1Ev) for i._ZN10__cxxabiv120__si_class_type_infoD1Ev
    lib_rtti_impl.o(.ARM.exidx) refers to lib_rtti_impl.o(i._ZN10__cxxabiv120__si_class_type_infoD0Ev) for i._ZN10__cxxabiv120__si_class_type_infoD0Ev
    lib_rtti_impl.o(.ARM.exidx) refers to lib_rtti_impl.o(i._ZN10__cxxabiv121__vmi_class_type_infoD1Ev) for i._ZN10__cxxabiv121__vmi_class_type_infoD1Ev
    lib_rtti_impl.o(.ARM.exidx) refers to lib_rtti_impl.o(i._ZN10__cxxabiv121__vmi_class_type_infoD0Ev) for i._ZN10__cxxabiv121__vmi_class_type_infoD0Ev
    lib_rtti_impl.o(.ARM.exidx) refers to lib_rtti_impl.o(i._ZN10__cxxabiv117__pbase_type_infoD1Ev) for i._ZN10__cxxabiv117__pbase_type_infoD1Ev
    lib_rtti_impl.o(.ARM.exidx) refers to lib_rtti_impl.o(i._ZN10__cxxabiv117__pbase_type_infoD0Ev) for i._ZN10__cxxabiv117__pbase_type_infoD0Ev
    lib_rtti_impl.o(.ARM.exidx) refers to lib_rtti_impl.o(i._ZN10__cxxabiv119__pointer_type_infoD1Ev) for i._ZN10__cxxabiv119__pointer_type_infoD1Ev
    lib_rtti_impl.o(.ARM.exidx) refers to lib_rtti_impl.o(i._ZN10__cxxabiv119__pointer_type_infoD0Ev) for i._ZN10__cxxabiv119__pointer_type_infoD0Ev
    lib_rtti_impl.o(.ARM.exidx) refers to lib_rtti_impl.o(i._ZN10__cxxabiv129__pointer_to_member_type_infoD1Ev) for i._ZN10__cxxabiv129__pointer_to_member_type_infoD1Ev
    lib_rtti_impl.o(.ARM.exidx) refers to lib_rtti_impl.o(i._ZN10__cxxabiv129__pointer_to_member_type_infoD0Ev) for i._ZN10__cxxabiv129__pointer_to_member_type_infoD0Ev
    d2f.o(x$fpl$d2f) refers (Special) to usenofp.o(x$fpl$usenofp) for __I$use$fp
    d2f.o(x$fpl$d2f) refers to fretinf.o(x$fpl$fretinf) for __fpl_fretinf
    d2f.o(x$fpl$d2f) refers to dnaninf.o(x$fpl$dnaninf) for __fpl_dnaninf
    daddsub_clz.o(x$fpl$dadd) refers (Special) to usenofp.o(x$fpl$usenofp) for __I$use$fp
    daddsub_clz.o(x$fpl$dadd) refers to daddsub_clz.o(x$fpl$dsub) for _dsub1
    daddsub_clz.o(x$fpl$dadd) refers to dretinf.o(x$fpl$dretinf) for __fpl_dretinf
    daddsub_clz.o(x$fpl$dadd) refers to dnaninf.o(x$fpl$dnaninf) for __fpl_dnaninf
    daddsub_clz.o(x$fpl$drsb) refers (Special) to usenofp.o(x$fpl$usenofp) for __I$use$fp
    daddsub_clz.o(x$fpl$drsb) refers to daddsub_clz.o(x$fpl$dadd) for _dadd1
    daddsub_clz.o(x$fpl$drsb) refers to daddsub_clz.o(x$fpl$dsub) for _dsub1
    daddsub_clz.o(x$fpl$dsub) refers (Special) to usenofp.o(x$fpl$usenofp) for __I$use$fp
    daddsub_clz.o(x$fpl$dsub) refers to daddsub_clz.o(x$fpl$dadd) for _dadd1
    daddsub_clz.o(x$fpl$dsub) refers to dnaninf.o(x$fpl$dnaninf) for __fpl_dnaninf
    ddiv.o(x$fpl$drdiv) refers (Special) to usenofp.o(x$fpl$usenofp) for __I$use$fp
    ddiv.o(x$fpl$drdiv) refers to ddiv.o(x$fpl$ddiv) for ddiv_entry
    ddiv.o(x$fpl$ddiv) refers (Special) to usenofp.o(x$fpl$usenofp) for __I$use$fp
    ddiv.o(x$fpl$ddiv) refers to dretinf.o(x$fpl$dretinf) for __fpl_dretinf
    ddiv.o(x$fpl$ddiv) refers to dnaninf.o(x$fpl$dnaninf) for __fpl_dnaninf
    dfix.o(x$fpl$dfix) refers (Special) to usenofp.o(x$fpl$usenofp) for __I$use$fp
    dfix.o(x$fpl$dfix) refers to dnaninf.o(x$fpl$dnaninf) for __fpl_dnaninf
    dfix.o(x$fpl$dfixr) refers (Special) to usenofp.o(x$fpl$usenofp) for __I$use$fp
    dfix.o(x$fpl$dfixr) refers to dnaninf.o(x$fpl$dnaninf) for __fpl_dnaninf
    dflt_clz.o(x$fpl$dfltu) refers (Special) to usenofp.o(x$fpl$usenofp) for __I$use$fp
    dflt_clz.o(x$fpl$dflt) refers (Special) to usenofp.o(x$fpl$usenofp) for __I$use$fp
    dflt_clz.o(x$fpl$dfltn) refers (Special) to usenofp.o(x$fpl$usenofp) for __I$use$fp
    dleqf.o(x$fpl$dleqf) refers (Special) to usenofp.o(x$fpl$usenofp) for __I$use$fp
    dleqf.o(x$fpl$dleqf) refers to dnaninf.o(x$fpl$dnaninf) for __fpl_dnaninf
    dleqf.o(x$fpl$dleqf) refers to dcmpi.o(x$fpl$dcmpinf) for __fpl_dcmp_Inf
    dmul.o(x$fpl$dmul) refers (Special) to usenofp.o(x$fpl$usenofp) for __I$use$fp
    dmul.o(x$fpl$dmul) refers to dretinf.o(x$fpl$dretinf) for __fpl_dretinf
    dmul.o(x$fpl$dmul) refers to dnaninf.o(x$fpl$dnaninf) for __fpl_dnaninf
    drleqf.o(x$fpl$drleqf) refers (Special) to usenofp.o(x$fpl$usenofp) for __I$use$fp
    drleqf.o(x$fpl$drleqf) refers to dleqf.o(x$fpl$dleqf) for __fpl_dcmple_InfNaN
    f2d.o(x$fpl$f2d) refers (Special) to usenofp.o(x$fpl$usenofp) for __I$use$fp
    f2d.o(x$fpl$f2d) refers to fnaninf.o(x$fpl$fnaninf) for __fpl_fnaninf
    f2d.o(x$fpl$f2d) refers to dretinf.o(x$fpl$dretinf) for __fpl_dretinf
    faddsub_clz.o(x$fpl$fadd) refers (Special) to usenofp.o(x$fpl$usenofp) for __I$use$fp
    faddsub_clz.o(x$fpl$fadd) refers to faddsub_clz.o(x$fpl$fsub) for _fsub1
    faddsub_clz.o(x$fpl$fadd) refers to fretinf.o(x$fpl$fretinf) for __fpl_fretinf
    faddsub_clz.o(x$fpl$fadd) refers to fnaninf.o(x$fpl$fnaninf) for __fpl_fnaninf
    faddsub_clz.o(x$fpl$frsb) refers (Special) to usenofp.o(x$fpl$usenofp) for __I$use$fp
    faddsub_clz.o(x$fpl$frsb) refers to faddsub_clz.o(x$fpl$fadd) for _fadd1
    faddsub_clz.o(x$fpl$frsb) refers to faddsub_clz.o(x$fpl$fsub) for _fsub1
    faddsub_clz.o(x$fpl$fsub) refers (Special) to usenofp.o(x$fpl$usenofp) for __I$use$fp
    faddsub_clz.o(x$fpl$fsub) refers to faddsub_clz.o(x$fpl$fadd) for _fadd1
    faddsub_clz.o(x$fpl$fsub) refers to fnaninf.o(x$fpl$fnaninf) for __fpl_fnaninf
    fdiv.o(x$fpl$frdiv) refers (Special) to usenofp.o(x$fpl$usenofp) for __I$use$fp
    fdiv.o(x$fpl$frdiv) refers to fdiv.o(x$fpl$fdiv) for _fdiv1
    fdiv.o(x$fpl$fdiv) refers (Special) to usenofp.o(x$fpl$usenofp) for __I$use$fp
    fdiv.o(x$fpl$fdiv) refers to fretinf.o(x$fpl$fretinf) for __fpl_fretinf
    fdiv.o(x$fpl$fdiv) refers to fnaninf.o(x$fpl$fnaninf) for __fpl_fnaninf
    ffix.o(x$fpl$ffix) refers (Special) to usenofp.o(x$fpl$usenofp) for __I$use$fp
    ffix.o(x$fpl$ffix) refers to fnaninf.o(x$fpl$fnaninf) for __fpl_fnaninf
    ffix.o(x$fpl$ffixr) refers (Special) to usenofp.o(x$fpl$usenofp) for __I$use$fp
    ffix.o(x$fpl$ffixr) refers to fnaninf.o(x$fpl$fnaninf) for __fpl_fnaninf
    ffixu.o(x$fpl$ffixu) refers (Special) to usenofp.o(x$fpl$usenofp) for __I$use$fp
    ffixu.o(x$fpl$ffixu) refers to fnaninf.o(x$fpl$fnaninf) for __fpl_fnaninf
    ffixu.o(x$fpl$ffixur) refers (Special) to usenofp.o(x$fpl$usenofp) for __I$use$fp
    ffixu.o(x$fpl$ffixur) refers to fnaninf.o(x$fpl$fnaninf) for __fpl_fnaninf
    fflt_clz.o(x$fpl$ffltu) refers (Special) to usenofp.o(x$fpl$usenofp) for __I$use$fp
    fflt_clz.o(x$fpl$fflt) refers (Special) to usenofp.o(x$fpl$usenofp) for __I$use$fp
    fflt_clz.o(x$fpl$ffltn) refers (Special) to usenofp.o(x$fpl$usenofp) for __I$use$fp
    fmul.o(x$fpl$fmul) refers (Special) to usenofp.o(x$fpl$usenofp) for __I$use$fp
    fmul.o(x$fpl$fmul) refers to fretinf.o(x$fpl$fretinf) for __fpl_fretinf
    fmul.o(x$fpl$fmul) refers to fnaninf.o(x$fpl$fnaninf) for __fpl_fnaninf
    printf1.o(x$fpl$printf1) refers to _printf_fp_dec.o(.text) for _printf_fp_dec_real
    scalbn.o(x$fpl$scalbn) refers (Special) to usenofp.o(x$fpl$usenofp) for __I$use$fp
    scalbn.o(x$fpl$scalbn) refers to dcheck1.o(x$fpl$dcheck1) for __fpl_dcheck_NaN1
    atan.o(i.__softfp_atan) refers (Special) to usenofp.o(x$fpl$usenofp) for __I$use$fp
    atan.o(i.__softfp_atan) refers to atan.o(i.atan) for atan
    atan.o(i.atan) refers (Special) to usenofp.o(x$fpl$usenofp) for __I$use$fp
    atan.o(i.atan) refers to scalbn.o(x$fpl$scalbn) for __ARM_scalbn
    atan.o(i.atan) refers to fpclassify.o(i.__ARM_fpclassify) for __ARM_fpclassify
    atan.o(i.atan) refers to dunder.o(i.__mathlib_dbl_underflow) for __mathlib_dbl_underflow
    atan.o(i.atan) refers to daddsub_clz.o(x$fpl$dadd) for __aeabi_dadd
    atan.o(i.atan) refers to daddsub_clz.o(x$fpl$dsub) for __aeabi_dsub
    atan.o(i.atan) refers to ddiv.o(x$fpl$ddiv) for __aeabi_ddiv
    atan.o(i.atan) refers to dmul.o(x$fpl$dmul) for __aeabi_dmul
    atan.o(i.atan) refers to poly.o(i.__kernel_poly) for __kernel_poly
    atan.o(i.atan) refers to daddsub_clz.o(x$fpl$drsb) for __aeabi_drsub
    atan.o(i.atan) refers to atan.o(.constdata) for .constdata
    atan.o(.constdata) refers (Special) to usenofp.o(x$fpl$usenofp) for __I$use$fp
    atan_x.o(i.____softfp_atan$lsc) refers (Special) to usenofp.o(x$fpl$usenofp) for __I$use$fp
    atan_x.o(i.____softfp_atan$lsc) refers to atan_x.o(i.__atan$lsc) for __atan$lsc
    atan_x.o(i.__atan$lsc) refers (Special) to usenofp.o(x$fpl$usenofp) for __I$use$fp
    atan_x.o(i.__atan$lsc) refers to scalbn.o(x$fpl$scalbn) for __ARM_scalbn
    atan_x.o(i.__atan$lsc) refers to daddsub_clz.o(x$fpl$dadd) for __aeabi_dadd
    atan_x.o(i.__atan$lsc) refers to daddsub_clz.o(x$fpl$dsub) for __aeabi_dsub
    atan_x.o(i.__atan$lsc) refers to ddiv.o(x$fpl$ddiv) for __aeabi_ddiv
    atan_x.o(i.__atan$lsc) refers to dmul.o(x$fpl$dmul) for __aeabi_dmul
    atan_x.o(i.__atan$lsc) refers to poly.o(i.__kernel_poly) for __kernel_poly
    atan_x.o(i.__atan$lsc) refers to daddsub_clz.o(x$fpl$drsb) for __aeabi_drsub
    atan_x.o(i.__atan$lsc) refers to atan_x.o(.constdata) for .constdata
    atan_x.o(.constdata) refers (Special) to usenofp.o(x$fpl$usenofp) for __I$use$fp
    atan2.o(i.__softfp_atan2) refers (Special) to usenofp.o(x$fpl$usenofp) for __I$use$fp
    atan2.o(i.__softfp_atan2) refers to atan2.o(i.atan2) for atan2
    atan2.o(i.atan2) refers (Special) to usenofp.o(x$fpl$usenofp) for __I$use$fp
    atan2.o(i.atan2) refers to daddsub_clz.o(x$fpl$dadd) for __aeabi_dadd
    atan2.o(i.atan2) refers to atan.o(i.atan) for atan
    atan2.o(i.atan2) refers to ddiv.o(x$fpl$ddiv) for __aeabi_ddiv
    atan2.o(i.atan2) refers to daddsub_clz.o(x$fpl$dsub) for __aeabi_dsub
    atan2.o(i.atan2) refers to daddsub_clz.o(x$fpl$drsb) for __aeabi_drsub
    atan2.o(i.atan2) refers to qnan.o(.constdata) for __mathlib_zero
    atan2_x.o(i.____softfp_atan2$lsc) refers (Special) to usenofp.o(x$fpl$usenofp) for __I$use$fp
    atan2_x.o(i.____softfp_atan2$lsc) refers to atan2_x.o(i.__atan2$lsc) for __atan2$lsc
    atan2_x.o(i.__atan2$lsc) refers (Special) to usenofp.o(x$fpl$usenofp) for __I$use$fp
    atan2_x.o(i.__atan2$lsc) refers to daddsub_clz.o(x$fpl$dadd) for __aeabi_dadd
    atan2_x.o(i.__atan2$lsc) refers to atan.o(i.atan) for atan
    atan2_x.o(i.__atan2$lsc) refers to _rserrno.o(.text) for __set_errno
    atan2_x.o(i.__atan2$lsc) refers to ddiv.o(x$fpl$ddiv) for __aeabi_ddiv
    atan2_x.o(i.__atan2$lsc) refers to daddsub_clz.o(x$fpl$dsub) for __aeabi_dsub
    atan2_x.o(i.__atan2$lsc) refers to daddsub_clz.o(x$fpl$drsb) for __aeabi_drsub
    atan2_x.o(i.__atan2$lsc) refers to qnan.o(.constdata) for __mathlib_zero
    cos.o(i.__softfp_cos) refers (Special) to usenofp.o(x$fpl$usenofp) for __I$use$fp
    cos.o(i.__softfp_cos) refers to cos.o(i.cos) for cos
    cos.o(i.cos) refers (Special) to usenofp.o(x$fpl$usenofp) for __I$use$fp
    cos.o(i.cos) refers to _rserrno.o(.text) for __set_errno
    cos.o(i.cos) refers to ddiv.o(x$fpl$ddiv) for __aeabi_ddiv
    cos.o(i.cos) refers to scalbn.o(x$fpl$scalbn) for __ARM_scalbn
    cos.o(i.cos) refers to rred.o(i.__ieee754_rem_pio2) for __ieee754_rem_pio2
    cos.o(i.cos) refers to sin_i.o(i.__kernel_sin) for __kernel_sin
    cos.o(i.cos) refers to cos_i.o(i.__kernel_cos) for __kernel_cos
    cos_x.o(i.____softfp_cos$lsc) refers (Special) to usenofp.o(x$fpl$usenofp) for __I$use$fp
    cos_x.o(i.____softfp_cos$lsc) refers to cos_x.o(i.__cos$lsc) for __cos$lsc
    cos_x.o(i.__cos$lsc) refers (Special) to usenofp.o(x$fpl$usenofp) for __I$use$fp
    cos_x.o(i.__cos$lsc) refers to _rserrno.o(.text) for __set_errno
    cos_x.o(i.__cos$lsc) refers to scalbn.o(x$fpl$scalbn) for __ARM_scalbn
    cos_x.o(i.__cos$lsc) refers to rred.o(i.__ieee754_rem_pio2) for __ieee754_rem_pio2
    cos_x.o(i.__cos$lsc) refers to sin_i.o(i.__kernel_sin) for __kernel_sin
    cos_x.o(i.__cos$lsc) refers to cos_i.o(i.__kernel_cos) for __kernel_cos
    scalbnf.o(i.__softfp_scalbnf) refers (Special) to usenofp.o(x$fpl$usenofp) for __I$use$fp
    scalbnf.o(i.__softfp_scalbnf) refers to scalbnf.o(x$fpl$scalbnf) for __ARM_scalbnf
    scalbnf.o(i.__softfp_scalbnf) refers to _rserrno.o(.text) for __set_errno
    scalbnf.o(i.__softfp_scalbnf) refers to funder.o(i.__mathlib_flt_underflow) for __mathlib_flt_underflow
    scalbnf.o(i.scalbnf) refers (Special) to usenofp.o(x$fpl$usenofp) for __I$use$fp
    scalbnf.o(i.scalbnf) refers to scalbnf.o(x$fpl$scalbnf) for __ARM_scalbnf
    scalbnf.o(i.scalbnf) refers to _rserrno.o(.text) for __set_errno
    scalbnf.o(i.scalbnf) refers to funder.o(i.__mathlib_flt_underflow) for __mathlib_flt_underflow
    scalbnf_x.o(i.____softfp_scalbnf$lsc) refers (Special) to usenofp.o(x$fpl$usenofp) for __I$use$fp
    scalbnf_x.o(i.____softfp_scalbnf$lsc) refers to scalbnf.o(x$fpl$scalbnf) for __ARM_scalbnf
    scalbnf_x.o(i.__scalbnf$lsc) refers (Special) to usenofp.o(x$fpl$usenofp) for __I$use$fp
    scalbnf_x.o(i.__scalbnf$lsc) refers to scalbnf.o(x$fpl$scalbnf) for __ARM_scalbnf
    sin.o(i.__softfp_sin) refers (Special) to usenofp.o(x$fpl$usenofp) for __I$use$fp
    sin.o(i.__softfp_sin) refers to sin.o(i.sin) for sin
    sin.o(i.sin) refers (Special) to usenofp.o(x$fpl$usenofp) for __I$use$fp
    sin.o(i.sin) refers to _rserrno.o(.text) for __set_errno
    sin.o(i.sin) refers to ddiv.o(x$fpl$ddiv) for __aeabi_ddiv
    sin.o(i.sin) refers to scalbn.o(x$fpl$scalbn) for __ARM_scalbn
    sin.o(i.sin) refers to rred.o(i.__ieee754_rem_pio2) for __ieee754_rem_pio2
    sin.o(i.sin) refers to cos_i.o(i.__kernel_cos) for __kernel_cos
    sin.o(i.sin) refers to sin_i.o(i.__kernel_sin) for __kernel_sin
    sin_x.o(i.____softfp_sin$lsc) refers (Special) to usenofp.o(x$fpl$usenofp) for __I$use$fp
    sin_x.o(i.____softfp_sin$lsc) refers to sin_x.o(i.__sin$lsc) for __sin$lsc
    sin_x.o(i.__sin$lsc) refers (Special) to usenofp.o(x$fpl$usenofp) for __I$use$fp
    sin_x.o(i.__sin$lsc) refers to _rserrno.o(.text) for __set_errno
    sin_x.o(i.__sin$lsc) refers to scalbn.o(x$fpl$scalbn) for __ARM_scalbn
    sin_x.o(i.__sin$lsc) refers to rred.o(i.__ieee754_rem_pio2) for __ieee754_rem_pio2
    sin_x.o(i.__sin$lsc) refers to cos_i.o(i.__kernel_cos) for __kernel_cos
    sin_x.o(i.__sin$lsc) refers to sin_i.o(i.__kernel_sin) for __kernel_sin
    sqrt.o(i.__softfp_sqrt) refers (Special) to usenofp.o(x$fpl$usenofp) for __I$use$fp
    sqrt.o(i.__softfp_sqrt) refers to dsqrt_noumaal.o(x$fpl$dsqrt) for _dsqrt
    sqrt.o(i.__softfp_sqrt) refers to _rserrno.o(.text) for __set_errno
    sqrt.o(i.sqrt) refers (Special) to usenofp.o(x$fpl$usenofp) for __I$use$fp
    sqrt.o(i.sqrt) refers to dsqrt_noumaal.o(x$fpl$dsqrt) for _dsqrt
    sqrt.o(i.sqrt) refers to _rserrno.o(.text) for __set_errno
    sqrt_x.o(i.____softfp_sqrt$lsc) refers (Special) to usenofp.o(x$fpl$usenofp) for __I$use$fp
    sqrt_x.o(i.____softfp_sqrt$lsc) refers to dleqf.o(x$fpl$dleqf) for __aeabi_cdcmple
    sqrt_x.o(i.____softfp_sqrt$lsc) refers to _rserrno.o(.text) for __set_errno
    sqrt_x.o(i.____softfp_sqrt$lsc) refers to dsqrt_noumaal.o(x$fpl$dsqrt) for _dsqrt
    sqrt_x.o(i.__sqrt$lsc) refers (Special) to usenofp.o(x$fpl$usenofp) for __I$use$fp
    sqrt_x.o(i.__sqrt$lsc) refers to dleqf.o(x$fpl$dleqf) for __aeabi_cdcmple
    sqrt_x.o(i.__sqrt$lsc) refers to _rserrno.o(.text) for __set_errno
    sqrt_x.o(i.__sqrt$lsc) refers to dsqrt_noumaal.o(x$fpl$dsqrt) for _dsqrt
    strtof.o(i.__softfp_strtof) refers (Special) to usenofp.o(x$fpl$usenofp) for __I$use$fp
    strtof.o(i.__softfp_strtof) refers to strtod.o(.text) for __strtod_int
    strtof.o(i.__softfp_strtof) refers to d2f.o(x$fpl$d2f) for __aeabi_d2f
    strtof.o(i.strtof) refers (Special) to usenofp.o(x$fpl$usenofp) for __I$use$fp
    strtof.o(i.strtof) refers to strtod.o(.text) for __strtod_int
    strtof.o(i.strtof) refers to d2f.o(x$fpl$d2f) for __aeabi_d2f
    rtentry.o(.ARM.Collect$$rtentry$$00000000) refers (Special) to rtentry2.o(.ARM.Collect$$rtentry$$0000000A) for __rt_entry_li
    rtentry.o(.ARM.Collect$$rtentry$$00000000) refers (Special) to rtentry2.o(.ARM.Collect$$rtentry$$0000000D) for __rt_entry_main
    rtentry.o(.ARM.Collect$$rtentry$$00000000) refers (Special) to rtentry2.o(.ARM.Collect$$rtentry$$0000000C) for __rt_entry_postli_1
    rtentry.o(.ARM.Collect$$rtentry$$00000000) refers (Special) to rtentry2.o(.ARM.Collect$$rtentry$$00000009) for __rt_entry_postsh_1
    rtentry.o(.ARM.Collect$$rtentry$$00000000) refers (Special) to rtentry2.o(.ARM.Collect$$rtentry$$00000002) for __rt_entry_presh_1
    rtentry.o(.ARM.Collect$$rtentry$$00000000) refers (Special) to rtentry4.o(.ARM.Collect$$rtentry$$00000004) for __rt_entry_sh
    rt_ctype_table.o(.text) refers to rt_locale.o(.text) for __rt_locale
    rt_ctype_table.o(.text) refers to lc_ctype_c.o(locale$$code) for _get_lc_ctype
    aeabi_ldiv0_sigfpe.o(.text) refers to rt_div0.o(.text) for __rt_div0
    rt_new_handler_addr.o(.text) refers to rt_new_handler_addr.o(.bss) for __rt_new_handler_addr_data
    rt_new_handler_addr_intlibspace.o(.text) refers to libspace.o(.bss) for __libspace_start
    rt_ddtor_pointer_addr.o(.text) refers to rt_ddtor_pointer_addr.o(.bss) for __rt_ddtor_pointer_addr_data
    rt_ddtor_pointer_addr_intlibspace.o(.text) refers to libspace.o(.bss) for __libspace_start
    rt_errno_addr.o(.text) refers to rt_errno_addr.o(.bss) for __aeabi_errno_addr_data
    rt_errno_addr_intlibspace.o(.text) refers to libspace.o(.bss) for __libspace_start
    malloc.o(.text) refers (Special) to hguard.o(.text) for __heap$guard
    malloc.o(.text) refers (Special) to init_alloc.o(.text) for _init_alloc
    malloc.o(.text) refers to rt_heap_descriptor.o(.text) for __rt_heap_descriptor
    malloc.o(.text) refers to heapstubs.o(.text) for __Heap_Alloc
    free.o(.text) refers (Special) to hguard.o(.text) for __heap$guard
    free.o(.text) refers to rt_heap_descriptor.o(.text) for __rt_heap_descriptor
    free.o(.text) refers to heapstubs.o(.text) for __Heap_Free
    h1_alloc.o(.text) refers (Special) to h1_init.o(.text) for __Heap_Initialize
    h1_alloc.o(.text) refers to rt_heap_descriptor.o(.text) for __rt_heap_descriptor
    h1_alloc.o(.text) refers to init_alloc.o(.text) for __Heap_Full
    h1_free.o(.text) refers to rt_heap_descriptor.o(.text) for __rt_heap_descriptor
    h1_alloc_mt.o(.text) refers (Special) to h1_init.o(.text) for __Heap_Initialize
    h1_alloc_mt.o(.text) refers to init_alloc.o(.text) for __Heap_Full
    h1_alloc_mt.o(.text) refers to rt_heap_descriptor.o(.text) for __rt_heap_descriptor
    h1_free_mt.o(.text) refers to rt_heap_descriptor.o(.text) for __rt_heap_descriptor
    heap2.o(i._FDIterate) refers to heap2.o(.constdata) for .constdata
    heap2.o(i.___Heap_ProvideMemory$realtime) refers to fdtree.o(i._FDTree_Delete) for _FDTree_Delete
    heap2.o(i.___Heap_ProvideMemory$realtime) refers to fdtree.o(i._FDTree_Insert) for _FDTree_Insert
    heap2.o(i.___Heap_Stats$realtime) refers to heap2.o(i._Heap2_StatsIterate) for _Heap2_StatsIterate
    heap2.o(i.___Heap_Valid$realtime) refers to heap2.o(i._FDIterate) for _FDIterate
    heap2.o(i.___Heap_Valid$realtime) refers to heap2.o(.constdata) for .constdata
    heap2.o(i._free$realtime) refers to rt_heap_descriptor.o(.text) for __rt_heap_descriptor
    heap2.o(i._free$realtime) refers to fdtree.o(i._FDTree_Delete) for _FDTree_Delete
    heap2.o(i._free$realtime) refers to fdtree.o(i._FDTree_Insert) for _FDTree_Insert
    heap2.o(i._malloc$realtime) refers to rt_heap_descriptor.o(.text) for __rt_heap_descriptor
    heap2.o(i._malloc$realtime) refers to fdtree.o(i._FDTree_FindFirst) for _FDTree_FindFirst
    heap2.o(i._malloc$realtime) refers to init_alloc.o(.text) for __Heap_Full
    heap2.o(i._malloc$realtime) refers to fdtree.o(i._FDTree_RemoveNode) for _FDTree_RemoveNode
    heap2.o(i._malloc$realtime) refers to fdtree.o(i._FDTree_Insert) for _FDTree_Insert
    heap2.o(i._posix_memalign$realtime) refers to rt_heap_descriptor.o(.text) for __rt_heap_descriptor
    heap2.o(i._posix_memalign$realtime) refers to fdtree.o(i._FDTree_FindFirst) for _FDTree_FindFirst
    heap2.o(i._posix_memalign$realtime) refers to init_alloc.o(.text) for __Heap_Full
    heap2.o(i._posix_memalign$realtime) refers to fdtree.o(i._FDTree_RemoveNode) for _FDTree_RemoveNode
    heap2.o(i._posix_memalign$realtime) refers to fdtree.o(i._FDTree_Insert) for _FDTree_Insert
    heap2.o(i._realloc$realtime) refers to rt_heap_descriptor.o(.text) for __rt_heap_descriptor
    heap2.o(i._realloc$realtime) refers to h1_free.o(.text) for free
    heap2.o(i._realloc$realtime) refers to h1_alloc.o(.text) for malloc
    heap2.o(i._realloc$realtime) refers to fdtree.o(i._FDTree_Delete) for _FDTree_Delete
    heap2.o(i._realloc$realtime) refers to fdtree.o(i._FDTree_Insert) for _FDTree_Insert
    heap2.o(i._realloc$realtime) refers to rt_memcpy_w.o(.text) for __aeabi_memcpy4
    heap2mt.o(i._FDIterate) refers to heap2mt.o(.constdata) for .constdata
    heap2mt.o(i.___Heap_Initialize$realtime$concurrent) refers to mutex_dummy.o(.text) for _mutex_initialize
    heap2mt.o(i.___Heap_ProvideMemory$realtime$concurrent) refers to fdtree.o(i._FDTree_Delete) for _FDTree_Delete
    heap2mt.o(i.___Heap_ProvideMemory$realtime$concurrent) refers to fdtree.o(i._FDTree_Insert) for _FDTree_Insert
    heap2mt.o(i.___Heap_Stats$realtime$concurrent) refers to heap2mt.o(i._Heap2_StatsIterate) for _Heap2_StatsIterate
    heap2mt.o(i.___Heap_Valid$realtime$concurrent) refers to heap2mt.o(i._FDIterate) for _FDIterate
    heap2mt.o(i.___Heap_Valid$realtime$concurrent) refers to heap2mt.o(.constdata) for .constdata
    heap2mt.o(i._free$realtime$concurrent) refers to rt_heap_descriptor.o(.text) for __rt_heap_descriptor
    heap2mt.o(i._free$realtime$concurrent) refers to fdtree.o(i._FDTree_Delete) for _FDTree_Delete
    heap2mt.o(i._free$realtime$concurrent) refers to fdtree.o(i._FDTree_Insert) for _FDTree_Insert
    heap2mt.o(i._malloc$realtime$concurrent) refers to rt_heap_descriptor.o(.text) for __rt_heap_descriptor
    heap2mt.o(i._malloc$realtime$concurrent) refers to fdtree.o(i._FDTree_FindFirst) for _FDTree_FindFirst
    heap2mt.o(i._malloc$realtime$concurrent) refers to init_alloc.o(.text) for __Heap_Full
    heap2mt.o(i._malloc$realtime$concurrent) refers to fdtree.o(i._FDTree_RemoveNode) for _FDTree_RemoveNode
    heap2mt.o(i._malloc$realtime$concurrent) refers to fdtree.o(i._FDTree_Insert) for _FDTree_Insert
    heap2mt.o(i._posix_memalign$realtime$concurrent) refers to rt_heap_descriptor.o(.text) for __rt_heap_descriptor
    heap2mt.o(i._posix_memalign$realtime$concurrent) refers to fdtree.o(i._FDTree_FindFirst) for _FDTree_FindFirst
    heap2mt.o(i._posix_memalign$realtime$concurrent) refers to init_alloc.o(.text) for __Heap_Full
    heap2mt.o(i._posix_memalign$realtime$concurrent) refers to fdtree.o(i._FDTree_RemoveNode) for _FDTree_RemoveNode
    heap2mt.o(i._posix_memalign$realtime$concurrent) refers to fdtree.o(i._FDTree_Insert) for _FDTree_Insert
    heap2mt.o(i._realloc$realtime$concurrent) refers to rt_heap_descriptor.o(.text) for __rt_heap_descriptor
    heap2mt.o(i._realloc$realtime$concurrent) refers to h1_free.o(.text) for free
    heap2mt.o(i._realloc$realtime$concurrent) refers to h1_alloc.o(.text) for malloc
    heap2mt.o(i._realloc$realtime$concurrent) refers to fdtree.o(i._FDTree_Delete) for _FDTree_Delete
    heap2mt.o(i._realloc$realtime$concurrent) refers to fdtree.o(i._FDTree_Insert) for _FDTree_Insert
    heap2mt.o(i._realloc$realtime$concurrent) refers to rt_memcpy_w.o(.text) for __aeabi_memcpy4
    _rserrno.o(.text) refers to rt_errno_addr.o(.text) for __aeabi_errno_addr
    _printf_intcommon.o(.text) refers (Weak) to _printf_pad.o(.text) for _printf_pre_padding
    _printf_intcommon.o(.text) refers (Weak) to _printf_pad.o(.text) for _printf_pre_padding
    _printf_intcommon.o(.text) refers (Weak) to _printf_pad.o(.text) for _printf_post_padding
    _printf_fp_dec.o(.text) refers (Special) to usenofp.o(x$fpl$usenofp) for __I$use$fp
    _printf_fp_dec.o(.text) refers (Special) to lc_numeric_c.o(locale$$code) for _get_lc_numeric
    _printf_fp_dec.o(.text) refers to bigflt0.o(.text) for _btod_etento
    _printf_fp_dec.o(.text) refers to btod.o(CL$$btod_d2e) for _btod_d2e
    _printf_fp_dec.o(.text) refers to btod.o(CL$$btod_ediv) for _btod_ediv
    _printf_fp_dec.o(.text) refers to btod.o(CL$$btod_emul) for _btod_emul
    _printf_fp_dec.o(.text) refers to lludiv10.o(.text) for _ll_udiv10
    _printf_fp_dec.o(.text) refers to fpclassify.o(i.__ARM_fpclassify) for __ARM_fpclassify
    _printf_fp_dec.o(.text) refers to _printf_fp_infnan.o(.text) for _printf_fp_infnan
    _printf_fp_dec.o(.text) refers (Weak) to _printf_pad.o(.text) for _printf_pre_padding
    _printf_fp_dec.o(.text) refers (Weak) to _printf_pad.o(.text) for _printf_pre_padding
    _printf_fp_dec.o(.text) refers to rt_locale.o(.text) for __rt_locale
    _printf_fp_dec.o(.text) refers (Weak) to _printf_pad.o(.text) for _printf_post_padding
    _printf_char_common.o(.text) refers to __printf_flags_ss_wp.o(.text) for __printf
    _printf_char.o(.text) refers (Weak) to _printf_str.o(.text) for _printf_str
    _printf_char_file.o(.text) refers to _printf_char_common.o(.text) for _printf_char_common
    _printf_char_file.o(.text) refers to ferror.o(.text) for ferror
    _printf_char_file.o(.text) refers to fputc.o(i.fputc) for fputc
    _printf_wctomb.o(.text) refers (Special) to _printf_wchar.o(.text) for _printf_lcs_common
    _printf_wctomb.o(.text) refers to _wcrtomb.o(.text) for _wcrtomb
    _printf_wctomb.o(.text) refers (Weak) to _printf_pad.o(.text) for _printf_pre_padding
    _printf_wctomb.o(.text) refers (Weak) to _printf_pad.o(.text) for _printf_post_padding
    _printf_wctomb.o(.text) refers to _printf_wctomb.o(.constdata) for .constdata
    _printf_wctomb.o(.constdata) refers (Special) to _printf_wchar.o(.text) for _printf_lcs_common
    _printf_longlong_dec.o(.text) refers to lludiv10.o(.text) for _ll_udiv10
    _printf_longlong_dec.o(.text) refers to _printf_intcommon.o(.text) for _printf_int_common
    _printf_oct_ll.o(.text) refers to _printf_intcommon.o(.text) for _printf_int_common
    _printf_oct_int.o(.text) refers (Weak) to _printf_truncate.o(.text) for _printf_truncate_unsigned
    _printf_oct_int.o(.text) refers to _printf_intcommon.o(.text) for _printf_int_common
    _printf_oct_int_ll.o(.text) refers to _printf_intcommon.o(.text) for _printf_int_common
    _printf_oct_int_ll.o(.text) refers (Weak) to _printf_truncate.o(.text) for _printf_truncate_unsigned
    _printf_s.o(.ARM.Collect$$_printf_percent$$00000014) refers (Weak) to _printf_char.o(.text) for _printf_string
    _printf_n.o(.ARM.Collect$$_printf_percent$$00000001) refers (Weak) to _printf_charcount.o(.text) for _printf_charcount
    _printf_p.o(.ARM.Collect$$_printf_percent$$00000002) refers (Weak) to _printf_hex_int_ll_ptr.o(.text) for _printf_hex_ptr
    _printf_o.o(.ARM.Collect$$_printf_percent$$0000000B) refers (Weak) to _printf_oct_int_ll.o(.text) for _printf_int_oct
    _printf_i.o(.ARM.Collect$$_printf_percent$$00000008) refers (Weak) to _printf_dec.o(.text) for _printf_int_dec
    _printf_u.o(.ARM.Collect$$_printf_percent$$0000000A) refers (Weak) to _printf_dec.o(.text) for _printf_int_dec
    _printf_f.o(.ARM.Collect$$_printf_percent$$00000003) refers (Weak) to printf1.o(x$fpl$printf1) for _printf_fp_dec
    _printf_e.o(.ARM.Collect$$_printf_percent$$00000004) refers (Weak) to printf1.o(x$fpl$printf1) for _printf_fp_dec
    _printf_a.o(.ARM.Collect$$_printf_percent$$00000006) refers (Weak) to printf2.o(x$fpl$printf2) for _printf_fp_hex
    _printf_lli.o(.ARM.Collect$$_printf_percent$$0000000D) refers (Special) to _printf_ll.o(.ARM.Collect$$_printf_percent$$00000007) for _printf_ll
    _printf_lli.o(.ARM.Collect$$_printf_percent$$0000000D) refers (Weak) to _printf_longlong_dec.o(.text) for _printf_longlong_dec
    _printf_lld.o(.ARM.Collect$$_printf_percent$$0000000E) refers (Special) to _printf_ll.o(.ARM.Collect$$_printf_percent$$00000007) for _printf_ll
    _printf_lld.o(.ARM.Collect$$_printf_percent$$0000000E) refers (Weak) to _printf_longlong_dec.o(.text) for _printf_longlong_dec
    _printf_llu.o(.ARM.Collect$$_printf_percent$$0000000F) refers (Special) to _printf_ll.o(.ARM.Collect$$_printf_percent$$00000007) for _printf_ll
    _printf_llu.o(.ARM.Collect$$_printf_percent$$0000000F) refers (Weak) to _printf_longlong_dec.o(.text) for _printf_longlong_dec
    _printf_lc.o(.ARM.Collect$$_printf_percent$$00000015) refers (Special) to _printf_l.o(.ARM.Collect$$_printf_percent$$00000012) for _printf_l
    _printf_lc.o(.ARM.Collect$$_printf_percent$$00000015) refers (Weak) to _printf_wchar.o(.text) for _printf_wchar
    _printf_ls.o(.ARM.Collect$$_printf_percent$$00000016) refers (Special) to _printf_l.o(.ARM.Collect$$_printf_percent$$00000012) for _printf_l
    _printf_ls.o(.ARM.Collect$$_printf_percent$$00000016) refers (Weak) to _printf_wchar.o(.text) for _printf_wstring
    _printf_llo.o(.ARM.Collect$$_printf_percent$$00000010) refers (Special) to _printf_ll.o(.ARM.Collect$$_printf_percent$$00000007) for _printf_ll
    _printf_llo.o(.ARM.Collect$$_printf_percent$$00000010) refers (Weak) to _printf_oct_int_ll.o(.text) for _printf_ll_oct
    _printf_llx.o(.ARM.Collect$$_printf_percent$$00000011) refers (Special) to _printf_ll.o(.ARM.Collect$$_printf_percent$$00000007) for _printf_ll
    _printf_llx.o(.ARM.Collect$$_printf_percent$$00000011) refers (Weak) to _printf_hex_int_ll_ptr.o(.text) for _printf_ll_hex
    _scanf_longlong.o(.text) refers to _chval.o(.text) for _chval
    _scanf_int.o(.text) refers to _chval.o(.text) for _chval
    scanf_char.o(.text) refers to _scanf.o(.text) for __vfscanf
    scanf_char.o(.text) refers to isspace.o(.text) for isspace
    scanf_char_file.o(.text) refers to scanf_char.o(.text) for __vfscanf_char
    scanf_char_file.o(.text) refers to fgetc.o(i.fgetc) for fgetc
    scanf_char_file.o(.text) refers to backspace.o(.text) for __backspace
    _strtoul.o(.text) refers to _chval.o(.text) for _chval
    _strtoul.o(.text) refers to rt_errno_addr.o(.text) for __aeabi_errno_addr
    strtod.o(.text) refers (Special) to lc_numeric_c.o(locale$$code) for _get_lc_numeric
    strtod.o(.text) refers to scanf1.o(x$fpl$scanf1) for _scanf_real
    strtod.o(.text) refers to _sgetc.o(.text) for _sgetc
    strtod.o(.text) refers to isspace.o(.text) for isspace
    _scanf_mbtowc.o(.text) refers to _mbrtowc.o(.text) for _mbrtowc
    _scanf_wctomb.o(.text) refers to _wcrtomb.o(.text) for _wcrtomb
    _scanf_wctomb.o(.text) refers to _scanf_wcharmap.o(.text) for _scanf_wcharmap
    _scanf_wstr.o(.text) refers to _scanf_wcharmap.o(.text) for _scanf_wcharmap
    filbuf.o(.text) refers to stdio.cpp.lpc1768.arm.o(i._sys_read) for _sys_read
    filbuf.o(.text) refers to stdio.o(.text) for _seterr
    filbuf.o(.text) refers to h1_alloc.o(.text) for malloc
    filbuf.o(.text) refers to stdio.cpp.lpc1768.arm.o(i._sys_seek) for _sys_seek
    filbuf.o(.text) refers to flushlinebuffered.o(.text) for _flushlinebuffered
    flsbuf.o(.text) refers to stdio.o(.text) for _deferredlazyseek
    flsbuf.o(.text) refers to stdio.cpp.lpc1768.arm.o(i._sys_flen) for _sys_flen
    flsbuf.o(.text) refers to stdio.cpp.lpc1768.arm.o(i._sys_istty) for _sys_istty
    flsbuf.o(.text) refers to h1_alloc.o(.text) for malloc
    fseek.o(.text) refers to stdio.cpp.lpc1768.arm.o(i._sys_istty) for _sys_istty
    fseek.o(.text) refers to ftell.o(.text) for _ftell_internal
    fseek.o(.text) refers to stdio.cpp.lpc1768.arm.o(i._sys_flen) for _sys_flen
    fseek.o(.text) refers to stdio.o(.text) for _seterr
    stdio.o(.text) refers to stdio.cpp.lpc1768.arm.o(i._sys_seek) for _sys_seek
    stdio.o(.text) refers to stdio.cpp.lpc1768.arm.o(i._sys_write) for _sys_write
    streamlock.o(.data) refers (Special) to initio.o(.text) for _initio
    initio.o(.text) refers (Special) to libinit2.o(.ARM.Collect$$libinit$$00000020) for __rt_lib_init_stdio_2
    initio.o(.text) refers (Special) to libshutdown2.o(.ARM.Collect$$libshutdown$$00000003) for __rt_lib_shutdown_stdio_2
    initio.o(.text) refers to rt_memclr_w.o(.text) for __aeabi_memclr4
    initio.o(.text) refers to fopen.o(.text) for freopen
    initio.o(.text) refers to defsig_rtred_outer.o(.text) for __rt_SIGRTRED
    initio.o(.text) refers to setvbuf.o(.text) for setvbuf
    initio.o(.text) refers to fclose.o(.text) for _fclose_internal
    initio.o(.text) refers to h1_free.o(.text) for free
    initio.o(.text) refers to stdio_streams.o(.bss) for __stdin
    initio.o(.text) refers to stdio_streams.o(.bss) for __stdout
    initio.o(.text) refers to stdio_streams.o(.bss) for __stderr
    initio.o(.text) refers to stdio_streams.o(.data) for __aeabi_stdin
    initio.o(.text) refers to stdio_streams.o(.data) for __aeabi_stdout
    initio.o(.text) refers to stdio_streams.o(.data) for __aeabi_stderr
    initio.o(.text) refers to stdio.cpp.lpc1768.arm.o(.constdata) for __stdin_name
    initio_locked.o(.text) refers (Special) to libinit2.o(.ARM.Collect$$libinit$$00000020) for __rt_lib_init_stdio_2
    initio_locked.o(.text) refers (Special) to libshutdown2.o(.ARM.Collect$$libshutdown$$00000003) for __rt_lib_shutdown_stdio_2
    initio_locked.o(.text) refers to rt_memclr_w.o(.text) for __aeabi_memclr4
    initio_locked.o(.text) refers to fopen.o(.text) for freopen
    initio_locked.o(.text) refers to defsig_rtred_outer.o(.text) for __rt_SIGRTRED
    initio_locked.o(.text) refers to setvbuf.o(.text) for setvbuf
    initio_locked.o(.text) refers to fclose.o(.text) for _fclose_internal
    initio_locked.o(.text) refers to h1_free.o(.text) for free
    initio_locked.o(.text) refers to stdio_streams.o(.bss) for __stdin
    initio_locked.o(.text) refers to stdio_streams.o(.bss) for __stdout
    initio_locked.o(.text) refers to stdio_streams.o(.bss) for __stderr
    initio_locked.o(.text) refers to stdio_streams.o(.data) for __aeabi_stdin
    initio_locked.o(.text) refers to stdio_streams.o(.data) for __aeabi_stdout
    initio_locked.o(.text) refers to stdio_streams.o(.data) for __aeabi_stderr
    initio_locked.o(.text) refers to streamlock.o(.data) for _stream_list_lock
    initio_locked.o(.text) refers to stdio.cpp.lpc1768.arm.o(.constdata) for __stdin_name
    abort.o(.text) refers to defsig_abrt_outer.o(.text) for __rt_SIGABRT
    abort.o(.text) refers to sys_exit.o(.text) for _sys_exit
    defsig_pvfn_outer.o(.text) refers to defsig_pvfn_inner.o(.text) for __rt_SIGPVFN_inner
    defsig_pvfn_outer.o(.text) refers to defsig_exit.o(.text) for __sig_exit
    defsig_pvfn_formal.o(.text) refers to rt_raise.o(.text) for __rt_raise
    assert_puts.o(.text) refers to sys_wrch.o(.text) for _ttywrch
    rt_memclr.o(.text) refers to rt_memclr_w.o(.text) for _memset_w
    libinit2.o(.ARM.Collect$$libinit$$00000001) refers (Weak) to init_alloc.o(.text) for _init_alloc
    libinit2.o(.ARM.Collect$$libinit$$00000009) refers (Weak) to rand.o(.text) for _rand_init
    libinit2.o(.ARM.Collect$$libinit$$0000000B) refers (Weak) to rt_locale.o(.text) for __rt_locale
    libinit2.o(.ARM.Collect$$libinit$$0000000C) refers to libinit2.o(.ARM.Collect$$libinit$$0000000B) for .ARM.Collect$$libinit$$0000000B
    libinit2.o(.ARM.Collect$$libinit$$0000000E) refers to libinit2.o(.ARM.Collect$$libinit$$0000000B) for .ARM.Collect$$libinit$$0000000B
    libinit2.o(.ARM.Collect$$libinit$$0000000E) refers (Weak) to lc_ctype_c.o(locale$$code) for _get_lc_ctype
    libinit2.o(.ARM.Collect$$libinit$$00000010) refers to libinit2.o(.ARM.Collect$$libinit$$0000000B) for .ARM.Collect$$libinit$$0000000B
    libinit2.o(.ARM.Collect$$libinit$$00000012) refers to libinit2.o(.ARM.Collect$$libinit$$0000000B) for .ARM.Collect$$libinit$$0000000B
    libinit2.o(.ARM.Collect$$libinit$$00000012) refers (Weak) to lc_numeric_c.o(locale$$code) for _get_lc_numeric
    libinit2.o(.ARM.Collect$$libinit$$00000014) refers to libinit2.o(.ARM.Collect$$libinit$$0000000B) for .ARM.Collect$$libinit$$0000000B
    libinit2.o(.ARM.Collect$$libinit$$00000020) refers (Weak) to initio.o(.text) for _initio
    libinit2.o(.ARM.Collect$$libinit$$00000022) refers to argv_veneer.o(.emb_text) for __ARM_argv_veneer
    libinit2.o(.ARM.Collect$$libinit$$00000023) refers to argv_veneer.o(.emb_text) for __ARM_argv_veneer
    libinit2.o(.ARM.Collect$$libinit$$0000002D) refers (Weak) to init_aeabi.o(.text) for __cpp_initialize__aeabi_
    libshutdown2.o(.ARM.Collect$$libshutdown$$00000001) refers (Weak) to cxa_finalize.o(i.__cxa_finalize) for __cxa_finalize
    libshutdown2.o(.ARM.Collect$$libshutdown$$00000002) refers (Weak) to initio.o(.text) for _terminateio
    libshutdown2.o(.ARM.Collect$$libshutdown$$0000000C) refers (Weak) to term_alloc.o(.text) for _terminate_alloc
    unwind_pr0.o(.text) refers to unwind_prcommon.o(.text) for __ARM_unwind_cpp_prcommon
    filbuf_fwide.o(.text) refers to filbuf.o(.text) for __filbuf
    flsbuf_fwide.o(.text) refers to flsbuf.o(.text) for __flsbuf
    arm_bad_typeid_noexceptions.o(.text) refers to arm_exceptions_terminate.o(.text) for std::terminate()
    arm_bad_typeid_noexceptions.o(.ARM.exidx) refers to arm_bad_typeid_noexceptions.o(.text) for .text
    arm_callunex_noexceptions.o(.ARM.exidx) refers to arm_callunex_noexceptions.o(.text) for .text
    arm_newhandler_noexceptions.o(.text) refers to arm_exceptions_terminate.o(.text) for std::terminate()
    arm_newhandler_noexceptions.o(.ARM.exidx) refers to arm_newhandler_noexceptions.o(.text) for .text
    bad_alloc_dtor.o(i._ZNSt9bad_allocD0Ev) refers to bad_alloc_dtor.o(i._ZNSt9bad_allocD1Ev) for std::bad_alloc::~bad_alloc()
    bad_alloc_dtor.o(i._ZNSt9bad_allocD0Ev) refers to delete.o(i._ZdlPv) for operator delete (void*)
    bad_alloc_dtor.o(.ARM.exidx) refers to bad_alloc_dtor.o(i._ZNSt9bad_allocD1Ev) for i._ZNSt9bad_allocD1Ev
    bad_alloc_dtor.o(.ARM.exidx) refers to bad_alloc_dtor.o(i._ZNSt9bad_allocD0Ev) for i._ZNSt9bad_allocD0Ev
    cxa_atexit.o(i.__cxa_atexit) refers (Special) to libshutdown2.o(.ARM.Collect$$libshutdown$$00000001) for __rt_lib_shutdown_cpp_1
    cxa_atexit.o(i.__cxa_atexit) refers to aeabi_atexit.o(i.__aeabi_atexit) for __aeabi_atexit
    cxa_atexit.o(.ARM.exidx) refers (Special) to libshutdown2.o(.ARM.Collect$$libshutdown$$00000001) for __rt_lib_shutdown_cpp_1
    cxa_atexit.o(.ARM.exidx) refers to cxa_atexit.o(i.__cxa_atexit) for i.__cxa_atexit
    cxa_finalize.o(i.__cxa_finalize) refers (Special) to libshutdown2.o(.ARM.Collect$$libshutdown$$00000001) for __rt_lib_shutdown_cpp_1
    cxa_finalize.o(i.__cxa_finalize) refers to rt_ddtor_pointer_addr.o(.text) for __rt_ddtor_pointer_addr
    cxa_finalize.o(i.__cxa_finalize) refers to h1_free.o(.text) for free
    cxa_finalize.o(.ARM.exidx) refers (Special) to libshutdown2.o(.ARM.Collect$$libshutdown$$00000001) for __rt_lib_shutdown_cpp_1
    cxa_finalize.o(.ARM.exidx) refers to cxa_finalize.o(i.__cxa_finalize) for i.__cxa_finalize
    type_info_dtor.o(.ARM.exidx) refers to type_info_dtor.o(i._ZNSt9type_infoD1Ev) for i._ZNSt9type_infoD1Ev
    type_info_dtor.o(.ARM.exidx) refers to type_info_dtor.o(i._ZNSt9type_infoD0Ev) for i._ZNSt9type_infoD0Ev
    type_info_eq.o(.ARM.exidx) refers to type_info_eq.o(i._ZNKSt9type_infoeqERKS_) for i._ZNKSt9type_infoeqERKS_
    dcheck1.o(x$fpl$dcheck1) refers (Special) to usenofp.o(x$fpl$usenofp) for __I$use$fp
    dcheck1.o(x$fpl$dcheck1) refers to retnan.o(x$fpl$retnan) for __fpl_return_NaN
    dcmpi.o(x$fpl$dcmpinf) refers (Special) to usenofp.o(x$fpl$usenofp) for __I$use$fp
    dnaninf.o(x$fpl$dnaninf) refers (Special) to usenofp.o(x$fpl$usenofp) for __I$use$fp
    dretinf.o(x$fpl$dretinf) refers (Special) to usenofp.o(x$fpl$usenofp) for __I$use$fp
    dsqrt_noumaal.o(x$fpl$dsqrt) refers (Special) to usenofp.o(x$fpl$usenofp) for __I$use$fp
    dsqrt_noumaal.o(x$fpl$dsqrt) refers to dnaninf.o(x$fpl$dnaninf) for __fpl_dnaninf
    fnaninf.o(x$fpl$fnaninf) refers (Special) to usenofp.o(x$fpl$usenofp) for __I$use$fp
    fretinf.o(x$fpl$fretinf) refers (Special) to usenofp.o(x$fpl$usenofp) for __I$use$fp
    istatus.o(x$fpl$ieeestatus) refers (Special) to usenofp.o(x$fpl$usenofp) for __I$use$fp
    printf2.o(x$fpl$printf2) refers to _printf_fp_hex.o(.text) for _printf_fp_hex_real
    printf2b.o(x$fpl$printf2) refers to _printf_fp_hex.o(.text) for _printf_fp_hex_real
    scalbnf.o(x$fpl$scalbnf) refers (Special) to usenofp.o(x$fpl$usenofp) for __I$use$fp
    scalbnf.o(x$fpl$scalbnf) refers to fcheck1.o(x$fpl$fcheck1) for __fpl_fcheck_NaN1
    scanf1.o(x$fpl$scanf1) refers to scanf_fp.o(.text) for _scanf_really_real
    cos_i.o(i.__kernel_cos) refers (Special) to usenofp.o(x$fpl$usenofp) for __I$use$fp
    cos_i.o(i.__kernel_cos) refers to dfix.o(x$fpl$dfix) for __aeabi_d2iz
    cos_i.o(i.__kernel_cos) refers to dmul.o(x$fpl$dmul) for __aeabi_dmul
    cos_i.o(i.__kernel_cos) refers to poly.o(i.__kernel_poly) for __kernel_poly
    cos_i.o(i.__kernel_cos) refers to daddsub_clz.o(x$fpl$dsub) for __aeabi_dsub
    cos_i.o(i.__kernel_cos) refers to scalbn.o(x$fpl$scalbn) for __ARM_scalbn
    cos_i.o(i.__kernel_cos) refers to daddsub_clz.o(x$fpl$drsb) for __aeabi_drsub
    cos_i.o(i.__kernel_cos) refers to cos_i.o(.constdata) for .constdata
    cos_i.o(.constdata) refers (Special) to usenofp.o(x$fpl$usenofp) for __I$use$fp
    dunder.o(i.__mathlib_dbl_underflow) refers to scalbn.o(x$fpl$scalbn) for __ARM_scalbn
    fpclassify.o(i.__ARM_fpclassify) refers (Special) to usenofp.o(x$fpl$usenofp) for __I$use$fp
    funder.o(i.__mathlib_flt_underflow) refers to scalbnf.o(x$fpl$scalbnf) for __ARM_scalbnf
    poly.o(i.__kernel_poly) refers (Special) to usenofp.o(x$fpl$usenofp) for __I$use$fp
    poly.o(i.__kernel_poly) refers to dmul.o(x$fpl$dmul) for __aeabi_dmul
    poly.o(i.__kernel_poly) refers to daddsub_clz.o(x$fpl$dadd) for __aeabi_dadd
    qnan.o(.constdata) refers (Special) to usenofp.o(x$fpl$usenofp) for __I$use$fp
    rred.o(i.__ieee754_rem_pio2) refers (Special) to usenofp.o(x$fpl$usenofp) for __I$use$fp
    rred.o(i.__ieee754_rem_pio2) refers to daddsub_clz.o(x$fpl$dsub) for __aeabi_dsub
    rred.o(i.__ieee754_rem_pio2) refers to daddsub_clz.o(x$fpl$dadd) for __aeabi_dadd
    rred.o(i.__ieee754_rem_pio2) refers to dmul.o(x$fpl$dmul) for __aeabi_dmul
    rred.o(i.__ieee754_rem_pio2) refers to dfix.o(x$fpl$dfix) for __aeabi_d2iz
    rred.o(i.__ieee754_rem_pio2) refers to dflt_clz.o(x$fpl$dflt) for __aeabi_i2d
    rred.o(i.__ieee754_rem_pio2) refers to daddsub_clz.o(x$fpl$drsb) for __aeabi_drsub
    rred.o(i.__ieee754_rem_pio2) refers to dflt_clz.o(x$fpl$dfltu) for __aeabi_ui2d
    rred.o(i.__ieee754_rem_pio2) refers to scalbn.o(x$fpl$scalbn) for __ARM_scalbn
    rred.o(i.__ieee754_rem_pio2) refers to rred.o(.constdata) for .constdata
    rred.o(i.__use_accurate_range_reduction) refers (Special) to usenofp.o(x$fpl$usenofp) for __I$use$fp
    rred.o(.constdata) refers (Special) to usenofp.o(x$fpl$usenofp) for __I$use$fp
    sin_i.o(i.__kernel_sin) refers (Special) to usenofp.o(x$fpl$usenofp) for __I$use$fp
    sin_i.o(i.__kernel_sin) refers to fpclassify.o(i.__ARM_fpclassify) for __ARM_fpclassify
    sin_i.o(i.__kernel_sin) refers to dunder.o(i.__mathlib_dbl_underflow) for __mathlib_dbl_underflow
    sin_i.o(i.__kernel_sin) refers to dmul.o(x$fpl$dmul) for __aeabi_dmul
    sin_i.o(i.__kernel_sin) refers to poly.o(i.__kernel_poly) for __kernel_poly
    sin_i.o(i.__kernel_sin) refers to scalbn.o(x$fpl$scalbn) for __ARM_scalbn
    sin_i.o(i.__kernel_sin) refers to daddsub_clz.o(x$fpl$dsub) for __aeabi_dsub
    sin_i.o(i.__kernel_sin) refers to daddsub_clz.o(x$fpl$drsb) for __aeabi_drsub
    sin_i.o(i.__kernel_sin) refers to daddsub_clz.o(x$fpl$dadd) for __aeabi_dadd
    sin_i.o(i.__kernel_sin) refers to sin_i.o(.constdata) for .constdata
    sin_i.o(.constdata) refers (Special) to usenofp.o(x$fpl$usenofp) for __I$use$fp
    sin_i_x.o(i.____kernel_sin$lsc) refers (Special) to usenofp.o(x$fpl$usenofp) for __I$use$fp
    sin_i_x.o(i.____kernel_sin$lsc) refers to dmul.o(x$fpl$dmul) for __aeabi_dmul
    sin_i_x.o(i.____kernel_sin$lsc) refers to poly.o(i.__kernel_poly) for __kernel_poly
    sin_i_x.o(i.____kernel_sin$lsc) refers to scalbn.o(x$fpl$scalbn) for __ARM_scalbn
    sin_i_x.o(i.____kernel_sin$lsc) refers to daddsub_clz.o(x$fpl$dsub) for __aeabi_dsub
    sin_i_x.o(i.____kernel_sin$lsc) refers to daddsub_clz.o(x$fpl$drsb) for __aeabi_drsub
    sin_i_x.o(i.____kernel_sin$lsc) refers to daddsub_clz.o(x$fpl$dadd) for __aeabi_dadd
    sin_i_x.o(i.____kernel_sin$lsc) refers to sin_i_x.o(.constdata) for .constdata
    sin_i_x.o(.constdata) refers (Special) to usenofp.o(x$fpl$usenofp) for __I$use$fp
    sys_wrch.o(.text) refers (Special) to use_no_semi.o(.text) for __I$use$semihosting
    sys_wrch.o(.text) refers (Special) to indicate_semi.o(.text) for __semihosting_library_function
    sys_exit.o(.text) refers (Special) to use_no_semi.o(.text) for __I$use$semihosting
    sys_exit.o(.text) refers (Special) to indicate_semi.o(.text) for __semihosting_library_function
    libspace.o(.text) refers to libspace.o(.bss) for __libspace_start
    rtentry2.o(.ARM.Collect$$rtentry$$00000008) refers to boardinit2.o(.text) for _platform_post_stackheap_init
    rtentry2.o(.ARM.Collect$$rtentry$$0000000A) refers to libinit.o(.ARM.Collect$$libinit$$00000000) for __rt_lib_init
    rtentry2.o(.ARM.Collect$$rtentry$$0000000B) refers to boardinit3.o(.text) for _platform_post_lib_init
    rtentry2.o(.ARM.Collect$$rtentry$$0000000D) refers to main.o(i.main) for main
    rtentry2.o(.ARM.Collect$$rtentry$$0000000D) refers to exit.c.lpc1768.arm.o(i.exit) for exit
    rtentry2.o(.ARM.exidx) refers to rtentry2.o(.ARM.Collect$$rtentry$$00000001) for .ARM.Collect$$rtentry$$00000001
    rtentry2.o(.ARM.exidx) refers to rtentry2.o(.ARM.Collect$$rtentry$$00000008) for .ARM.Collect$$rtentry$$00000008
    rtentry2.o(.ARM.exidx) refers to rtentry2.o(.ARM.Collect$$rtentry$$0000000A) for .ARM.Collect$$rtentry$$0000000A
    rtentry2.o(.ARM.exidx) refers to rtentry2.o(.ARM.Collect$$rtentry$$0000000B) for .ARM.Collect$$rtentry$$0000000B
    rtentry2.o(.ARM.exidx) refers to rtentry2.o(.ARM.Collect$$rtentry$$0000000D) for .ARM.Collect$$rtentry$$0000000D
    rtentry4.o(.ARM.Collect$$rtentry$$00000004) refers to stackheap.o(i.__user_setup_stackheap) for __user_setup_stackheap
    rtentry4.o(.ARM.exidx) refers to rtentry4.o(.ARM.Collect$$rtentry$$00000004) for .ARM.Collect$$rtentry$$00000004
    rt_div0.o(.text) refers to defsig_fpe_outer.o(.text) for __rt_SIGFPE
    rt_raise.o(.text) refers to __raise.o(.text) for __raise
    rt_raise.o(.text) refers to sys_exit.o(.text) for _sys_exit
    rt_heap_descriptor.o(.text) refers to rt_heap_descriptor.o(.bss) for __rt_heap_descriptor_data
    rt_heap_descriptor_intlibspace.o(.text) refers to libspace.o(.bss) for __libspace_start
    rt_locale.o(.text) refers to rt_locale.o(.bss) for __rt_locale_data
    rt_locale_intlibspace.o(.text) refers to libspace.o(.bss) for __libspace_start
    init_alloc.o(.text) refers (Special) to hguard.o(.text) for __heap$guard
    init_alloc.o(.text) refers (Special) to libinit2.o(.ARM.Collect$$libinit$$00000001) for __rt_lib_init_heap_2
    init_alloc.o(.text) refers (Special) to maybetermalloc1.o(.emb_text) for _maybe_terminate_alloc
    init_alloc.o(.text) refers to heapauxa.o(.text) for __rt_heap_expand
    init_alloc.o(.text) refers to h1_extend.o(.text) for __Heap_ProvideMemory
    init_alloc.o(.text) refers to defsig_rtmem_outer.o(.text) for __rt_SIGRTMEM
    init_alloc.o(.text) refers to rt_heap_descriptor.o(.text) for __rt_heap_descriptor
    init_alloc.o(.text) refers to h1_init.o(.text) for __Heap_Initialize
    h1_init_mt.o(.text) refers to mutex_dummy.o(.text) for _mutex_initialize
    isspace.o(.text) refers to rt_ctype_table.o(.text) for __rt_ctype_table
    _printf_fp_hex.o(.text) refers (Special) to usenofp.o(x$fpl$usenofp) for __I$use$fp
    _printf_fp_hex.o(.text) refers to fpclassify.o(i.__ARM_fpclassify) for __ARM_fpclassify
    _printf_fp_hex.o(.text) refers to _printf_fp_infnan.o(.text) for _printf_fp_infnan
    _printf_fp_hex.o(.text) refers (Weak) to _printf_pad.o(.text) for _printf_pre_padding
    _printf_fp_hex.o(.text) refers (Weak) to _printf_pad.o(.text) for _printf_pre_padding
    _printf_fp_hex.o(.text) refers (Weak) to _printf_pad.o(.text) for _printf_post_padding
    _printf_fp_hex.o(.text) refers to _printf_fp_hex.o(.constdata) for .constdata
    _printf_fp_hex.o(.constdata) refers (Special) to usenofp.o(x$fpl$usenofp) for __I$use$fp
    _printf_fp_infnan.o(.text) refers (Weak) to _printf_pad.o(.text) for _printf_pre_padding
    _printf_fp_infnan.o(.text) refers (Weak) to _printf_pad.o(.text) for _printf_post_padding
    _printf_char_file_locked.o(.text) refers to _printf_char_common.o(.text) for _printf_char_common
    _printf_char_file_locked.o(.text) refers to fputc.o(i._fputc$unlocked) for _fputc$unlocked
    _printf_wchar.o(.text) refers (Weak) to _printf_wctomb.o(.text) for _printf_wctomb
    _scanf.o(.text) refers (Weak) to scanf1.o(x$fpl$scanf1) for _scanf_real
    _scanf.o(.text) refers (Weak) to _scanf_longlong.o(.text) for _scanf_longlong
    _scanf.o(.text) refers (Weak) to _scanf_int.o(.text) for _scanf_int
    _scanf.o(.text) refers (Weak) to _scanf_wstr.o(.text) for _scanf_wstring
    _scanf.o(.text) refers (Weak) to _scanf_mbtowc.o(.text) for _scanf_mbtowc
    _scanf.o(.text) refers (Weak) to _scanf_str.o(.text) for _scanf_string
    _scanf.o(.text) refers (Weak) to _scanf_wctomb.o(.text) for _scanf_wctomb
    scanf_fp.o(.text) refers (Special) to usenofp.o(x$fpl$usenofp) for __I$use$fp
    scanf_fp.o(.text) refers (Special) to lc_numeric_c.o(locale$$code) for _get_lc_numeric
    scanf_fp.o(.text) refers to rt_errno_addr.o(.text) for __aeabi_errno_addr
    scanf_fp.o(.text) refers to bigflt0.o(.text) for _btod_etento
    scanf_fp.o(.text) refers to btod.o(CL$$btod_emuld) for _btod_emuld
    scanf_fp.o(.text) refers to btod.o(CL$$btod_edivd) for _btod_edivd
    scanf_fp.o(.text) refers to rt_locale.o(.text) for __rt_locale
    scanf_fp.o(.text) refers to scanf2.o(x$fpl$scanf2) for _scanf_infnan
    scanf_fp.o(.text) refers to __printf_wp.o(i._is_digit) for _is_digit
    scanf_fp.o(.text) refers to narrow.o(i.__mathlib_narrow) for __mathlib_narrow
    scanf_fp.o(.text) refers to fpconst.o(c$$dinf) for __huge_val
    scanf_char_file_locked.o(.text) refers to scanf_char.o(.text) for __vfscanf_char
    scanf_char_file_locked.o(.text) refers to fgetc.o(i._fgetc$unlocked) for _fgetc$unlocked
    scanf_char_file_locked.o(.text) refers to backspace.o(.text) for ___backspace$unlocked
    bigflt0.o(.text) refers (Special) to usenofp.o(x$fpl$usenofp) for __I$use$fp
    bigflt0.o(.text) refers to btod.o(CL$$btod_emul) for _btod_emul
    bigflt0.o(.text) refers to btod.o(CL$$btod_ediv) for _btod_ediv
    bigflt0.o(.text) refers to bigflt0.o(.constdata) for .constdata
    bigflt0.o(.constdata) refers (Special) to usenofp.o(x$fpl$usenofp) for __I$use$fp
    btod.o(CL$$btod_d2e) refers (Special) to usenofp.o(x$fpl$usenofp) for __I$use$fp
    btod.o(CL$$btod_d2e) refers to btod.o(CL$$btod_d2e_norm_op1) for _d2e_norm_op1
    btod.o(CL$$btod_d2e_norm_op1) refers (Special) to usenofp.o(x$fpl$usenofp) for __I$use$fp
    btod.o(CL$$btod_d2e_norm_op1) refers to btod.o(CL$$btod_d2e_denorm_low) for _d2e_denorm_low
    btod.o(CL$$btod_d2e_denorm_low) refers (Special) to usenofp.o(x$fpl$usenofp) for __I$use$fp
    btod.o(CL$$btod_emul) refers (Special) to usenofp.o(x$fpl$usenofp) for __I$use$fp
    btod.o(CL$$btod_emul) refers to btod.o(CL$$btod_mult_common) for __btod_mult_common
    btod.o(CL$$btod_emul) refers to btod.o(CL$$btod_e2e) for _e2e
    btod.o(CL$$btod_ediv) refers (Special) to usenofp.o(x$fpl$usenofp) for __I$use$fp
    btod.o(CL$$btod_ediv) refers to btod.o(CL$$btod_div_common) for __btod_div_common
    btod.o(CL$$btod_ediv) refers to btod.o(CL$$btod_e2e) for _e2e
    btod.o(CL$$btod_emuld) refers (Special) to usenofp.o(x$fpl$usenofp) for __I$use$fp
    btod.o(CL$$btod_emuld) refers to btod.o(CL$$btod_mult_common) for __btod_mult_common
    btod.o(CL$$btod_emuld) refers to btod.o(CL$$btod_e2d) for _e2d
    btod.o(CL$$btod_edivd) refers (Special) to usenofp.o(x$fpl$usenofp) for __I$use$fp
    btod.o(CL$$btod_edivd) refers to btod.o(CL$$btod_div_common) for __btod_div_common
    btod.o(CL$$btod_edivd) refers to btod.o(CL$$btod_e2d) for _e2d
    btod.o(CL$$btod_e2e) refers (Special) to usenofp.o(x$fpl$usenofp) for __I$use$fp
    btod.o(CL$$btod_e2d) refers (Special) to usenofp.o(x$fpl$usenofp) for __I$use$fp
    btod.o(CL$$btod_e2d) refers to btod.o(CL$$btod_e2e) for _e2e
    btod.o(CL$$btod_mult_common) refers (Special) to usenofp.o(x$fpl$usenofp) for __I$use$fp
    btod.o(CL$$btod_div_common) refers (Special) to usenofp.o(x$fpl$usenofp) for __I$use$fp
    backspace.o(.text) refers to ungetc.o(.text) for _ungetc_internal
    ftell.o(.text) refers to rt_errno_addr.o(.text) for __aeabi_errno_addr
    freadfast.o(.text) refers to filbuf.o(.text) for _readbuf
    freadfast.o(.text) refers to rt_memcpy_v6.o(.text) for __aeabi_memcpy
    fread_bytes_avail.o(.text) refers to filbuf.o(.text) for __filbuf_byte
    fread_bytes_avail.o(.text) refers to rt_memcpy_v6.o(.text) for __aeabi_memcpy
    fwritefast.o(.text) refers to stdio.o(.text) for _writebuf
    fwritefast.o(.text) refers to flsbuf.o(.text) for __flsbuf_byte
    fwritefast.o(.text) refers to rt_memcpy_v6.o(.text) for __aeabi_memcpy
    flushlinebuffered.o(.text) refers to fflush.o(.text) for _do_fflush
    flushlinebuffered.o(.text) refers to stdio_streams.o(.bss) for __stdin
    freadfast_locked.o(.text) refers to filbuf.o(.text) for _readbuf
    freadfast_locked.o(.text) refers to rt_memcpy_v6.o(.text) for __aeabi_memcpy
    fread_bytes_avail_locked.o(.text) refers to filbuf.o(.text) for __filbuf_byte
    fread_bytes_avail_locked.o(.text) refers to rt_memcpy_v6.o(.text) for __aeabi_memcpy
    fwritefast_locked.o(.text) refers to stdio.o(.text) for _writebuf
    fwritefast_locked.o(.text) refers to flsbuf.o(.text) for __flsbuf_byte
    fwritefast_locked.o(.text) refers to rt_memcpy_v6.o(.text) for __aeabi_memcpy
    flushlinebuffered_locked.o(.text) refers to fflush.o(.text) for _do_fflush
    flushlinebuffered_locked.o(.text) refers to streamlock.o(.data) for _stream_list_lock
    flushlinebuffered_locked.o(.text) refers to stdio_streams.o(.bss) for __stdin
    _mbrtowc.o(.text) refers to rt_ctype_table.o(.text) for __rt_ctype_table
    _wcrtomb.o(.text) refers to rt_ctype_table.o(.text) for __rt_ctype_table
    lc_ctype_c.o(locale$$data) refers (Special) to libinit2.o(.ARM.Collect$$libinit$$0000000E) for __rt_lib_init_lc_ctype_2
    lc_ctype_c.o(locale$$code) refers (Special) to libinit2.o(.ARM.Collect$$libinit$$0000000E) for __rt_lib_init_lc_ctype_2
    lc_ctype_c.o(locale$$code) refers to strcmpv7m.o(.text) for strcmp
    lc_ctype_c.o(locale$$code) refers to lc_ctype_c.o(locale$$data) for __lcctype_c_name
    lc_numeric_c.o(locale$$data) refers (Special) to libinit2.o(.ARM.Collect$$libinit$$00000012) for __rt_lib_init_lc_numeric_2
    lc_numeric_c.o(locale$$code) refers (Special) to libinit2.o(.ARM.Collect$$libinit$$00000012) for __rt_lib_init_lc_numeric_2
    lc_numeric_c.o(locale$$code) refers to strcmpv7m.o(.text) for strcmp
    lc_numeric_c.o(locale$$code) refers to lc_numeric_c.o(locale$$data) for __lcnum_c_name
    defsig_exit.o(.text) refers to sys_exit.o(.text) for _sys_exit
    defsig_abrt_outer.o(.text) refers to defsig_abrt_inner.o(.text) for __rt_SIGABRT_inner
    defsig_abrt_outer.o(.text) refers to defsig_exit.o(.text) for __sig_exit
    defsig_abrt_formal.o(.text) refers to rt_raise.o(.text) for __rt_raise
    defsig_rtred_outer.o(.text) refers to defsig_rtred_inner.o(.text) for __rt_SIGRTRED_inner
    defsig_rtred_outer.o(.text) refers to defsig_exit.o(.text) for __sig_exit
    defsig_rtred_formal.o(.text) refers to rt_raise.o(.text) for __rt_raise
    defsig_pvfn_inner.o(.text) refers to defsig_general.o(.text) for __default_signal_display
    assert_stdio.o(.text) refers to fputs.o(.text) for fputs
    assert_stdio.o(.text) refers to fflush.o(.text) for fflush
    assert_stdio.o(.text) refers to stdio_streams.o(.bss) for __stderr
    _get_argv.o(.text) refers (Special) to hrguard.o(.text) for __heap_region$guard
    _get_argv.o(.text) refers to h1_alloc.o(.text) for malloc
    _get_argv.o(.text) refers to defsig_rtmem_outer.o(.text) for __rt_SIGRTMEM
    _get_argv.o(.text) refers to stdio.cpp.lpc1768.arm.o(i._sys_command_string) for _sys_command_string
    argv_veneer.o(.emb_text) refers to no_argv.o(.text) for __ARM_get_argv
    unwind_prcommon.o(.text) refers to unwinder.o(.text) for _Unwind_VRS_Get
    unwind_prcommon.o(.text) refers to unwind_activity.o(.emb_text) for _Unwind_Activity
    unwind_prcommon.o(.text) refers (Weak) to arm_callunex_noexceptions.o(.text) for __cxa_call_unexpected
    unwind_prcommon.o(.text) refers (Weak) to arm_callunex_noexceptions.o(.text) for __cxa_call_unexpected
    arm_exceptions_terminate.o(.text) refers to arm_exceptions_globs.o(.text) for __cxa_get_globals
    arm_exceptions_terminate.o(.text) refers to abort.o(.text) for abort
    arm_exceptions_terminate.o(.ARM.exidx) refers to arm_exceptions_terminate.o(.text) for .text
    bad_alloc_what.o(.ARM.exidx) refers to bad_alloc_what.o(i._ZNKSt9bad_alloc4whatEv) for i._ZNKSt9bad_alloc4whatEv
    exception_dtor.o(i._ZNSt9exceptionD0Ev) refers to delete.o(i._ZdlPv) for operator delete (void*)
    exception_dtor.o(.ARM.exidx) refers to exception_dtor.o(i._ZNSt9exceptionD1Ev) for i._ZNSt9exceptionD1Ev
    exception_dtor.o(.ARM.exidx) refers to exception_dtor.o(i._ZNSt9exceptionD0Ev) for i._ZNSt9exceptionD0Ev
    type_info_name.o(.ARM.exidx) refers to type_info_name.o(i._ZNKSt9type_info4nameEv) for i._ZNKSt9type_info4nameEv
    fcheck1.o(x$fpl$fcheck1) refers (Special) to usenofp.o(x$fpl$usenofp) for __I$use$fp
    fcheck1.o(x$fpl$fcheck1) refers to retnan.o(x$fpl$retnan) for __fpl_return_NaN
    retnan.o(x$fpl$retnan) refers (Special) to usenofp.o(x$fpl$usenofp) for __I$use$fp
    retnan.o(x$fpl$retnan) refers to trapv.o(x$fpl$trapveneer) for __fpl_cmpreturn
    maybetermalloc2.o(.emb_text) refers (Special) to term_alloc.o(.text) for _terminate_alloc
    h1_extend.o(.text) refers to h1_free.o(.text) for free
    h1_extend_mt.o(.text) refers to h1_free_mt.o(.text) for _free_internal
    __raise.o(.text) refers to defsig.o(CL$$defsig) for __default_signal_handler
    defsig_general.o(.text) refers to sys_wrch.o(.text) for _ttywrch
    defsig_abrt_inner.o(.text) refers to defsig_general.o(.text) for __default_signal_display
    defsig_fpe_outer.o(.text) refers to defsig_fpe_inner.o(.text) for __rt_SIGFPE_inner
    defsig_fpe_outer.o(.text) refers to defsig_exit.o(.text) for __sig_exit
    defsig_fpe_formal.o(.text) refers to rt_raise.o(.text) for __rt_raise
    defsig_rtred_inner.o(.text) refers to defsig_general.o(.text) for __default_signal_display
    defsig_rtmem_outer.o(.text) refers to defsig_rtmem_inner.o(.text) for __rt_SIGRTMEM_inner
    defsig_rtmem_outer.o(.text) refers to defsig_exit.o(.text) for __sig_exit
    defsig_rtmem_formal.o(.text) refers to rt_raise.o(.text) for __rt_raise
    heapauxa.o(.text) refers to heapauxa.o(.data) for .data
    _get_argv_nomalloc.o(.text) refers (Special) to hrguard.o(.text) for __heap_region$guard
    _get_argv_nomalloc.o(.text) refers to defsig_rtmem_outer.o(.text) for __rt_SIGRTMEM
    _get_argv_nomalloc.o(.text) refers to stdio.cpp.lpc1768.arm.o(i._sys_command_string) for _sys_command_string
    libinit.o(.ARM.Collect$$libinit$$00000000) refers (Special) to libinit2.o(.ARM.Collect$$libinit$$0000002A) for __rt_lib_init_alloca_1
    libinit.o(.ARM.Collect$$libinit$$00000000) refers (Special) to libinit2.o(.ARM.Collect$$libinit$$00000028) for __rt_lib_init_argv_1
    libinit.o(.ARM.Collect$$libinit$$00000000) refers (Special) to libinit2.o(.ARM.Collect$$libinit$$00000017) for __rt_lib_init_atexit_1
    libinit.o(.ARM.Collect$$libinit$$00000000) refers (Special) to libinit2.o(.ARM.Collect$$libinit$$0000001D) for __rt_lib_init_clock_1
    libinit.o(.ARM.Collect$$libinit$$00000000) refers (Special) to libinit2.o(.ARM.Collect$$libinit$$0000002E) for __rt_lib_init_cpp_1
    libinit.o(.ARM.Collect$$libinit$$00000000) refers (Special) to libinit2.o(.ARM.Collect$$libinit$$0000002C) for __rt_lib_init_exceptions_1
    libinit.o(.ARM.Collect$$libinit$$00000000) refers (Special) to libinit2.o(.ARM.Collect$$libinit$$0000001B) for __rt_lib_init_fp_trap_1
    libinit.o(.ARM.Collect$$libinit$$00000000) refers (Special) to libinit2.o(.ARM.Collect$$libinit$$0000001F) for __rt_lib_init_getenv_1
    libinit.o(.ARM.Collect$$libinit$$00000000) refers (Special) to libinit2.o(.ARM.Collect$$libinit$$00000006) for __rt_lib_init_heap_1
    libinit.o(.ARM.Collect$$libinit$$00000000) refers (Special) to libinit2.o(.ARM.Collect$$libinit$$0000000D) for __rt_lib_init_lc_collate_1
    libinit.o(.ARM.Collect$$libinit$$00000000) refers (Special) to libinit2.o(.ARM.Collect$$libinit$$0000000F) for __rt_lib_init_lc_ctype_1
    libinit.o(.ARM.Collect$$libinit$$00000000) refers (Special) to libinit2.o(.ARM.Collect$$libinit$$00000011) for __rt_lib_init_lc_monetary_1
    libinit.o(.ARM.Collect$$libinit$$00000000) refers (Special) to libinit2.o(.ARM.Collect$$libinit$$00000013) for __rt_lib_init_lc_numeric_1
    libinit.o(.ARM.Collect$$libinit$$00000000) refers (Special) to libinit2.o(.ARM.Collect$$libinit$$00000015) for __rt_lib_init_lc_time_1
    libinit.o(.ARM.Collect$$libinit$$00000000) refers (Special) to libinit2.o(.ARM.Collect$$libinit$$0000000A) for __rt_lib_init_rand_1
    libinit.o(.ARM.Collect$$libinit$$00000000) refers (Special) to libinit2.o(.ARM.Collect$$libinit$$0000002F) for __rt_lib_init_return
    libinit.o(.ARM.Collect$$libinit$$00000000) refers (Special) to libinit2.o(.ARM.Collect$$libinit$$00000019) for __rt_lib_init_signal_1
    libinit.o(.ARM.Collect$$libinit$$00000000) refers (Special) to libinit2.o(.ARM.Collect$$libinit$$00000021) for __rt_lib_init_stdio_1
    libinit.o(.ARM.Collect$$libinit$$00000000) refers (Special) to libinit2.o(.ARM.Collect$$libinit$$00000008) for __rt_lib_init_user_alloc_1
    libinit.o(.ARM.Collect$$libinit$$00000000) refers to fpinit.o(x$fpl$fpinit) for _fp_init
    unwinder.o(.emb_text) refers to unwinder.o(.text) for __ARM_Unwind_RaiseException
    unwinder.o(.text) refers to bsearchnoex.o(.text) for bsearch
    unwinder.o(.text) refers to unwind_activity.o(.emb_text) for _Unwind_Activity
    unwinder.o(.text) refers to abort.o(.text) for abort
    unwinder.o(.text) refers to unwinder.o(.emb_text) for __ARM_Unwind_VRS_corerestore
    unwinder.o(.text) refers to h1_alloc.o(.text) for malloc
    unwinder.o(.text) refers to rt_memcpy_w.o(.text) for __aeabi_memcpy4
    unwinder.o(.text) refers to h1_free.o(.text) for free
    unwinder.o(.text) refers (Weak) to unwind_pr0.o(.text) for __aeabi_unwind_cpp_pr0
    arm_exceptions_globs.o(.text) refers to abort.o(.text) for abort
    arm_exceptions_globs.o(.text) refers to rt_eh_globals_addr.o(.text) for __rt_eh_globals_addr
    arm_exceptions_globs.o(.text) refers to h1_alloc.o(.text) for malloc
    arm_exceptions_globs.o(.text) refers to arm_exceptions_mem.o(.text) for __ARM_exceptions_buffer_init
    arm_exceptions_globs.o(.ARM.exidx) refers to arm_exceptions_globs.o(.text) for .text
    exception_what.o(.ARM.exidx) refers to exception_what.o(i._ZNKSt9exception4whatEv) for i._ZNKSt9exception4whatEv
    fpconst.o(c$$dinf) refers (Special) to usenofp.o(x$fpl$usenofp) for __I$use$fp
    fpconst.o(c$$dnan) refers (Special) to usenofp.o(x$fpl$usenofp) for __I$use$fp
    fpconst.o(c$$finf) refers (Special) to usenofp.o(x$fpl$usenofp) for __I$use$fp
    scanf2.o(x$fpl$scanf2) refers to scanf_hexfp.o(.text) for _scanf_really_hex_real
    scanf2.o(x$fpl$scanf2) refers to scanf_infnan.o(.text) for _scanf_really_infnan
    scanf2b.o(x$fpl$scanf2) refers to scanf_hexfp.o(.text) for _scanf_really_hex_real
    scanf2b.o(x$fpl$scanf2) refers to scanf_infnan.o(.text) for _scanf_really_infnan
    trapv.o(x$fpl$trapveneer) refers (Special) to usenofp.o(x$fpl$usenofp) for __I$use$fp
    narrow.o(i.__mathlib_narrow) refers (Special) to usenofp.o(x$fpl$usenofp) for __I$use$fp
    narrow.o(i.__mathlib_narrow) refers to narrow.o(i.__mathlib_tofloat) for __mathlib_tofloat
    narrow.o(i.__mathlib_tofloat) refers (Special) to usenofp.o(x$fpl$usenofp) for __I$use$fp
    narrow.o(i.__mathlib_tofloat) refers to frexp.o(i.frexp) for frexp
    narrow.o(i.__mathlib_tofloat) refers to deqf.o(x$fpl$deqf) for __aeabi_cdcmpeq
    narrow.o(i.__mathlib_tofloat) refers to d2f.o(x$fpl$d2f) for __aeabi_d2f
    narrow.o(i.__mathlib_tofloat) refers to _rserrno.o(.text) for __set_errno
    narrow.o(i.__mathlib_tofloat) refers to drleqf.o(x$fpl$drleqf) for __aeabi_cdrcmple
    narrow.o(i.__softfp___mathlib_tofloat) refers (Special) to usenofp.o(x$fpl$usenofp) for __I$use$fp
    narrow.o(i.__softfp___mathlib_tofloat) refers to narrow.o(i.__mathlib_tofloat) for __mathlib_tofloat
    rt_eh_globals_addr.o(.text) refers to rt_eh_globals_addr.o(.bss) for __rt_eh_globals_addr_data
    rt_eh_globals_addr_intlibspace.o(.text) refers to libspace.o(.bss) for __libspace_start
    term_alloc.o(.text) refers (Special) to libshutdown2.o(.ARM.Collect$$libshutdown$$0000000E) for __rt_lib_shutdown_heap_2
    term_alloc.o(.text) refers to rt_heap_descriptor.o(.text) for __rt_heap_descriptor
    term_alloc.o(.text) refers to h1_final.o(.text) for __Heap_Finalize
    scanf_hexfp.o(.text) refers to _chval.o(.text) for _chval
    scanf_hexfp.o(.text) refers to llshl.o(.text) for __aeabi_llsl
    scanf_hexfp.o(.text) refers to ldexp.o(i.__support_ldexp) for __support_ldexp
    scanf_hexfp.o(.text) refers to narrow.o(i.__mathlib_narrow) for __mathlib_narrow
    defsig_fpe_inner.o(.text) refers to defsig_general.o(.text) for __default_signal_display
    defsig_rtmem_inner.o(.text) refers to defsig_general.o(.text) for __default_signal_display
    defsig.o(CL$$defsig) refers to defsig_abrt_inner.o(.text) for __rt_SIGABRT_inner
    defsig.o(CL$$defsig) refers to defsig_fpe_inner.o(.text) for __rt_SIGFPE_inner
    defsig.o(CL$$defsig) refers to defsig_rtred_inner.o(.text) for __rt_SIGRTRED_inner
    defsig.o(CL$$defsig) refers to defsig_rtmem_inner.o(.text) for __rt_SIGRTMEM_inner
    defsig.o(CL$$defsig) refers to defsig_pvfn_inner.o(.text) for __rt_SIGPVFN_inner
    arm_exceptions_mem.o(.text) refers to h1_alloc.o(.text) for malloc
    arm_exceptions_mem.o(.ARM.exidx) refers to arm_exceptions_mem.o(.text) for .text
    deqf.o(x$fpl$deqf) refers (Special) to usenofp.o(x$fpl$usenofp) for __I$use$fp
    deqf.o(x$fpl$deqf) refers to dnaninf.o(x$fpl$dnaninf) for __fpl_dnaninf
    deqf.o(x$fpl$deqf) refers to dcmpi.o(x$fpl$dcmpinf) for __fpl_dcmp_Inf
    fpinit.o(x$fpl$fpinit) refers to rt_fp_status_addr.o(.text) for __rt_fp_status_addr
    frexp.o(i.__softfp_frexp) refers (Special) to usenofp.o(x$fpl$usenofp) for __I$use$fp
    frexp.o(i.__softfp_frexp) refers to scalbn.o(x$fpl$scalbn) for __ARM_scalbn
    frexp.o(i.frexp) refers (Special) to usenofp.o(x$fpl$usenofp) for __I$use$fp
    frexp.o(i.frexp) refers to scalbn.o(x$fpl$scalbn) for __ARM_scalbn
    rt_fp_status_addr.o(.text) refers to rt_fp_status_addr.o(.bss) for __rt_fp_status_addr_data
    rt_fp_status_addr_intlibspace.o(.text) refers to libspace.o(.bss) for __libspace_start
    defsig_stak_inner.o(.text) refers to defsig_general.o(.text) for __default_signal_display
    defsig_cppl_inner.o(.text) refers to defsig_general.o(.text) for __default_signal_display
    defsig_segv_inner.o(.text) refers to defsig_general.o(.text) for __default_signal_display
    defsig_other.o(.text) refers to defsig_general.o(.text) for __default_signal_display
    ldexp.o(i.__softfp_ldexp) refers (Special) to usenofp.o(x$fpl$usenofp) for __I$use$fp
    ldexp.o(i.__softfp_ldexp) refers to ldexp.o(i.ldexp) for ldexp
    ldexp.o(i.__support_ldexp) refers (Special) to usenofp.o(x$fpl$usenofp) for __I$use$fp
    ldexp.o(i.__support_ldexp) refers to ldexp.o(i.ldexp) for ldexp
    ldexp.o(i.ldexp) refers (Special) to usenofp.o(x$fpl$usenofp) for __I$use$fp
    ldexp.o(i.ldexp) refers to deqf.o(x$fpl$deqf) for __aeabi_cdcmpeq
    ldexp.o(i.ldexp) refers to scalbn.o(x$fpl$scalbn) for __ARM_scalbn
    ldexp.o(i.ldexp) refers to _rserrno.o(.text) for __set_errno
    ldexp.o(i.ldexp) refers to dunder.o(i.__mathlib_dbl_underflow) for __mathlib_dbl_underflow
    ldexp_x.o(i.____softfp_ldexp$lsc) refers (Special) to usenofp.o(x$fpl$usenofp) for __I$use$fp
    ldexp_x.o(i.____softfp_ldexp$lsc) refers to ldexp_x.o(i.__ldexp$lsc) for __ldexp$lsc
    ldexp_x.o(i.____support_ldexp$lsc) refers (Special) to usenofp.o(x$fpl$usenofp) for __I$use$fp
    ldexp_x.o(i.____support_ldexp$lsc) refers to ldexp_x.o(i.__ldexp$lsc) for __ldexp$lsc
    ldexp_x.o(i.__ldexp$lsc) refers (Special) to usenofp.o(x$fpl$usenofp) for __I$use$fp
    ldexp_x.o(i.__ldexp$lsc) refers to deqf.o(x$fpl$deqf) for __aeabi_cdcmpeq
    ldexp_x.o(i.__ldexp$lsc) refers to scalbn.o(x$fpl$scalbn) for __ARM_scalbn
    ldexp_x.o(i.__ldexp$lsc) refers to _rserrno.o(.text) for __set_errno
    ldexp_x.o(i.__ldexp$lsc) refers to qnan.o(.constdata) for __mathlib_zero
    nrk_task.o(i._Z23_nrk_wait_for_schedulerv) refers to nrk.o(.data) for nrk_cur_task_TCB
    nrk_task.o(.ARM.exidx) refers to nrk_task.o(i._Z23_nrk_wait_for_schedulerv) for i._Z23_nrk_wait_for_schedulerv
    main.o(.ARM.exidx) refers to main.o(i._ZSt3absd) for i._ZSt3absd
    main.o(i._ZN4m3piD1Ev) refers to Stream.cpp.lpc1768.arm.o(i._ZN4mbed6StreamD2Ev) for mbed::Stream::~Stream__sub_object()
    main.o(i._ZN4m3piD1Ev) refers to Base.cpp.lpc1768.arm.o(i._ZN4mbed4BaseD1Ev) for mbed::Base::~Base()
    main.o(i._ZN4m3piD1Ev) refers to m3pi.o(.constdata__ZTV4m3pi) for vtable for m3pi
    main.o(.ARM.exidx) refers to main.o(i._ZN4m3piD1Ev) for i._ZN4m3piD1Ev
    m3pi.o(.constdata__ZTV4m3pi) refers to m3pi.o(.constdata__ZTI4m3pi) for typeinfo for m3pi
    m3pi.o(.constdata__ZTV4m3pi) refers to main.o(i._ZN4m3piD1Ev) for m3pi::~m3pi()
    m3pi.o(.constdata__ZTV4m3pi) refers to m3pi.o(i._ZN4m3piD0Ev) for m3pi::~m3pi__deallocating()
    m3pi.o(.constdata__ZTV4m3pi) refers to Base.cpp.lpc1768.arm.o(i._ZN4mbed4Base3rpcEPKcS2_Pc) for mbed::Base::rpc(const char*, const char*, char*)
    m3pi.o(.constdata__ZTV4m3pi) refers to m3pi.o(i._ZN4m3pi15get_rpc_methodsEv) for m3pi::get_rpc_methods()
    m3pi.o(.constdata__ZTV4m3pi) refers to Stream.cpp.lpc1768.arm.o(i._ZN4mbed6Stream5closeEv) for mbed::Stream::close()
    m3pi.o(.constdata__ZTV4m3pi) refers to Stream.cpp.lpc1768.arm.o(i._ZN4mbed6Stream5writeEPKvj) for mbed::Stream::write(const void*, unsigned)
    m3pi.o(.constdata__ZTV4m3pi) refers to Stream.cpp.lpc1768.arm.o(i._ZN4mbed6Stream4readEPvj) for mbed::Stream::read(void*, unsigned)
    m3pi.o(.constdata__ZTV4m3pi) refers to Stream.cpp.lpc1768.arm.o(i._ZN4mbed6Stream5lseekEli) for mbed::Stream::lseek(long, int)
    m3pi.o(.constdata__ZTV4m3pi) refers to Stream.cpp.lpc1768.arm.o(i._ZN4mbed6Stream6isattyEv) for mbed::Stream::isatty()
    m3pi.o(.constdata__ZTV4m3pi) refers to Stream.cpp.lpc1768.arm.o(i._ZN4mbed6Stream5fsyncEv) for mbed::Stream::fsync()
    m3pi.o(.constdata__ZTV4m3pi) refers to Stream.cpp.lpc1768.arm.o(i._ZN4mbed6Stream4flenEv) for mbed::Stream::flen()
    m3pi.o(.constdata__ZTV4m3pi) refers to m3pi.o(i._ZN4m3pi5_putcEi) for m3pi::_putc(int)
    m3pi.o(.constdata__ZTV4m3pi) refers to m3pi.o(i._ZN4m3pi5_getcEv) for m3pi::_getc()
    m3pi.o(.constdata__ZTV4m3pi) refers to Stream.cpp.lpc1768.arm.o(i._ZThn16_N4mbed6Stream5writeEPKvj) for thunk{-16} to mbed::Stream::write(const void*, unsigned)
    m3pi.o(.constdata__ZTV4m3pi) refers to Stream.cpp.lpc1768.arm.o(i._ZThn16_N4mbed6Stream5closeEv) for thunk{-16} to mbed::Stream::close()
    m3pi.o(.constdata__ZTV4m3pi) refers to Stream.cpp.lpc1768.arm.o(i._ZThn16_N4mbed6Stream4readEPvj) for thunk{-16} to mbed::Stream::read(void*, unsigned)
    m3pi.o(.constdata__ZTV4m3pi) refers to Stream.cpp.lpc1768.arm.o(i._ZThn16_N4mbed6Stream6isattyEv) for thunk{-16} to mbed::Stream::isatty()
    m3pi.o(.constdata__ZTV4m3pi) refers to Stream.cpp.lpc1768.arm.o(i._ZThn16_N4mbed6Stream5lseekEli) for thunk{-16} to mbed::Stream::lseek(long, int)
    m3pi.o(.constdata__ZTV4m3pi) refers to Stream.cpp.lpc1768.arm.o(i._ZThn16_N4mbed6Stream5fsyncEv) for thunk{-16} to mbed::Stream::fsync()
    m3pi.o(.constdata__ZTV4m3pi) refers to Stream.cpp.lpc1768.arm.o(i._ZThn16_N4mbed6Stream4flenEv) for thunk{-16} to mbed::Stream::flen()
    m3pi.o(t._ZN4mbed17rpc_method_callerI4m3pifXadL_ZNS1_7forwardEfEEEEvPNS_4BaseEPKcPc) refers to PwmOut.cpp.lpc1768.arm.o(i._ZN4mbed8next_argEPKc) for mbed::next_arg(const char*)
    m3pi.o(t._ZN4mbed17rpc_method_callerI4m3pifXadL_ZNS1_7forwardEfEEEEvPNS_4BaseEPKcPc) refers to m3pi.o(i._ZN4mbed9parse_argIfEET_PKcPS3_) for mbed::parse_arg<float>(const char*, const char**)
    m3pi.o(t._ZN4mbed17rpc_method_callerI4m3pifXadL_ZNS1_7forwardEfEEEEvPNS_4BaseEPKcPc) refers to m3pi.o(.constdata) for .constdata
    m3pi.o(.ARM.exidx) refers to m3pi.o(t._ZN4mbed17rpc_method_callerI4m3pifXadL_ZNS1_7forwardEfEEEEvPNS_4BaseEPKcPc) for t._ZN4mbed17rpc_method_callerI4m3pifXadL_ZNS1_7forwardEfEEEEvPNS_4BaseEPKcPc
    m3pi.o(t._ZN4mbed17rpc_method_callerI4m3pifXadL_ZNS1_8backwardEfEEEEvPNS_4BaseEPKcPc) refers to PwmOut.cpp.lpc1768.arm.o(i._ZN4mbed8next_argEPKc) for mbed::next_arg(const char*)
    m3pi.o(t._ZN4mbed17rpc_method_callerI4m3pifXadL_ZNS1_8backwardEfEEEEvPNS_4BaseEPKcPc) refers to m3pi.o(i._ZN4mbed9parse_argIfEET_PKcPS3_) for mbed::parse_arg<float>(const char*, const char**)
    m3pi.o(t._ZN4mbed17rpc_method_callerI4m3pifXadL_ZNS1_8backwardEfEEEEvPNS_4BaseEPKcPc) refers to m3pi.o(.constdata) for .constdata
    m3pi.o(.ARM.exidx) refers to m3pi.o(t._ZN4mbed17rpc_method_callerI4m3pifXadL_ZNS1_8backwardEfEEEEvPNS_4BaseEPKcPc) for t._ZN4mbed17rpc_method_callerI4m3pifXadL_ZNS1_8backwardEfEEEEvPNS_4BaseEPKcPc
    m3pi.o(t._ZN4mbed17rpc_method_callerI4m3pifXadL_ZNS1_4leftEfEEEEvPNS_4BaseEPKcPc) refers to PwmOut.cpp.lpc1768.arm.o(i._ZN4mbed8next_argEPKc) for mbed::next_arg(const char*)
    m3pi.o(t._ZN4mbed17rpc_method_callerI4m3pifXadL_ZNS1_4leftEfEEEEvPNS_4BaseEPKcPc) refers to m3pi.o(i._ZN4mbed9parse_argIfEET_PKcPS3_) for mbed::parse_arg<float>(const char*, const char**)
    m3pi.o(t._ZN4mbed17rpc_method_callerI4m3pifXadL_ZNS1_4leftEfEEEEvPNS_4BaseEPKcPc) refers to m3pi.o(.constdata) for .constdata
    m3pi.o(.ARM.exidx) refers to m3pi.o(t._ZN4mbed17rpc_method_callerI4m3pifXadL_ZNS1_4leftEfEEEEvPNS_4BaseEPKcPc) for t._ZN4mbed17rpc_method_callerI4m3pifXadL_ZNS1_4leftEfEEEEvPNS_4BaseEPKcPc
    m3pi.o(t._ZN4mbed17rpc_method_callerI4m3pifXadL_ZNS1_5rightEfEEEEvPNS_4BaseEPKcPc) refers to PwmOut.cpp.lpc1768.arm.o(i._ZN4mbed8next_argEPKc) for mbed::next_arg(const char*)
    m3pi.o(t._ZN4mbed17rpc_method_callerI4m3pifXadL_ZNS1_5rightEfEEEEvPNS_4BaseEPKcPc) refers to m3pi.o(i._ZN4mbed9parse_argIfEET_PKcPS3_) for mbed::parse_arg<float>(const char*, const char**)
    m3pi.o(t._ZN4mbed17rpc_method_callerI4m3pifXadL_ZNS1_5rightEfEEEEvPNS_4BaseEPKcPc) refers to m3pi.o(.constdata) for .constdata
    m3pi.o(.ARM.exidx) refers to m3pi.o(t._ZN4mbed17rpc_method_callerI4m3pifXadL_ZNS1_5rightEfEEEEvPNS_4BaseEPKcPc) for t._ZN4mbed17rpc_method_callerI4m3pifXadL_ZNS1_5rightEfEEEEvPNS_4BaseEPKcPc
    m3pi.o(t._ZN4mbed17rpc_method_callerI4m3piXadL_ZNS1_4stopEvEEEEvPNS_4BaseEPKcPc) refers to m3pi.o(.constdata) for .constdata
    m3pi.o(.ARM.exidx) refers to m3pi.o(t._ZN4mbed17rpc_method_callerI4m3piXadL_ZNS1_4stopEvEEEEvPNS_4BaseEPKcPc) for t._ZN4mbed17rpc_method_callerI4m3piXadL_ZNS1_4stopEvEEEEvPNS_4BaseEPKcPc
    m3pi.o(t._ZN4mbed17rpc_method_callerI4m3pifXadL_ZNS1_10left_motorEfEEEEvPNS_4BaseEPKcPc) refers to PwmOut.cpp.lpc1768.arm.o(i._ZN4mbed8next_argEPKc) for mbed::next_arg(const char*)
    m3pi.o(t._ZN4mbed17rpc_method_callerI4m3pifXadL_ZNS1_10left_motorEfEEEEvPNS_4BaseEPKcPc) refers to m3pi.o(i._ZN4mbed9parse_argIfEET_PKcPS3_) for mbed::parse_arg<float>(const char*, const char**)
    m3pi.o(t._ZN4mbed17rpc_method_callerI4m3pifXadL_ZNS1_10left_motorEfEEEEvPNS_4BaseEPKcPc) refers to m3pi.o(.constdata) for .constdata
    m3pi.o(.ARM.exidx) refers to m3pi.o(t._ZN4mbed17rpc_method_callerI4m3pifXadL_ZNS1_10left_motorEfEEEEvPNS_4BaseEPKcPc) for t._ZN4mbed17rpc_method_callerI4m3pifXadL_ZNS1_10left_motorEfEEEEvPNS_4BaseEPKcPc
    m3pi.o(t._ZN4mbed17rpc_method_callerI4m3pifXadL_ZNS1_11right_motorEfEEEEvPNS_4BaseEPKcPc) refers to PwmOut.cpp.lpc1768.arm.o(i._ZN4mbed8next_argEPKc) for mbed::next_arg(const char*)
    m3pi.o(t._ZN4mbed17rpc_method_callerI4m3pifXadL_ZNS1_11right_motorEfEEEEvPNS_4BaseEPKcPc) refers to m3pi.o(i._ZN4mbed9parse_argIfEET_PKcPS3_) for mbed::parse_arg<float>(const char*, const char**)
    m3pi.o(t._ZN4mbed17rpc_method_callerI4m3pifXadL_ZNS1_11right_motorEfEEEEvPNS_4BaseEPKcPc) refers to m3pi.o(.constdata) for .constdata
    m3pi.o(.ARM.exidx) refers to m3pi.o(t._ZN4mbed17rpc_method_callerI4m3pifXadL_ZNS1_11right_motorEfEEEEvPNS_4BaseEPKcPc) for t._ZN4mbed17rpc_method_callerI4m3pifXadL_ZNS1_11right_motorEfEEEEvPNS_4BaseEPKcPc
    m3pi.o(t._ZN4mbed17rpc_method_callerIf4m3piXadL_ZNS1_7batteryEvEEEEvPNS_4BaseEPKcPc) refers to m3pi.o(i._ZN4mbed12write_resultIfEEvT_Pc) for mbed::write_result<float>(T1, char*)
    m3pi.o(t._ZN4mbed17rpc_method_callerIf4m3piXadL_ZNS1_7batteryEvEEEEvPNS_4BaseEPKcPc) refers to m3pi.o(.constdata) for .constdata
    m3pi.o(.ARM.exidx) refers to m3pi.o(t._ZN4mbed17rpc_method_callerIf4m3piXadL_ZNS1_7batteryEvEEEEvPNS_4BaseEPKcPc) for t._ZN4mbed17rpc_method_callerIf4m3piXadL_ZNS1_7batteryEvEEEEvPNS_4BaseEPKcPc
    m3pi.o(t._ZN4mbed17rpc_method_callerIf4m3piXadL_ZNS1_13line_positionEvEEEEvPNS_4BaseEPKcPc) refers to m3pi.o(i._ZN4mbed12write_resultIfEEvT_Pc) for mbed::write_result<float>(T1, char*)
    m3pi.o(t._ZN4mbed17rpc_method_callerIf4m3piXadL_ZNS1_13line_positionEvEEEEvPNS_4BaseEPKcPc) refers to m3pi.o(.constdata) for .constdata
    m3pi.o(.ARM.exidx) refers to m3pi.o(t._ZN4mbed17rpc_method_callerIf4m3piXadL_ZNS1_13line_positionEvEEEEvPNS_4BaseEPKcPc) for t._ZN4mbed17rpc_method_callerIf4m3piXadL_ZNS1_13line_positionEvEEEEvPNS_4BaseEPKcPc
    m3pi.o(t._ZN4mbed17rpc_method_callerIc4m3piXadL_ZNS1_21sensor_auto_calibrateEvEEEEvPNS_4BaseEPKcPc) refers to m3pi.o(.constdata) for .constdata
    m3pi.o(.ARM.exidx) refers to m3pi.o(t._ZN4mbed17rpc_method_callerIc4m3piXadL_ZNS1_21sensor_auto_calibrateEvEEEEvPNS_4BaseEPKcPc) for t._ZN4mbed17rpc_method_callerIc4m3piXadL_ZNS1_21sensor_auto_calibrateEvEEEEvPNS_4BaseEPKcPc
    m3pi.o(i._ZN4m3piD0Ev) refers to main.o(i._ZN4m3piD1Ev) for m3pi::~m3pi()
    m3pi.o(i._ZN4m3piD0Ev) refers to delete.o(i._ZdlPv) for operator delete (void*)
    m3pi.o(.ARM.exidx) refers to m3pi.o(i._ZN4m3piD0Ev) for i._ZN4m3piD0Ev
    m3pi.o(i._ZN4mbed9parse_argIfEET_PKcPS3_) refers to strtof.o(i.strtof) for strtof
    m3pi.o(.ARM.exidx) refers to m3pi.o(i._ZN4mbed9parse_argIfEET_PKcPS3_) for i._ZN4mbed9parse_argIfEET_PKcPS3_
    m3pi.o(i._ZN4mbed12write_resultIfEEvT_Pc) refers to _printf_percent.o(.ARM.Collect$$_printf_percent$$00000000) for _printf_percent
    m3pi.o(i._ZN4mbed12write_resultIfEEvT_Pc) refers to _printf_g.o(.ARM.Collect$$_printf_percent$$00000005) for _printf_g
    m3pi.o(i._ZN4mbed12write_resultIfEEvT_Pc) refers to printf1.o(x$fpl$printf1) for _printf_fp_dec
    m3pi.o(i._ZN4mbed12write_resultIfEEvT_Pc) refers to f2d.o(x$fpl$f2d) for __aeabi_f2d
    m3pi.o(i._ZN4mbed12write_resultIfEEvT_Pc) refers to __2sprintf.o(.text) for __2sprintf
    m3pi.o(i._ZN4mbed12write_resultIfEEvT_Pc) refers to m3pi.o(.constdata) for .constdata
    m3pi.o(.ARM.exidx) refers to m3pi.o(i._ZN4mbed12write_resultIfEEvT_Pc) for i._ZN4mbed12write_resultIfEEvT_Pc
    m3pi.o(.constdata__ZTI4m3pi) refers to lib_rtti_impl.o(.constdata__ZTVN10__cxxabiv120__si_class_type_infoE) for vtable for __cxxabiv1::__si_class_type_info
    m3pi.o(.constdata__ZTI4m3pi) refers to m3pi.o(.constdata__ZTS4m3pi) for typeinfo name for m3pi
    m3pi.o(.constdata__ZTI4m3pi) refers to Stream.cpp.lpc1768.arm.o(.constdata__ZTIN4mbed6StreamE) for typeinfo for mbed::Stream
    PwmOut.cpp.lpc1768.arm.o(.constdata__ZTVN4mbed6PwmOutE) refers to PwmOut.cpp.lpc1768.arm.o(.constdata__ZTIN4mbed6PwmOutE) for typeinfo for mbed::PwmOut
    PwmOut.cpp.lpc1768.arm.o(.constdata__ZTVN4mbed6PwmOutE) refers to PwmOut.cpp.lpc1768.arm.o(i._ZN4mbed6PwmOutD1Ev) for mbed::PwmOut::~PwmOut()
    PwmOut.cpp.lpc1768.arm.o(.constdata__ZTVN4mbed6PwmOutE) refers to PwmOut.cpp.lpc1768.arm.o(i._ZN4mbed6PwmOutD0Ev) for mbed::PwmOut::~PwmOut__deallocating()
    PwmOut.cpp.lpc1768.arm.o(.constdata__ZTVN4mbed6PwmOutE) refers to Base.cpp.lpc1768.arm.o(i._ZN4mbed4Base3rpcEPKcS2_Pc) for mbed::Base::rpc(const char*, const char*, char*)
    PwmOut.cpp.lpc1768.arm.o(.constdata__ZTVN4mbed6PwmOutE) refers to PwmOut.cpp.lpc1768.arm.o(i._ZN4mbed6PwmOut15get_rpc_methodsEv) for mbed::PwmOut::get_rpc_methods()
    PwmOut.cpp.lpc1768.arm.o(i._ZN4mbed6PwmOutD1Ev) refers to Base.cpp.lpc1768.arm.o(i._ZN4mbed4BaseD1Ev) for mbed::Base::~Base()
    PwmOut.cpp.lpc1768.arm.o(.ARM.exidx) refers to PwmOut.cpp.lpc1768.arm.o(i._ZN4mbed6PwmOutD1Ev) for i._ZN4mbed6PwmOutD1Ev
    PwmOut.cpp.lpc1768.arm.o(t._ZN4mbed17rpc_method_callerIfNS_6PwmOutEXadL_ZNS1_4readEvEEEEvPNS_4BaseEPKcPc) refers to f2d.o(x$fpl$f2d) for __aeabi_f2d
    PwmOut.cpp.lpc1768.arm.o(t._ZN4mbed17rpc_method_callerIfNS_6PwmOutEXadL_ZNS1_4readEvEEEEvPNS_4BaseEPKcPc) refers to sprintf.o(.text) for sprintf
    PwmOut.cpp.lpc1768.arm.o(t._ZN4mbed17rpc_method_callerIfNS_6PwmOutEXadL_ZNS1_4readEvEEEEvPNS_4BaseEPKcPc) refers to PwmOut.cpp.lpc1768.arm.o(.constdata) for .constdata
    PwmOut.cpp.lpc1768.arm.o(t._ZN4mbed17rpc_method_callerIfNS_6PwmOutEXadL_ZNS1_4readEvEEEEvPNS_4BaseEPKcPc) refers to PwmOut.cpp.lpc1768.arm.o(.constdata___ARM__ZN4mbed12write_resultIfEEvT_Pc_anon0) for __ARM__ZN4mbed12write_resultIfEEvT_Pc_anon0
    PwmOut.cpp.lpc1768.arm.o(.ARM.exidx) refers to PwmOut.cpp.lpc1768.arm.o(t._ZN4mbed17rpc_method_callerIfNS_6PwmOutEXadL_ZNS1_4readEvEEEEvPNS_4BaseEPKcPc) for t._ZN4mbed17rpc_method_callerIfNS_6PwmOutEXadL_ZNS1_4readEvEEEEvPNS_4BaseEPKcPc
    PwmOut.cpp.lpc1768.arm.o(t._ZN4mbed17rpc_method_callerINS_6PwmOutEfXadL_ZNS1_5writeEfEEEEvPNS_4BaseEPKcPc) refers to PwmOut.cpp.lpc1768.arm.o(i._ZN4mbed8next_argEPKc) for mbed::next_arg(const char*)
    PwmOut.cpp.lpc1768.arm.o(t._ZN4mbed17rpc_method_callerINS_6PwmOutEfXadL_ZNS1_5writeEfEEEEvPNS_4BaseEPKcPc) refers to strtof.o(i.strtof) for strtof
    PwmOut.cpp.lpc1768.arm.o(t._ZN4mbed17rpc_method_callerINS_6PwmOutEfXadL_ZNS1_5writeEfEEEEvPNS_4BaseEPKcPc) refers to PwmOut.cpp.lpc1768.arm.o(.constdata) for .constdata
    PwmOut.cpp.lpc1768.arm.o(.ARM.exidx) refers to PwmOut.cpp.lpc1768.arm.o(t._ZN4mbed17rpc_method_callerINS_6PwmOutEfXadL_ZNS1_5writeEfEEEEvPNS_4BaseEPKcPc) for t._ZN4mbed17rpc_method_callerINS_6PwmOutEfXadL_ZNS1_5writeEfEEEEvPNS_4BaseEPKcPc
    PwmOut.cpp.lpc1768.arm.o(t._ZN4mbed17rpc_method_callerINS_6PwmOutEfXadL_ZNS1_6periodEfEEEEvPNS_4BaseEPKcPc) refers to PwmOut.cpp.lpc1768.arm.o(i._ZN4mbed8next_argEPKc) for mbed::next_arg(const char*)
    PwmOut.cpp.lpc1768.arm.o(t._ZN4mbed17rpc_method_callerINS_6PwmOutEfXadL_ZNS1_6periodEfEEEEvPNS_4BaseEPKcPc) refers to strtof.o(i.strtof) for strtof
    PwmOut.cpp.lpc1768.arm.o(t._ZN4mbed17rpc_method_callerINS_6PwmOutEfXadL_ZNS1_6periodEfEEEEvPNS_4BaseEPKcPc) refers to PwmOut.cpp.lpc1768.arm.o(.constdata) for .constdata
    PwmOut.cpp.lpc1768.arm.o(.ARM.exidx) refers to PwmOut.cpp.lpc1768.arm.o(t._ZN4mbed17rpc_method_callerINS_6PwmOutEfXadL_ZNS1_6periodEfEEEEvPNS_4BaseEPKcPc) for t._ZN4mbed17rpc_method_callerINS_6PwmOutEfXadL_ZNS1_6periodEfEEEEvPNS_4BaseEPKcPc
    PwmOut.cpp.lpc1768.arm.o(t._ZN4mbed17rpc_method_callerINS_6PwmOutEiXadL_ZNS1_9period_msEiEEEEvPNS_4BaseEPKcPc) refers to PwmOut.cpp.lpc1768.arm.o(i._ZN4mbed8next_argEPKc) for mbed::next_arg(const char*)
    PwmOut.cpp.lpc1768.arm.o(t._ZN4mbed17rpc_method_callerINS_6PwmOutEiXadL_ZNS1_9period_msEiEEEEvPNS_4BaseEPKcPc) refers to PwmOut.cpp.lpc1768.arm.o(i._ZN4mbed10parse_charEPKcPS1_) for mbed::parse_char(const char*, const char**)
    PwmOut.cpp.lpc1768.arm.o(t._ZN4mbed17rpc_method_callerINS_6PwmOutEiXadL_ZNS1_9period_msEiEEEEvPNS_4BaseEPKcPc) refers to strtol.o(.text) for strtol
    PwmOut.cpp.lpc1768.arm.o(t._ZN4mbed17rpc_method_callerINS_6PwmOutEiXadL_ZNS1_9period_msEiEEEEvPNS_4BaseEPKcPc) refers to PwmOut.cpp.lpc1768.arm.o(.constdata) for .constdata
    PwmOut.cpp.lpc1768.arm.o(.ARM.exidx) refers to PwmOut.cpp.lpc1768.arm.o(t._ZN4mbed17rpc_method_callerINS_6PwmOutEiXadL_ZNS1_9period_msEiEEEEvPNS_4BaseEPKcPc) for t._ZN4mbed17rpc_method_callerINS_6PwmOutEiXadL_ZNS1_9period_msEiEEEEvPNS_4BaseEPKcPc
    PwmOut.cpp.lpc1768.arm.o(t._ZN4mbed17rpc_method_callerINS_6PwmOutEfXadL_ZNS1_10pulsewidthEfEEEEvPNS_4BaseEPKcPc) refers to PwmOut.cpp.lpc1768.arm.o(i._ZN4mbed8next_argEPKc) for mbed::next_arg(const char*)
    PwmOut.cpp.lpc1768.arm.o(t._ZN4mbed17rpc_method_callerINS_6PwmOutEfXadL_ZNS1_10pulsewidthEfEEEEvPNS_4BaseEPKcPc) refers to strtof.o(i.strtof) for strtof
    PwmOut.cpp.lpc1768.arm.o(t._ZN4mbed17rpc_method_callerINS_6PwmOutEfXadL_ZNS1_10pulsewidthEfEEEEvPNS_4BaseEPKcPc) refers to PwmOut.cpp.lpc1768.arm.o(.constdata) for .constdata
    PwmOut.cpp.lpc1768.arm.o(.ARM.exidx) refers to PwmOut.cpp.lpc1768.arm.o(t._ZN4mbed17rpc_method_callerINS_6PwmOutEfXadL_ZNS1_10pulsewidthEfEEEEvPNS_4BaseEPKcPc) for t._ZN4mbed17rpc_method_callerINS_6PwmOutEfXadL_ZNS1_10pulsewidthEfEEEEvPNS_4BaseEPKcPc
    PwmOut.cpp.lpc1768.arm.o(t._ZN4mbed17rpc_method_callerINS_6PwmOutEiXadL_ZNS1_13pulsewidth_msEiEEEEvPNS_4BaseEPKcPc) refers to PwmOut.cpp.lpc1768.arm.o(i._ZN4mbed8next_argEPKc) for mbed::next_arg(const char*)
    PwmOut.cpp.lpc1768.arm.o(t._ZN4mbed17rpc_method_callerINS_6PwmOutEiXadL_ZNS1_13pulsewidth_msEiEEEEvPNS_4BaseEPKcPc) refers to PwmOut.cpp.lpc1768.arm.o(i._ZN4mbed10parse_charEPKcPS1_) for mbed::parse_char(const char*, const char**)
    PwmOut.cpp.lpc1768.arm.o(t._ZN4mbed17rpc_method_callerINS_6PwmOutEiXadL_ZNS1_13pulsewidth_msEiEEEEvPNS_4BaseEPKcPc) refers to strtol.o(.text) for strtol
    PwmOut.cpp.lpc1768.arm.o(t._ZN4mbed17rpc_method_callerINS_6PwmOutEiXadL_ZNS1_13pulsewidth_msEiEEEEvPNS_4BaseEPKcPc) refers to PwmOut.cpp.lpc1768.arm.o(.constdata) for .constdata
    PwmOut.cpp.lpc1768.arm.o(.ARM.exidx) refers to PwmOut.cpp.lpc1768.arm.o(t._ZN4mbed17rpc_method_callerINS_6PwmOutEiXadL_ZNS1_13pulsewidth_msEiEEEEvPNS_4BaseEPKcPc) for t._ZN4mbed17rpc_method_callerINS_6PwmOutEiXadL_ZNS1_13pulsewidth_msEiEEEEvPNS_4BaseEPKcPc
    PwmOut.cpp.lpc1768.arm.o(t._ZN4mbed9rpc_superINS_4BaseEEEPKNS_10rpc_methodEPS1_) refers to Base.cpp.lpc1768.arm.o(i._ZN4mbed4Base15get_rpc_methodsEv) for mbed::Base::get_rpc_methods()
    PwmOut.cpp.lpc1768.arm.o(.ARM.exidx) refers to PwmOut.cpp.lpc1768.arm.o(t._ZN4mbed9rpc_superINS_4BaseEEEPKNS_10rpc_methodEPS1_) for t._ZN4mbed9rpc_superINS_4BaseEEEPKNS_10rpc_methodEPS1_
    PwmOut.cpp.lpc1768.arm.o(t._ZN4mbed19rpc_function_callerIPKc7PinNameS2_XadL_ZNS_4Base9constructINS_6PwmOutES3_S2_EES2_T0_T1_EEEEvS2_Pc) refers to PwmOut.cpp.lpc1768.arm.o(i._ZN4mbed8next_argEPKc) for mbed::next_arg(const char*)
    PwmOut.cpp.lpc1768.arm.o(t._ZN4mbed19rpc_function_callerIPKc7PinNameS2_XadL_ZNS_4Base9constructINS_6PwmOutES3_S2_EES2_T0_T1_EEEEvS2_Pc) refers to rt_memcpy_w.o(.text) for __aeabi_memcpy4
    PwmOut.cpp.lpc1768.arm.o(t._ZN4mbed19rpc_function_callerIPKc7PinNameS2_XadL_ZNS_4Base9constructINS_6PwmOutES3_S2_EES2_T0_T1_EEEEvS2_Pc) refers to array_new.o(i._Znaj) for operator new[] (unsigned)
    PwmOut.cpp.lpc1768.arm.o(t._ZN4mbed19rpc_function_callerIPKc7PinNameS2_XadL_ZNS_4Base9constructINS_6PwmOutES3_S2_EES2_T0_T1_EEEEvS2_Pc) refers to strtol.o(.text) for strtol
    PwmOut.cpp.lpc1768.arm.o(t._ZN4mbed19rpc_function_callerIPKc7PinNameS2_XadL_ZNS_4Base9constructINS_6PwmOutES3_S2_EES2_T0_T1_EEEEvS2_Pc) refers to rt_memcpy_v6.o(.text) for __aeabi_memcpy
    PwmOut.cpp.lpc1768.arm.o(t._ZN4mbed19rpc_function_callerIPKc7PinNameS2_XadL_ZNS_4Base9constructINS_6PwmOutES3_S2_EES2_T0_T1_EEEEvS2_Pc) refers to new.o(i._Znwj) for operator new(unsigned)
    PwmOut.cpp.lpc1768.arm.o(t._ZN4mbed19rpc_function_callerIPKc7PinNameS2_XadL_ZNS_4Base9constructINS_6PwmOutES3_S2_EES2_T0_T1_EEEEvS2_Pc) refers to Base.cpp.lpc1768.arm.o(i._ZN4mbed4BaseC1EPKc) for mbed::Base::Base(const char*)
    PwmOut.cpp.lpc1768.arm.o(t._ZN4mbed19rpc_function_callerIPKc7PinNameS2_XadL_ZNS_4Base9constructINS_6PwmOutES3_S2_EES2_T0_T1_EEEEvS2_Pc) refers to pwmout_api.c.lpc1768.arm.o(i.pwmout_init) for pwmout_init
    PwmOut.cpp.lpc1768.arm.o(t._ZN4mbed19rpc_function_callerIPKc7PinNameS2_XadL_ZNS_4Base9constructINS_6PwmOutES3_S2_EES2_T0_T1_EEEEvS2_Pc) refers to Base.cpp.lpc1768.arm.o(i._ZN4mbed4Base8new_nameEPS0_) for mbed::Base::new_name(mbed::Base*)
    PwmOut.cpp.lpc1768.arm.o(t._ZN4mbed19rpc_function_callerIPKc7PinNameS2_XadL_ZNS_4Base9constructINS_6PwmOutES3_S2_EES2_T0_T1_EEEEvS2_Pc) refers to Base.cpp.lpc1768.arm.o(i._ZN4mbed4Base15register_objectEPKc) for mbed::Base::register_object(const char*)
    PwmOut.cpp.lpc1768.arm.o(t._ZN4mbed19rpc_function_callerIPKc7PinNameS2_XadL_ZNS_4Base9constructINS_6PwmOutES3_S2_EES2_T0_T1_EEEEvS2_Pc) refers to strcpy.o(.text) for strcpy
    PwmOut.cpp.lpc1768.arm.o(t._ZN4mbed19rpc_function_callerIPKc7PinNameS2_XadL_ZNS_4Base9constructINS_6PwmOutES3_S2_EES2_T0_T1_EEEEvS2_Pc) refers to aeabi_ctype_def.o(.constdata) for __aeabi_ctype_table_
    PwmOut.cpp.lpc1768.arm.o(t._ZN4mbed19rpc_function_callerIPKc7PinNameS2_XadL_ZNS_4Base9constructINS_6PwmOutES3_S2_EES2_T0_T1_EEEEvS2_Pc) refers to PwmOut.cpp.lpc1768.arm.o(.constdata___ARM__ZN4mbed10parse_pinsEPKc_anon0) for __ARM__ZN4mbed10parse_pinsEPKc_anon0
    PwmOut.cpp.lpc1768.arm.o(t._ZN4mbed19rpc_function_callerIPKc7PinNameS2_XadL_ZNS_4Base9constructINS_6PwmOutES3_S2_EES2_T0_T1_EEEEvS2_Pc) refers to PwmOut.cpp.lpc1768.arm.o(.constdata__ZTVN4mbed6PwmOutE) for vtable for mbed::PwmOut
    PwmOut.cpp.lpc1768.arm.o(.ARM.exidx) refers to PwmOut.cpp.lpc1768.arm.o(t._ZN4mbed19rpc_function_callerIPKc7PinNameS2_XadL_ZNS_4Base9constructINS_6PwmOutES3_S2_EES2_T0_T1_EEEEvS2_Pc) for t._ZN4mbed19rpc_function_callerIPKc7PinNameS2_XadL_ZNS_4Base9constructINS_6PwmOutES3_S2_EES2_T0_T1_EEEEvS2_Pc
    PwmOut.cpp.lpc1768.arm.o(i._ZN4mbed6PwmOutD0Ev) refers to Base.cpp.lpc1768.arm.o(i._ZN4mbed4BaseD1Ev) for mbed::Base::~Base()
    PwmOut.cpp.lpc1768.arm.o(i._ZN4mbed6PwmOutD0Ev) refers to delete.o(i._ZdlPv) for operator delete (void*)
    PwmOut.cpp.lpc1768.arm.o(.ARM.exidx) refers to PwmOut.cpp.lpc1768.arm.o(i._ZN4mbed6PwmOutD0Ev) for i._ZN4mbed6PwmOutD0Ev
    PwmOut.cpp.lpc1768.arm.o(i._ZN4mbed10parse_charEPKcPS1_) refers to strtol.o(.text) for strtol
    PwmOut.cpp.lpc1768.arm.o(.ARM.exidx) refers to PwmOut.cpp.lpc1768.arm.o(i._ZN4mbed10parse_charEPKcPS1_) for i._ZN4mbed10parse_charEPKcPS1_
    PwmOut.cpp.lpc1768.arm.o(.ARM.exidx) refers to PwmOut.cpp.lpc1768.arm.o(i._ZN4mbed8next_argEPKc) for i._ZN4mbed8next_argEPKc
    PwmOut.cpp.lpc1768.arm.o(.constdata__ZTIN4mbed6PwmOutE) refers to lib_rtti_impl.o(.constdata__ZTVN10__cxxabiv120__si_class_type_infoE) for vtable for __cxxabiv1::__si_class_type_info
    PwmOut.cpp.lpc1768.arm.o(.constdata__ZTIN4mbed6PwmOutE) refers to PwmOut.cpp.lpc1768.arm.o(.constdata__ZTSN4mbed6PwmOutE) for typeinfo name for mbed::PwmOut
    PwmOut.cpp.lpc1768.arm.o(.constdata__ZTIN4mbed6PwmOutE) refers to Base.cpp.lpc1768.arm.o(.constdata__ZTIN4mbed4BaseE) for typeinfo for mbed::Base
    Base.cpp.lpc1768.arm.o(.constdata__ZTVN4mbed4BaseE) refers to Base.cpp.lpc1768.arm.o(.constdata__ZTIN4mbed4BaseE) for typeinfo for mbed::Base
    Base.cpp.lpc1768.arm.o(.constdata__ZTVN4mbed4BaseE) refers to Base.cpp.lpc1768.arm.o(i._ZN4mbed4BaseD1Ev) for mbed::Base::~Base()
    Base.cpp.lpc1768.arm.o(.constdata__ZTVN4mbed4BaseE) refers to Base.cpp.lpc1768.arm.o(i._ZN4mbed4BaseD0Ev) for mbed::Base::~Base__deallocating()
    Base.cpp.lpc1768.arm.o(.constdata__ZTVN4mbed4BaseE) refers to Base.cpp.lpc1768.arm.o(i._ZN4mbed4Base3rpcEPKcS2_Pc) for mbed::Base::rpc(const char*, const char*, char*)
    Base.cpp.lpc1768.arm.o(.constdata__ZTVN4mbed4BaseE) refers to Base.cpp.lpc1768.arm.o(i._ZN4mbed4Base15get_rpc_methodsEv) for mbed::Base::get_rpc_methods()
    Base.cpp.lpc1768.arm.o(t._ZN4mbed17rpc_method_callerINS_4BaseEXadL_ZNS1_11delete_selfEvEEEEvPS1_PKcPc) refers to Base.cpp.lpc1768.arm.o(.constdata) for .constdata
    Base.cpp.lpc1768.arm.o(.ARM.exidx) refers to Base.cpp.lpc1768.arm.o(t._ZN4mbed17rpc_method_callerINS_4BaseEXadL_ZNS1_11delete_selfEvEEEEvPS1_PKcPc) for t._ZN4mbed17rpc_method_callerINS_4BaseEXadL_ZNS1_11delete_selfEvEEEEvPS1_PKcPc
    Base.cpp.lpc1768.arm.o(.constdata__ZTIN4mbed4BaseE) refers to lib_rtti_impl.o(.constdata__ZTVN10__cxxabiv117__class_type_infoE) for vtable for __cxxabiv1::__class_type_info
    Base.cpp.lpc1768.arm.o(.constdata__ZTIN4mbed4BaseE) refers to Base.cpp.lpc1768.arm.o(.constdata__ZTSN4mbed4BaseE) for typeinfo name for mbed::Base
    Base.cpp.lpc1768.arm.o(.constdata__ZTVN4mbed13BaseDirHandleE) refers to Base.cpp.lpc1768.arm.o(.constdata__ZTIN4mbed13BaseDirHandleE) for typeinfo for mbed::BaseDirHandle
    Base.cpp.lpc1768.arm.o(.constdata__ZTVN4mbed13BaseDirHandleE) refers to Base.cpp.lpc1768.arm.o(i._ZN4mbed13BaseDirHandle8closedirEv) for mbed::BaseDirHandle::closedir()
    Base.cpp.lpc1768.arm.o(.constdata__ZTVN4mbed13BaseDirHandleE) refers to Base.cpp.lpc1768.arm.o(i._ZN4mbed13BaseDirHandle7readdirEv) for mbed::BaseDirHandle::readdir()
    Base.cpp.lpc1768.arm.o(.constdata__ZTVN4mbed13BaseDirHandleE) refers to Base.cpp.lpc1768.arm.o(i._ZN4mbed13BaseDirHandle9rewinddirEv) for mbed::BaseDirHandle::rewinddir()
    Base.cpp.lpc1768.arm.o(.constdata__ZTVN4mbed13BaseDirHandleE) refers to Base.cpp.lpc1768.arm.o(i._ZN4mbed13BaseDirHandle7telldirEv) for mbed::BaseDirHandle::telldir()
    Base.cpp.lpc1768.arm.o(.constdata__ZTVN4mbed13BaseDirHandleE) refers to Base.cpp.lpc1768.arm.o(i._ZN4mbed13BaseDirHandle7seekdirEl) for mbed::BaseDirHandle::seekdir(long)
    Base.cpp.lpc1768.arm.o(.constdata__ZTIN4mbed13BaseDirHandleE) refers to lib_rtti_impl.o(.constdata__ZTVN10__cxxabiv120__si_class_type_infoE) for vtable for __cxxabiv1::__si_class_type_info
    Base.cpp.lpc1768.arm.o(.constdata__ZTIN4mbed13BaseDirHandleE) refers to Base.cpp.lpc1768.arm.o(.constdata__ZTSN4mbed13BaseDirHandleE) for typeinfo name for mbed::BaseDirHandle
    Base.cpp.lpc1768.arm.o(.constdata__ZTIN4mbed13BaseDirHandleE) refers to Base.cpp.lpc1768.arm.o(.constdata__ZTIN4mbed9DirHandleE) for typeinfo for mbed::DirHandle
    Base.cpp.lpc1768.arm.o(.constdata__ZTIN4mbed9DirHandleE) refers to lib_rtti_impl.o(.constdata__ZTVN10__cxxabiv117__class_type_infoE) for vtable for __cxxabiv1::__class_type_info
    Base.cpp.lpc1768.arm.o(.constdata__ZTIN4mbed9DirHandleE) refers to Base.cpp.lpc1768.arm.o(.constdata__ZTSN4mbed9DirHandleE) for typeinfo name for mbed::DirHandle
    Base.cpp.lpc1768.arm.o(i._ZN4mbed13BaseDirHandle8closedirEv) refers to delete.o(i._ZdlPv) for operator delete (void*)
    Base.cpp.lpc1768.arm.o(.ARM.exidx) refers to Base.cpp.lpc1768.arm.o(i._ZN4mbed13BaseDirHandle8closedirEv) for i._ZN4mbed13BaseDirHandle8closedirEv
    Base.cpp.lpc1768.arm.o(i._ZN4mbed13BaseDirHandle7readdirEv) refers to rtti.o(i.__dynamic_cast) for __dynamic_cast
    Base.cpp.lpc1768.arm.o(i._ZN4mbed13BaseDirHandle7readdirEv) refers to strncpy.o(.text) for strncpy
    Base.cpp.lpc1768.arm.o(i._ZN4mbed13BaseDirHandle7readdirEv) refers to Base.cpp.lpc1768.arm.o(.data) for .data
    Base.cpp.lpc1768.arm.o(i._ZN4mbed13BaseDirHandle7readdirEv) refers to stdio.cpp.lpc1768.arm.o(.constdata__ZTIN4mbed8FileLikeE) for typeinfo for mbed::FileLike
    Base.cpp.lpc1768.arm.o(i._ZN4mbed13BaseDirHandle7readdirEv) refers to Base.cpp.lpc1768.arm.o(.constdata__ZTIN4mbed4BaseE) for typeinfo for mbed::Base
    Base.cpp.lpc1768.arm.o(i._ZN4mbed13BaseDirHandle7readdirEv) refers to Base.cpp.lpc1768.arm.o(.constdata__ZTIN4mbed14FileSystemLikeE) for typeinfo for mbed::FileSystemLike
    Base.cpp.lpc1768.arm.o(.ARM.exidx) refers to Base.cpp.lpc1768.arm.o(i._ZN4mbed13BaseDirHandle7readdirEv) for i._ZN4mbed13BaseDirHandle7readdirEv
    Base.cpp.lpc1768.arm.o(.ARM.exidx) refers to Base.cpp.lpc1768.arm.o(i._ZN4mbed13BaseDirHandle7telldirEv) for i._ZN4mbed13BaseDirHandle7telldirEv
    Base.cpp.lpc1768.arm.o(.ARM.exidx) refers to Base.cpp.lpc1768.arm.o(i._ZN4mbed13BaseDirHandle7seekdirEl) for i._ZN4mbed13BaseDirHandle7seekdirEl
    Base.cpp.lpc1768.arm.o(.ARM.exidx) refers to Base.cpp.lpc1768.arm.o(i._ZN4mbed13BaseDirHandle9rewinddirEv) for i._ZN4mbed13BaseDirHandle9rewinddirEv
    Base.cpp.lpc1768.arm.o(.constdata__ZTIN4mbed14FileSystemLikeE) refers to lib_rtti_impl.o(.constdata__ZTVN10__cxxabiv120__si_class_type_infoE) for vtable for __cxxabiv1::__si_class_type_info
    Base.cpp.lpc1768.arm.o(.constdata__ZTIN4mbed14FileSystemLikeE) refers to Base.cpp.lpc1768.arm.o(.constdata__ZTSN4mbed14FileSystemLikeE) for typeinfo name for mbed::FileSystemLike
    Base.cpp.lpc1768.arm.o(.constdata__ZTIN4mbed14FileSystemLikeE) refers to Base.cpp.lpc1768.arm.o(.constdata__ZTIN4mbed4BaseE) for typeinfo for mbed::Base
    BusOut.cpp.lpc1768.arm.o(.constdata__ZTVN4mbed6BusOutE) refers to BusOut.cpp.lpc1768.arm.o(.constdata__ZTIN4mbed6BusOutE) for typeinfo for mbed::BusOut
    BusOut.cpp.lpc1768.arm.o(.constdata__ZTVN4mbed6BusOutE) refers to BusOut.cpp.lpc1768.arm.o(i._ZN4mbed6BusOutD1Ev) for mbed::BusOut::~BusOut()
    BusOut.cpp.lpc1768.arm.o(.constdata__ZTVN4mbed6BusOutE) refers to BusOut.cpp.lpc1768.arm.o(i._ZN4mbed6BusOutD0Ev) for mbed::BusOut::~BusOut__deallocating()
    BusOut.cpp.lpc1768.arm.o(.constdata__ZTVN4mbed6BusOutE) refers to Base.cpp.lpc1768.arm.o(i._ZN4mbed4Base3rpcEPKcS2_Pc) for mbed::Base::rpc(const char*, const char*, char*)
    BusOut.cpp.lpc1768.arm.o(.constdata__ZTVN4mbed6BusOutE) refers to BusOut.cpp.lpc1768.arm.o(i._ZN4mbed6BusOut15get_rpc_methodsEv) for mbed::BusOut::get_rpc_methods()
    BusOut.cpp.lpc1768.arm.o(t._ZN4mbed17rpc_method_callerINS_6BusOutEiXadL_ZNS1_5writeEiEEEEvPNS_4BaseEPKcPc) refers to PwmOut.cpp.lpc1768.arm.o(i._ZN4mbed10parse_charEPKcPS1_) for mbed::parse_char(const char*, const char**)
    BusOut.cpp.lpc1768.arm.o(t._ZN4mbed17rpc_method_callerINS_6BusOutEiXadL_ZNS1_5writeEiEEEEvPNS_4BaseEPKcPc) refers to strtol.o(.text) for strtol
    BusOut.cpp.lpc1768.arm.o(t._ZN4mbed17rpc_method_callerINS_6BusOutEiXadL_ZNS1_5writeEiEEEEvPNS_4BaseEPKcPc) refers to BusOut.cpp.lpc1768.arm.o(.constdata) for .constdata
    BusOut.cpp.lpc1768.arm.o(.ARM.exidx) refers to BusOut.cpp.lpc1768.arm.o(t._ZN4mbed17rpc_method_callerINS_6BusOutEiXadL_ZNS1_5writeEiEEEEvPNS_4BaseEPKcPc) for t._ZN4mbed17rpc_method_callerINS_6BusOutEiXadL_ZNS1_5writeEiEEEEvPNS_4BaseEPKcPc
    BusOut.cpp.lpc1768.arm.o(t._ZN4mbed17rpc_method_callerIiNS_6BusOutEXadL_ZNS1_4readEvEEEEvPNS_4BaseEPKcPc) refers to sprintf.o(.text) for sprintf
    BusOut.cpp.lpc1768.arm.o(t._ZN4mbed17rpc_method_callerIiNS_6BusOutEXadL_ZNS1_4readEvEEEEvPNS_4BaseEPKcPc) refers to BusOut.cpp.lpc1768.arm.o(.constdata) for .constdata
    BusOut.cpp.lpc1768.arm.o(t._ZN4mbed17rpc_method_callerIiNS_6BusOutEXadL_ZNS1_4readEvEEEEvPNS_4BaseEPKcPc) refers to BusOut.cpp.lpc1768.arm.o(.constdata___ARM__ZN4mbed12write_resultIiEEvT_Pc_anon0) for __ARM__ZN4mbed12write_resultIiEEvT_Pc_anon0
    BusOut.cpp.lpc1768.arm.o(.ARM.exidx) refers to BusOut.cpp.lpc1768.arm.o(t._ZN4mbed17rpc_method_callerIiNS_6BusOutEXadL_ZNS1_4readEvEEEEvPNS_4BaseEPKcPc) for t._ZN4mbed17rpc_method_callerIiNS_6BusOutEXadL_ZNS1_4readEvEEEEvPNS_4BaseEPKcPc
    BusOut.cpp.lpc1768.arm.o(.constdata__ZTIN4mbed6BusOutE) refers to lib_rtti_impl.o(.constdata__ZTVN10__cxxabiv120__si_class_type_infoE) for vtable for __cxxabiv1::__si_class_type_info
    BusOut.cpp.lpc1768.arm.o(.constdata__ZTIN4mbed6BusOutE) refers to BusOut.cpp.lpc1768.arm.o(.constdata__ZTSN4mbed6BusOutE) for typeinfo name for mbed::BusOut
    BusOut.cpp.lpc1768.arm.o(.constdata__ZTIN4mbed6BusOutE) refers to Base.cpp.lpc1768.arm.o(.constdata__ZTIN4mbed4BaseE) for typeinfo for mbed::Base
    I2C.cpp.lpc1768.arm.o(.constdata__ZTVN4mbed3I2CE) refers to I2C.cpp.lpc1768.arm.o(.constdata__ZTIN4mbed3I2CE) for typeinfo for mbed::I2C
    I2C.cpp.lpc1768.arm.o(.constdata__ZTVN4mbed3I2CE) refers to I2C.cpp.lpc1768.arm.o(i._ZN4mbed3I2CD1Ev) for mbed::I2C::~I2C()
    I2C.cpp.lpc1768.arm.o(.constdata__ZTVN4mbed3I2CE) refers to I2C.cpp.lpc1768.arm.o(i._ZN4mbed3I2CD0Ev) for mbed::I2C::~I2C__deallocating()
    I2C.cpp.lpc1768.arm.o(.constdata__ZTVN4mbed3I2CE) refers to Base.cpp.lpc1768.arm.o(i._ZN4mbed4Base3rpcEPKcS2_Pc) for mbed::Base::rpc(const char*, const char*, char*)
    I2C.cpp.lpc1768.arm.o(.constdata__ZTVN4mbed3I2CE) refers to Base.cpp.lpc1768.arm.o(i._ZN4mbed4Base15get_rpc_methodsEv) for mbed::Base::get_rpc_methods()
    I2C.cpp.lpc1768.arm.o(.constdata__ZTIN4mbed3I2CE) refers to lib_rtti_impl.o(.constdata__ZTVN10__cxxabiv120__si_class_type_infoE) for vtable for __cxxabiv1::__si_class_type_info
    I2C.cpp.lpc1768.arm.o(.constdata__ZTIN4mbed3I2CE) refers to I2C.cpp.lpc1768.arm.o(.constdata__ZTSN4mbed3I2CE) for typeinfo name for mbed::I2C
    I2C.cpp.lpc1768.arm.o(.constdata__ZTIN4mbed3I2CE) refers to Base.cpp.lpc1768.arm.o(.constdata__ZTIN4mbed4BaseE) for typeinfo for mbed::Base
    I2C.cpp.lpc1768.arm.o(i._ZN4mbed3I2CD1Ev) refers to Base.cpp.lpc1768.arm.o(i._ZN4mbed4BaseD1Ev) for mbed::Base::~Base()
    I2C.cpp.lpc1768.arm.o(.ARM.exidx) refers to I2C.cpp.lpc1768.arm.o(i._ZN4mbed3I2CD1Ev) for i._ZN4mbed3I2CD1Ev
    I2C.cpp.lpc1768.arm.o(i._ZN4mbed3I2CD0Ev) refers to Base.cpp.lpc1768.arm.o(i._ZN4mbed4BaseD1Ev) for mbed::Base::~Base()
    I2C.cpp.lpc1768.arm.o(i._ZN4mbed3I2CD0Ev) refers to delete.o(i._ZdlPv) for operator delete (void*)
    I2C.cpp.lpc1768.arm.o(.ARM.exidx) refers to I2C.cpp.lpc1768.arm.o(i._ZN4mbed3I2CD0Ev) for i._ZN4mbed3I2CD0Ev
    DigitalOut.cpp.lpc1768.arm.o(.constdata__ZTVN4mbed10DigitalOutE) refers to DigitalOut.cpp.lpc1768.arm.o(.constdata__ZTIN4mbed10DigitalOutE) for typeinfo for mbed::DigitalOut
    DigitalOut.cpp.lpc1768.arm.o(.constdata__ZTVN4mbed10DigitalOutE) refers to DigitalOut.cpp.lpc1768.arm.o(i._ZN4mbed10DigitalOutD1Ev) for mbed::DigitalOut::~DigitalOut()
    DigitalOut.cpp.lpc1768.arm.o(.constdata__ZTVN4mbed10DigitalOutE) refers to DigitalOut.cpp.lpc1768.arm.o(i._ZN4mbed10DigitalOutD0Ev) for mbed::DigitalOut::~DigitalOut__deallocating()
    DigitalOut.cpp.lpc1768.arm.o(.constdata__ZTVN4mbed10DigitalOutE) refers to Base.cpp.lpc1768.arm.o(i._ZN4mbed4Base3rpcEPKcS2_Pc) for mbed::Base::rpc(const char*, const char*, char*)
    DigitalOut.cpp.lpc1768.arm.o(.constdata__ZTVN4mbed10DigitalOutE) refers to DigitalOut.cpp.lpc1768.arm.o(i._ZN4mbed10DigitalOut15get_rpc_methodsEv) for mbed::DigitalOut::get_rpc_methods()
    DigitalOut.cpp.lpc1768.arm.o(i._ZN4mbed10DigitalOutD1Ev) refers to Base.cpp.lpc1768.arm.o(i._ZN4mbed4BaseD1Ev) for mbed::Base::~Base()
    DigitalOut.cpp.lpc1768.arm.o(.ARM.exidx) refers to DigitalOut.cpp.lpc1768.arm.o(i._ZN4mbed10DigitalOutD1Ev) for i._ZN4mbed10DigitalOutD1Ev
    DigitalOut.cpp.lpc1768.arm.o(t._ZN4mbed17rpc_method_callerINS_10DigitalOutEiXadL_ZNS1_5writeEiEEEEvPNS_4BaseEPKcPc) refers to PwmOut.cpp.lpc1768.arm.o(i._ZN4mbed10parse_charEPKcPS1_) for mbed::parse_char(const char*, const char**)
    DigitalOut.cpp.lpc1768.arm.o(t._ZN4mbed17rpc_method_callerINS_10DigitalOutEiXadL_ZNS1_5writeEiEEEEvPNS_4BaseEPKcPc) refers to strtol.o(.text) for strtol
    DigitalOut.cpp.lpc1768.arm.o(t._ZN4mbed17rpc_method_callerINS_10DigitalOutEiXadL_ZNS1_5writeEiEEEEvPNS_4BaseEPKcPc) refers to DigitalOut.cpp.lpc1768.arm.o(.constdata) for .constdata
    DigitalOut.cpp.lpc1768.arm.o(.ARM.exidx) refers to DigitalOut.cpp.lpc1768.arm.o(t._ZN4mbed17rpc_method_callerINS_10DigitalOutEiXadL_ZNS1_5writeEiEEEEvPNS_4BaseEPKcPc) for t._ZN4mbed17rpc_method_callerINS_10DigitalOutEiXadL_ZNS1_5writeEiEEEEvPNS_4BaseEPKcPc
    DigitalOut.cpp.lpc1768.arm.o(t._ZN4mbed17rpc_method_callerIiNS_10DigitalOutEXadL_ZNS1_4readEvEEEEvPNS_4BaseEPKcPc) refers to sprintf.o(.text) for sprintf
    DigitalOut.cpp.lpc1768.arm.o(t._ZN4mbed17rpc_method_callerIiNS_10DigitalOutEXadL_ZNS1_4readEvEEEEvPNS_4BaseEPKcPc) refers to DigitalOut.cpp.lpc1768.arm.o(.constdata) for .constdata
    DigitalOut.cpp.lpc1768.arm.o(t._ZN4mbed17rpc_method_callerIiNS_10DigitalOutEXadL_ZNS1_4readEvEEEEvPNS_4BaseEPKcPc) refers to BusOut.cpp.lpc1768.arm.o(.constdata___ARM__ZN4mbed12write_resultIiEEvT_Pc_anon0) for __ARM__ZN4mbed12write_resultIiEEvT_Pc_anon0
    DigitalOut.cpp.lpc1768.arm.o(.ARM.exidx) refers to DigitalOut.cpp.lpc1768.arm.o(t._ZN4mbed17rpc_method_callerIiNS_10DigitalOutEXadL_ZNS1_4readEvEEEEvPNS_4BaseEPKcPc) for t._ZN4mbed17rpc_method_callerIiNS_10DigitalOutEXadL_ZNS1_4readEvEEEEvPNS_4BaseEPKcPc
    DigitalOut.cpp.lpc1768.arm.o(t._ZN4mbed19rpc_function_callerIPKc7PinNameS2_XadL_ZNS_4Base9constructINS_10DigitalOutES3_S2_EES2_T0_T1_EEEEvS2_Pc) refers to rt_memcpy_w.o(.text) for __aeabi_memcpy4
    DigitalOut.cpp.lpc1768.arm.o(t._ZN4mbed19rpc_function_callerIPKc7PinNameS2_XadL_ZNS_4Base9constructINS_10DigitalOutES3_S2_EES2_T0_T1_EEEEvS2_Pc) refers to array_new.o(i._Znaj) for operator new[] (unsigned)
    DigitalOut.cpp.lpc1768.arm.o(t._ZN4mbed19rpc_function_callerIPKc7PinNameS2_XadL_ZNS_4Base9constructINS_10DigitalOutES3_S2_EES2_T0_T1_EEEEvS2_Pc) refers to strtol.o(.text) for strtol
    DigitalOut.cpp.lpc1768.arm.o(t._ZN4mbed19rpc_function_callerIPKc7PinNameS2_XadL_ZNS_4Base9constructINS_10DigitalOutES3_S2_EES2_T0_T1_EEEEvS2_Pc) refers to rt_memcpy_v6.o(.text) for __aeabi_memcpy
    DigitalOut.cpp.lpc1768.arm.o(t._ZN4mbed19rpc_function_callerIPKc7PinNameS2_XadL_ZNS_4Base9constructINS_10DigitalOutES3_S2_EES2_T0_T1_EEEEvS2_Pc) refers to new.o(i._Znwj) for operator new(unsigned)
    DigitalOut.cpp.lpc1768.arm.o(t._ZN4mbed19rpc_function_callerIPKc7PinNameS2_XadL_ZNS_4Base9constructINS_10DigitalOutES3_S2_EES2_T0_T1_EEEEvS2_Pc) refers to Base.cpp.lpc1768.arm.o(i._ZN4mbed4BaseC1EPKc) for mbed::Base::Base(const char*)
    DigitalOut.cpp.lpc1768.arm.o(t._ZN4mbed19rpc_function_callerIPKc7PinNameS2_XadL_ZNS_4Base9constructINS_10DigitalOutES3_S2_EES2_T0_T1_EEEEvS2_Pc) refers to gpio_api.c.lpc1768.arm.o(i.gpio_output) for gpio_output
    DigitalOut.cpp.lpc1768.arm.o(t._ZN4mbed19rpc_function_callerIPKc7PinNameS2_XadL_ZNS_4Base9constructINS_10DigitalOutES3_S2_EES2_T0_T1_EEEEvS2_Pc) refers to Base.cpp.lpc1768.arm.o(i._ZN4mbed4Base8new_nameEPS0_) for mbed::Base::new_name(mbed::Base*)
    DigitalOut.cpp.lpc1768.arm.o(t._ZN4mbed19rpc_function_callerIPKc7PinNameS2_XadL_ZNS_4Base9constructINS_10DigitalOutES3_S2_EES2_T0_T1_EEEEvS2_Pc) refers to Base.cpp.lpc1768.arm.o(i._ZN4mbed4Base15register_objectEPKc) for mbed::Base::register_object(const char*)
    DigitalOut.cpp.lpc1768.arm.o(t._ZN4mbed19rpc_function_callerIPKc7PinNameS2_XadL_ZNS_4Base9constructINS_10DigitalOutES3_S2_EES2_T0_T1_EEEEvS2_Pc) refers to strcpy.o(.text) for strcpy
    DigitalOut.cpp.lpc1768.arm.o(t._ZN4mbed19rpc_function_callerIPKc7PinNameS2_XadL_ZNS_4Base9constructINS_10DigitalOutES3_S2_EES2_T0_T1_EEEEvS2_Pc) refers to aeabi_ctype_def.o(.constdata) for __aeabi_ctype_table_
    DigitalOut.cpp.lpc1768.arm.o(t._ZN4mbed19rpc_function_callerIPKc7PinNameS2_XadL_ZNS_4Base9constructINS_10DigitalOutES3_S2_EES2_T0_T1_EEEEvS2_Pc) refers to PwmOut.cpp.lpc1768.arm.o(.constdata___ARM__ZN4mbed10parse_pinsEPKc_anon0) for __ARM__ZN4mbed10parse_pinsEPKc_anon0
    DigitalOut.cpp.lpc1768.arm.o(t._ZN4mbed19rpc_function_callerIPKc7PinNameS2_XadL_ZNS_4Base9constructINS_10DigitalOutES3_S2_EES2_T0_T1_EEEEvS2_Pc) refers to DigitalOut.cpp.lpc1768.arm.o(.constdata__ZTVN4mbed10DigitalOutE) for vtable for mbed::DigitalOut
    DigitalOut.cpp.lpc1768.arm.o(.ARM.exidx) refers to DigitalOut.cpp.lpc1768.arm.o(t._ZN4mbed19rpc_function_callerIPKc7PinNameS2_XadL_ZNS_4Base9constructINS_10DigitalOutES3_S2_EES2_T0_T1_EEEEvS2_Pc) for t._ZN4mbed19rpc_function_callerIPKc7PinNameS2_XadL_ZNS_4Base9constructINS_10DigitalOutES3_S2_EES2_T0_T1_EEEEvS2_Pc
    DigitalOut.cpp.lpc1768.arm.o(i._ZN4mbed10DigitalOutD0Ev) refers to Base.cpp.lpc1768.arm.o(i._ZN4mbed4BaseD1Ev) for mbed::Base::~Base()
    DigitalOut.cpp.lpc1768.arm.o(i._ZN4mbed10DigitalOutD0Ev) refers to delete.o(i._ZdlPv) for operator delete (void*)
    DigitalOut.cpp.lpc1768.arm.o(.ARM.exidx) refers to DigitalOut.cpp.lpc1768.arm.o(i._ZN4mbed10DigitalOutD0Ev) for i._ZN4mbed10DigitalOutD0Ev
    DigitalOut.cpp.lpc1768.arm.o(.constdata__ZTIN4mbed10DigitalOutE) refers to lib_rtti_impl.o(.constdata__ZTVN10__cxxabiv120__si_class_type_infoE) for vtable for __cxxabiv1::__si_class_type_info
    DigitalOut.cpp.lpc1768.arm.o(.constdata__ZTIN4mbed10DigitalOutE) refers to DigitalOut.cpp.lpc1768.arm.o(.constdata__ZTSN4mbed10DigitalOutE) for typeinfo name for mbed::DigitalOut
    DigitalOut.cpp.lpc1768.arm.o(.constdata__ZTIN4mbed10DigitalOutE) refers to Base.cpp.lpc1768.arm.o(.constdata__ZTIN4mbed4BaseE) for typeinfo for mbed::Base
    Serial.cpp.lpc1768.arm.o(.constdata__ZTVN4mbed6SerialE) refers to Serial.cpp.lpc1768.arm.o(.constdata__ZTIN4mbed6SerialE) for typeinfo for mbed::Serial
    Serial.cpp.lpc1768.arm.o(.constdata__ZTVN4mbed6SerialE) refers to Serial.cpp.lpc1768.arm.o(i._ZN4mbed6SerialD1Ev) for mbed::Serial::~Serial()
    Serial.cpp.lpc1768.arm.o(.constdata__ZTVN4mbed6SerialE) refers to Serial.cpp.lpc1768.arm.o(i._ZN4mbed6SerialD0Ev) for mbed::Serial::~Serial__deallocating()
    Serial.cpp.lpc1768.arm.o(.constdata__ZTVN4mbed6SerialE) refers to Base.cpp.lpc1768.arm.o(i._ZN4mbed4Base3rpcEPKcS2_Pc) for mbed::Base::rpc(const char*, const char*, char*)
    Serial.cpp.lpc1768.arm.o(.constdata__ZTVN4mbed6SerialE) refers to Serial.cpp.lpc1768.arm.o(i._ZN4mbed6Serial15get_rpc_methodsEv) for mbed::Serial::get_rpc_methods()
    Serial.cpp.lpc1768.arm.o(.constdata__ZTVN4mbed6SerialE) refers to Stream.cpp.lpc1768.arm.o(i._ZN4mbed6Stream5closeEv) for mbed::Stream::close()
    Serial.cpp.lpc1768.arm.o(.constdata__ZTVN4mbed6SerialE) refers to Stream.cpp.lpc1768.arm.o(i._ZN4mbed6Stream5writeEPKvj) for mbed::Stream::write(const void*, unsigned)
    Serial.cpp.lpc1768.arm.o(.constdata__ZTVN4mbed6SerialE) refers to Stream.cpp.lpc1768.arm.o(i._ZN4mbed6Stream4readEPvj) for mbed::Stream::read(void*, unsigned)
    Serial.cpp.lpc1768.arm.o(.constdata__ZTVN4mbed6SerialE) refers to Stream.cpp.lpc1768.arm.o(i._ZN4mbed6Stream5lseekEli) for mbed::Stream::lseek(long, int)
    Serial.cpp.lpc1768.arm.o(.constdata__ZTVN4mbed6SerialE) refers to Stream.cpp.lpc1768.arm.o(i._ZN4mbed6Stream6isattyEv) for mbed::Stream::isatty()
    Serial.cpp.lpc1768.arm.o(.constdata__ZTVN4mbed6SerialE) refers to Stream.cpp.lpc1768.arm.o(i._ZN4mbed6Stream5fsyncEv) for mbed::Stream::fsync()
    Serial.cpp.lpc1768.arm.o(.constdata__ZTVN4mbed6SerialE) refers to Stream.cpp.lpc1768.arm.o(i._ZN4mbed6Stream4flenEv) for mbed::Stream::flen()
    Serial.cpp.lpc1768.arm.o(.constdata__ZTVN4mbed6SerialE) refers to Serial.cpp.lpc1768.arm.o(i._ZN4mbed6Serial5_putcEi) for mbed::Serial::_putc(int)
    Serial.cpp.lpc1768.arm.o(.constdata__ZTVN4mbed6SerialE) refers to Serial.cpp.lpc1768.arm.o(i._ZN4mbed6Serial5_getcEv) for mbed::Serial::_getc()
    Serial.cpp.lpc1768.arm.o(.constdata__ZTVN4mbed6SerialE) refers to Stream.cpp.lpc1768.arm.o(i._ZThn16_N4mbed6Stream5writeEPKvj) for thunk{-16} to mbed::Stream::write(const void*, unsigned)
    Serial.cpp.lpc1768.arm.o(.constdata__ZTVN4mbed6SerialE) refers to Stream.cpp.lpc1768.arm.o(i._ZThn16_N4mbed6Stream5closeEv) for thunk{-16} to mbed::Stream::close()
    Serial.cpp.lpc1768.arm.o(.constdata__ZTVN4mbed6SerialE) refers to Stream.cpp.lpc1768.arm.o(i._ZThn16_N4mbed6Stream4readEPvj) for thunk{-16} to mbed::Stream::read(void*, unsigned)
    Serial.cpp.lpc1768.arm.o(.constdata__ZTVN4mbed6SerialE) refers to Stream.cpp.lpc1768.arm.o(i._ZThn16_N4mbed6Stream6isattyEv) for thunk{-16} to mbed::Stream::isatty()
    Serial.cpp.lpc1768.arm.o(.constdata__ZTVN4mbed6SerialE) refers to Stream.cpp.lpc1768.arm.o(i._ZThn16_N4mbed6Stream5lseekEli) for thunk{-16} to mbed::Stream::lseek(long, int)
    Serial.cpp.lpc1768.arm.o(.constdata__ZTVN4mbed6SerialE) refers to Stream.cpp.lpc1768.arm.o(i._ZThn16_N4mbed6Stream5fsyncEv) for thunk{-16} to mbed::Stream::fsync()
    Serial.cpp.lpc1768.arm.o(.constdata__ZTVN4mbed6SerialE) refers to Stream.cpp.lpc1768.arm.o(i._ZThn16_N4mbed6Stream4flenEv) for thunk{-16} to mbed::Stream::flen()
    Serial.cpp.lpc1768.arm.o(i._ZN4mbed6SerialD1Ev) refers to Stream.cpp.lpc1768.arm.o(i._ZN4mbed6StreamD2Ev) for mbed::Stream::~Stream__sub_object()
    Serial.cpp.lpc1768.arm.o(.ARM.exidx) refers to Serial.cpp.lpc1768.arm.o(i._ZN4mbed6SerialD1Ev) for i._ZN4mbed6SerialD1Ev
    Serial.cpp.lpc1768.arm.o(t._ZN4mbed17rpc_method_callerINS_6SerialEiXadL_ZNS1_4baudEiEEEEvPNS_4BaseEPKcPc) refers to PwmOut.cpp.lpc1768.arm.o(i._ZN4mbed10parse_charEPKcPS1_) for mbed::parse_char(const char*, const char**)
    Serial.cpp.lpc1768.arm.o(t._ZN4mbed17rpc_method_callerINS_6SerialEiXadL_ZNS1_4baudEiEEEEvPNS_4BaseEPKcPc) refers to strtol.o(.text) for strtol
    Serial.cpp.lpc1768.arm.o(t._ZN4mbed17rpc_method_callerINS_6SerialEiXadL_ZNS1_4baudEiEEEEvPNS_4BaseEPKcPc) refers to Serial.cpp.lpc1768.arm.o(.constdata) for .constdata
    Serial.cpp.lpc1768.arm.o(.ARM.exidx) refers to Serial.cpp.lpc1768.arm.o(t._ZN4mbed17rpc_method_callerINS_6SerialEiXadL_ZNS1_4baudEiEEEEvPNS_4BaseEPKcPc) for t._ZN4mbed17rpc_method_callerINS_6SerialEiXadL_ZNS1_4baudEiEEEEvPNS_4BaseEPKcPc
    Serial.cpp.lpc1768.arm.o(t._ZN4mbed17rpc_method_callerIiNS_6SerialEXadL_ZNS1_8readableEvEEEEvPNS_4BaseEPKcPc) refers to sprintf.o(.text) for sprintf
    Serial.cpp.lpc1768.arm.o(t._ZN4mbed17rpc_method_callerIiNS_6SerialEXadL_ZNS1_8readableEvEEEEvPNS_4BaseEPKcPc) refers to Serial.cpp.lpc1768.arm.o(.constdata) for .constdata
    Serial.cpp.lpc1768.arm.o(t._ZN4mbed17rpc_method_callerIiNS_6SerialEXadL_ZNS1_8readableEvEEEEvPNS_4BaseEPKcPc) refers to BusOut.cpp.lpc1768.arm.o(.constdata___ARM__ZN4mbed12write_resultIiEEvT_Pc_anon0) for __ARM__ZN4mbed12write_resultIiEEvT_Pc_anon0
    Serial.cpp.lpc1768.arm.o(.ARM.exidx) refers to Serial.cpp.lpc1768.arm.o(t._ZN4mbed17rpc_method_callerIiNS_6SerialEXadL_ZNS1_8readableEvEEEEvPNS_4BaseEPKcPc) for t._ZN4mbed17rpc_method_callerIiNS_6SerialEXadL_ZNS1_8readableEvEEEEvPNS_4BaseEPKcPc
    Serial.cpp.lpc1768.arm.o(t._ZN4mbed17rpc_method_callerIiNS_6SerialEXadL_ZNS1_9writeableEvEEEEvPNS_4BaseEPKcPc) refers to sprintf.o(.text) for sprintf
    Serial.cpp.lpc1768.arm.o(t._ZN4mbed17rpc_method_callerIiNS_6SerialEXadL_ZNS1_9writeableEvEEEEvPNS_4BaseEPKcPc) refers to Serial.cpp.lpc1768.arm.o(.constdata) for .constdata
    Serial.cpp.lpc1768.arm.o(t._ZN4mbed17rpc_method_callerIiNS_6SerialEXadL_ZNS1_9writeableEvEEEEvPNS_4BaseEPKcPc) refers to BusOut.cpp.lpc1768.arm.o(.constdata___ARM__ZN4mbed12write_resultIiEEvT_Pc_anon0) for __ARM__ZN4mbed12write_resultIiEEvT_Pc_anon0
    Serial.cpp.lpc1768.arm.o(.ARM.exidx) refers to Serial.cpp.lpc1768.arm.o(t._ZN4mbed17rpc_method_callerIiNS_6SerialEXadL_ZNS1_9writeableEvEEEEvPNS_4BaseEPKcPc) for t._ZN4mbed17rpc_method_callerIiNS_6SerialEXadL_ZNS1_9writeableEvEEEEvPNS_4BaseEPKcPc
    Serial.cpp.lpc1768.arm.o(t._ZN4mbed9rpc_superINS_6StreamEEEPKNS_10rpc_methodEPNS_4BaseE) refers to Stream.cpp.lpc1768.arm.o(i._ZN4mbed6Stream15get_rpc_methodsEv) for mbed::Stream::get_rpc_methods()
    Serial.cpp.lpc1768.arm.o(.ARM.exidx) refers to Serial.cpp.lpc1768.arm.o(t._ZN4mbed9rpc_superINS_6StreamEEEPKNS_10rpc_methodEPNS_4BaseE) for t._ZN4mbed9rpc_superINS_6StreamEEEPKNS_10rpc_methodEPNS_4BaseE
    Serial.cpp.lpc1768.arm.o(t._ZN4mbed19rpc_function_callerIPKc7PinNameS3_S2_XadL_ZNS_4Base9constructINS_6SerialES3_S3_S2_EES2_T0_T1_T2_EEEEvS2_Pc) refers to Serial.cpp.lpc1768.arm.o(i._ZN4mbed9parse_argI7PinNameEET_PKcPS4_) for mbed::parse_arg<PinName>(const char*, const char**)
    Serial.cpp.lpc1768.arm.o(t._ZN4mbed19rpc_function_callerIPKc7PinNameS3_S2_XadL_ZNS_4Base9constructINS_6SerialES3_S3_S2_EES2_T0_T1_T2_EEEEvS2_Pc) refers to array_new.o(i._Znaj) for operator new[] (unsigned)
    Serial.cpp.lpc1768.arm.o(t._ZN4mbed19rpc_function_callerIPKc7PinNameS3_S2_XadL_ZNS_4Base9constructINS_6SerialES3_S3_S2_EES2_T0_T1_T2_EEEEvS2_Pc) refers to strtol.o(.text) for strtol
    Serial.cpp.lpc1768.arm.o(t._ZN4mbed19rpc_function_callerIPKc7PinNameS3_S2_XadL_ZNS_4Base9constructINS_6SerialES3_S3_S2_EES2_T0_T1_T2_EEEEvS2_Pc) refers to rt_memcpy_v6.o(.text) for __aeabi_memcpy
    Serial.cpp.lpc1768.arm.o(t._ZN4mbed19rpc_function_callerIPKc7PinNameS3_S2_XadL_ZNS_4Base9constructINS_6SerialES3_S3_S2_EES2_T0_T1_T2_EEEEvS2_Pc) refers to new.o(i._Znwj) for operator new(unsigned)
    Serial.cpp.lpc1768.arm.o(t._ZN4mbed19rpc_function_callerIPKc7PinNameS3_S2_XadL_ZNS_4Base9constructINS_6SerialES3_S3_S2_EES2_T0_T1_T2_EEEEvS2_Pc) refers to Stream.cpp.lpc1768.arm.o(i._ZN4mbed6StreamC2EPKc) for mbed::Stream::Stream__sub_object(const char*)
    Serial.cpp.lpc1768.arm.o(t._ZN4mbed19rpc_function_callerIPKc7PinNameS3_S2_XadL_ZNS_4Base9constructINS_6SerialES3_S3_S2_EES2_T0_T1_T2_EEEEvS2_Pc) refers to FunctionPointer.cpp.lpc1768.arm.o(i._ZN4mbed15FunctionPointerC1EPFvvE) for mbed::FunctionPointer::FunctionPointer(void(*)())
    Serial.cpp.lpc1768.arm.o(t._ZN4mbed19rpc_function_callerIPKc7PinNameS3_S2_XadL_ZNS_4Base9constructINS_6SerialES3_S3_S2_EES2_T0_T1_T2_EEEEvS2_Pc) refers to serial_api.c.lpc1768.arm.o(i.serial_init) for serial_init
    Serial.cpp.lpc1768.arm.o(t._ZN4mbed19rpc_function_callerIPKc7PinNameS3_S2_XadL_ZNS_4Base9constructINS_6SerialES3_S3_S2_EES2_T0_T1_T2_EEEEvS2_Pc) refers to Base.cpp.lpc1768.arm.o(i._ZN4mbed4Base8new_nameEPS0_) for mbed::Base::new_name(mbed::Base*)
    Serial.cpp.lpc1768.arm.o(t._ZN4mbed19rpc_function_callerIPKc7PinNameS3_S2_XadL_ZNS_4Base9constructINS_6SerialES3_S3_S2_EES2_T0_T1_T2_EEEEvS2_Pc) refers to Base.cpp.lpc1768.arm.o(i._ZN4mbed4Base15register_objectEPKc) for mbed::Base::register_object(const char*)
    Serial.cpp.lpc1768.arm.o(t._ZN4mbed19rpc_function_callerIPKc7PinNameS3_S2_XadL_ZNS_4Base9constructINS_6SerialES3_S3_S2_EES2_T0_T1_T2_EEEEvS2_Pc) refers to strcpy.o(.text) for strcpy
    Serial.cpp.lpc1768.arm.o(t._ZN4mbed19rpc_function_callerIPKc7PinNameS3_S2_XadL_ZNS_4Base9constructINS_6SerialES3_S3_S2_EES2_T0_T1_T2_EEEEvS2_Pc) refers to aeabi_ctype_def.o(.constdata) for __aeabi_ctype_table_
    Serial.cpp.lpc1768.arm.o(t._ZN4mbed19rpc_function_callerIPKc7PinNameS3_S2_XadL_ZNS_4Base9constructINS_6SerialES3_S3_S2_EES2_T0_T1_T2_EEEEvS2_Pc) refers to Serial.cpp.lpc1768.arm.o(.constdata__ZTVN4mbed6SerialE) for vtable for mbed::Serial
    Serial.cpp.lpc1768.arm.o(.ARM.exidx) refers to Serial.cpp.lpc1768.arm.o(t._ZN4mbed19rpc_function_callerIPKc7PinNameS3_S2_XadL_ZNS_4Base9constructINS_6SerialES3_S3_S2_EES2_T0_T1_T2_EEEEvS2_Pc) for t._ZN4mbed19rpc_function_callerIPKc7PinNameS3_S2_XadL_ZNS_4Base9constructINS_6SerialES3_S3_S2_EES2_T0_T1_T2_EEEEvS2_Pc
    Serial.cpp.lpc1768.arm.o(i._ZN4mbed6SerialD0Ev) refers to Stream.cpp.lpc1768.arm.o(i._ZN4mbed6StreamD2Ev) for mbed::Stream::~Stream__sub_object()
    Serial.cpp.lpc1768.arm.o(i._ZN4mbed6SerialD0Ev) refers to delete.o(i._ZdlPv) for operator delete (void*)
    Serial.cpp.lpc1768.arm.o(.ARM.exidx) refers to Serial.cpp.lpc1768.arm.o(i._ZN4mbed6SerialD0Ev) for i._ZN4mbed6SerialD0Ev
    Serial.cpp.lpc1768.arm.o(i._ZN4mbed9parse_argI7PinNameEET_PKcPS4_) refers to rt_memcpy_w.o(.text) for __aeabi_memcpy4
    Serial.cpp.lpc1768.arm.o(i._ZN4mbed9parse_argI7PinNameEET_PKcPS4_) refers to aeabi_ctype_def.o(.constdata) for __aeabi_ctype_table_
    Serial.cpp.lpc1768.arm.o(i._ZN4mbed9parse_argI7PinNameEET_PKcPS4_) refers to PwmOut.cpp.lpc1768.arm.o(.constdata___ARM__ZN4mbed10parse_pinsEPKc_anon0) for __ARM__ZN4mbed10parse_pinsEPKc_anon0
    Serial.cpp.lpc1768.arm.o(.ARM.exidx) refers to Serial.cpp.lpc1768.arm.o(i._ZN4mbed9parse_argI7PinNameEET_PKcPS4_) for i._ZN4mbed9parse_argI7PinNameEET_PKcPS4_
    Serial.cpp.lpc1768.arm.o(.constdata__ZTIN4mbed6SerialE) refers to lib_rtti_impl.o(.constdata__ZTVN10__cxxabiv120__si_class_type_infoE) for vtable for __cxxabiv1::__si_class_type_info
    Serial.cpp.lpc1768.arm.o(.constdata__ZTIN4mbed6SerialE) refers to Serial.cpp.lpc1768.arm.o(.constdata__ZTSN4mbed6SerialE) for typeinfo name for mbed::Serial
    Serial.cpp.lpc1768.arm.o(.constdata__ZTIN4mbed6SerialE) refers to Stream.cpp.lpc1768.arm.o(.constdata__ZTIN4mbed6StreamE) for typeinfo for mbed::Stream
    Stream.cpp.lpc1768.arm.o(.constdata__ZTVN4mbed6StreamE) refers to Stream.cpp.lpc1768.arm.o(.constdata__ZTIN4mbed6StreamE) for typeinfo for mbed::Stream
    Stream.cpp.lpc1768.arm.o(.constdata__ZTVN4mbed6StreamE) refers to Stream.cpp.lpc1768.arm.o(i._ZN4mbed6StreamD2Ev) for mbed::Stream::~Stream__sub_object()
    Stream.cpp.lpc1768.arm.o(.constdata__ZTVN4mbed6StreamE) refers to Stream.cpp.lpc1768.arm.o(i._ZN4mbed6StreamD0Ev) for mbed::Stream::~Stream__deallocating()
    Stream.cpp.lpc1768.arm.o(.constdata__ZTVN4mbed6StreamE) refers to Base.cpp.lpc1768.arm.o(i._ZN4mbed4Base3rpcEPKcS2_Pc) for mbed::Base::rpc(const char*, const char*, char*)
    Stream.cpp.lpc1768.arm.o(.constdata__ZTVN4mbed6StreamE) refers to Stream.cpp.lpc1768.arm.o(i._ZN4mbed6Stream15get_rpc_methodsEv) for mbed::Stream::get_rpc_methods()
    Stream.cpp.lpc1768.arm.o(.constdata__ZTVN4mbed6StreamE) refers to Stream.cpp.lpc1768.arm.o(i._ZN4mbed6Stream5closeEv) for mbed::Stream::close()
    Stream.cpp.lpc1768.arm.o(.constdata__ZTVN4mbed6StreamE) refers to Stream.cpp.lpc1768.arm.o(i._ZN4mbed6Stream5writeEPKvj) for mbed::Stream::write(const void*, unsigned)
    Stream.cpp.lpc1768.arm.o(.constdata__ZTVN4mbed6StreamE) refers to Stream.cpp.lpc1768.arm.o(i._ZN4mbed6Stream4readEPvj) for mbed::Stream::read(void*, unsigned)
    Stream.cpp.lpc1768.arm.o(.constdata__ZTVN4mbed6StreamE) refers to Stream.cpp.lpc1768.arm.o(i._ZN4mbed6Stream5lseekEli) for mbed::Stream::lseek(long, int)
    Stream.cpp.lpc1768.arm.o(.constdata__ZTVN4mbed6StreamE) refers to Stream.cpp.lpc1768.arm.o(i._ZN4mbed6Stream6isattyEv) for mbed::Stream::isatty()
    Stream.cpp.lpc1768.arm.o(.constdata__ZTVN4mbed6StreamE) refers to Stream.cpp.lpc1768.arm.o(i._ZN4mbed6Stream5fsyncEv) for mbed::Stream::fsync()
    Stream.cpp.lpc1768.arm.o(.constdata__ZTVN4mbed6StreamE) refers to Stream.cpp.lpc1768.arm.o(i._ZN4mbed6Stream4flenEv) for mbed::Stream::flen()
    Stream.cpp.lpc1768.arm.o(.constdata__ZTVN4mbed6StreamE) refers to pure_virt.o(i.__cxa_pure_virtual) for __cxa_pure_virtual
    Stream.cpp.lpc1768.arm.o(.constdata__ZTVN4mbed6StreamE) refers to Stream.cpp.lpc1768.arm.o(i._ZThn16_N4mbed6Stream5writeEPKvj) for thunk{-16} to mbed::Stream::write(const void*, unsigned)
    Stream.cpp.lpc1768.arm.o(.constdata__ZTVN4mbed6StreamE) refers to Stream.cpp.lpc1768.arm.o(i._ZThn16_N4mbed6Stream5closeEv) for thunk{-16} to mbed::Stream::close()
    Stream.cpp.lpc1768.arm.o(.constdata__ZTVN4mbed6StreamE) refers to Stream.cpp.lpc1768.arm.o(i._ZThn16_N4mbed6Stream4readEPvj) for thunk{-16} to mbed::Stream::read(void*, unsigned)
    Stream.cpp.lpc1768.arm.o(.constdata__ZTVN4mbed6StreamE) refers to Stream.cpp.lpc1768.arm.o(i._ZThn16_N4mbed6Stream6isattyEv) for thunk{-16} to mbed::Stream::isatty()
    Stream.cpp.lpc1768.arm.o(.constdata__ZTVN4mbed6StreamE) refers to Stream.cpp.lpc1768.arm.o(i._ZThn16_N4mbed6Stream5lseekEli) for thunk{-16} to mbed::Stream::lseek(long, int)
    Stream.cpp.lpc1768.arm.o(.constdata__ZTVN4mbed6StreamE) refers to Stream.cpp.lpc1768.arm.o(i._ZThn16_N4mbed6Stream5fsyncEv) for thunk{-16} to mbed::Stream::fsync()
    Stream.cpp.lpc1768.arm.o(.constdata__ZTVN4mbed6StreamE) refers to Stream.cpp.lpc1768.arm.o(i._ZThn16_N4mbed6Stream4flenEv) for thunk{-16} to mbed::Stream::flen()
    Stream.cpp.lpc1768.arm.o(t._ZN4mbed17rpc_method_callerIiNS_6StreamEiXadL_ZNS1_4putcEiEEEEvPNS_4BaseEPKcPc) refers to PwmOut.cpp.lpc1768.arm.o(i._ZN4mbed10parse_charEPKcPS1_) for mbed::parse_char(const char*, const char**)
    Stream.cpp.lpc1768.arm.o(t._ZN4mbed17rpc_method_callerIiNS_6StreamEiXadL_ZNS1_4putcEiEEEEvPNS_4BaseEPKcPc) refers to strtol.o(.text) for strtol
    Stream.cpp.lpc1768.arm.o(t._ZN4mbed17rpc_method_callerIiNS_6StreamEiXadL_ZNS1_4putcEiEEEEvPNS_4BaseEPKcPc) refers to sprintf.o(.text) for sprintf
    Stream.cpp.lpc1768.arm.o(t._ZN4mbed17rpc_method_callerIiNS_6StreamEiXadL_ZNS1_4putcEiEEEEvPNS_4BaseEPKcPc) refers to Stream.cpp.lpc1768.arm.o(.constdata) for .constdata
    Stream.cpp.lpc1768.arm.o(t._ZN4mbed17rpc_method_callerIiNS_6StreamEiXadL_ZNS1_4putcEiEEEEvPNS_4BaseEPKcPc) refers to BusOut.cpp.lpc1768.arm.o(.constdata___ARM__ZN4mbed12write_resultIiEEvT_Pc_anon0) for __ARM__ZN4mbed12write_resultIiEEvT_Pc_anon0
    Stream.cpp.lpc1768.arm.o(.ARM.exidx) refers to Stream.cpp.lpc1768.arm.o(t._ZN4mbed17rpc_method_callerIiNS_6StreamEiXadL_ZNS1_4putcEiEEEEvPNS_4BaseEPKcPc) for t._ZN4mbed17rpc_method_callerIiNS_6StreamEiXadL_ZNS1_4putcEiEEEEvPNS_4BaseEPKcPc
    Stream.cpp.lpc1768.arm.o(t._ZN4mbed17rpc_method_callerIiNS_6StreamEXadL_ZNS1_4getcEvEEEEvPNS_4BaseEPKcPc) refers to sprintf.o(.text) for sprintf
    Stream.cpp.lpc1768.arm.o(t._ZN4mbed17rpc_method_callerIiNS_6StreamEXadL_ZNS1_4getcEvEEEEvPNS_4BaseEPKcPc) refers to Stream.cpp.lpc1768.arm.o(.constdata) for .constdata
    Stream.cpp.lpc1768.arm.o(t._ZN4mbed17rpc_method_callerIiNS_6StreamEXadL_ZNS1_4getcEvEEEEvPNS_4BaseEPKcPc) refers to BusOut.cpp.lpc1768.arm.o(.constdata___ARM__ZN4mbed12write_resultIiEEvT_Pc_anon0) for __ARM__ZN4mbed12write_resultIiEEvT_Pc_anon0
    Stream.cpp.lpc1768.arm.o(.ARM.exidx) refers to Stream.cpp.lpc1768.arm.o(t._ZN4mbed17rpc_method_callerIiNS_6StreamEXadL_ZNS1_4getcEvEEEEvPNS_4BaseEPKcPc) for t._ZN4mbed17rpc_method_callerIiNS_6StreamEXadL_ZNS1_4getcEvEEEEvPNS_4BaseEPKcPc
    Stream.cpp.lpc1768.arm.o(t._ZN4mbed17rpc_method_callerIiNS_6StreamEPKcXadL_ZNS1_4putsES3_EEEEvPNS_4BaseES3_Pc) refers to array_new.o(i._Znaj) for operator new[] (unsigned)
    Stream.cpp.lpc1768.arm.o(t._ZN4mbed17rpc_method_callerIiNS_6StreamEPKcXadL_ZNS1_4putsES3_EEEEvPNS_4BaseES3_Pc) refers to strtol.o(.text) for strtol
    Stream.cpp.lpc1768.arm.o(t._ZN4mbed17rpc_method_callerIiNS_6StreamEPKcXadL_ZNS1_4putsES3_EEEEvPNS_4BaseES3_Pc) refers to rt_memcpy_v6.o(.text) for __aeabi_memcpy
    Stream.cpp.lpc1768.arm.o(t._ZN4mbed17rpc_method_callerIiNS_6StreamEPKcXadL_ZNS1_4putsES3_EEEEvPNS_4BaseES3_Pc) refers to sprintf.o(.text) for sprintf
    Stream.cpp.lpc1768.arm.o(t._ZN4mbed17rpc_method_callerIiNS_6StreamEPKcXadL_ZNS1_4putsES3_EEEEvPNS_4BaseES3_Pc) refers to aeabi_ctype_def.o(.constdata) for __aeabi_ctype_table_
    Stream.cpp.lpc1768.arm.o(t._ZN4mbed17rpc_method_callerIiNS_6StreamEPKcXadL_ZNS1_4putsES3_EEEEvPNS_4BaseES3_Pc) refers to Stream.cpp.lpc1768.arm.o(.constdata) for .constdata
    Stream.cpp.lpc1768.arm.o(t._ZN4mbed17rpc_method_callerIiNS_6StreamEPKcXadL_ZNS1_4putsES3_EEEEvPNS_4BaseES3_Pc) refers to BusOut.cpp.lpc1768.arm.o(.constdata___ARM__ZN4mbed12write_resultIiEEvT_Pc_anon0) for __ARM__ZN4mbed12write_resultIiEEvT_Pc_anon0
    Stream.cpp.lpc1768.arm.o(.ARM.exidx) refers to Stream.cpp.lpc1768.arm.o(t._ZN4mbed17rpc_method_callerIiNS_6StreamEPKcXadL_ZNS1_4putsES3_EEEEvPNS_4BaseES3_Pc) for t._ZN4mbed17rpc_method_callerIiNS_6StreamEPKcXadL_ZNS1_4putsES3_EEEEvPNS_4BaseES3_Pc
    Stream.cpp.lpc1768.arm.o(i._ZN4mbed6Stream4putcEi) refers to fflush.o(.text) for fflush
    Stream.cpp.lpc1768.arm.o(i._ZN4mbed6Stream4putcEi) refers to fputc.o(i.fputc) for fputc
    Stream.cpp.lpc1768.arm.o(.ARM.exidx) refers to Stream.cpp.lpc1768.arm.o(i._ZN4mbed6Stream4putcEi) for i._ZN4mbed6Stream4putcEi
    Stream.cpp.lpc1768.arm.o(i._ZN4mbed6Stream4putsEPKc) refers to fflush.o(.text) for fflush
    Stream.cpp.lpc1768.arm.o(i._ZN4mbed6Stream4putsEPKc) refers to fputs.o(.text) for fputs
    Stream.cpp.lpc1768.arm.o(.ARM.exidx) refers to Stream.cpp.lpc1768.arm.o(i._ZN4mbed6Stream4putsEPKc) for i._ZN4mbed6Stream4putsEPKc
    Stream.cpp.lpc1768.arm.o(i._ZN4mbed6Stream4getcEv) refers to fflush.o(.text) for fflush
    Stream.cpp.lpc1768.arm.o(i._ZN4mbed6Stream4getcEv) refers to fgetc.o(i.fgetc) for fgetc
    Stream.cpp.lpc1768.arm.o(.ARM.exidx) refers to Stream.cpp.lpc1768.arm.o(i._ZN4mbed6Stream4getcEv) for i._ZN4mbed6Stream4getcEv
    Stream.cpp.lpc1768.arm.o(.constdata__ZTIN4mbed6StreamE) refers to lib_rtti_impl.o(.constdata__ZTVN10__cxxabiv120__si_class_type_infoE) for vtable for __cxxabiv1::__si_class_type_info
    Stream.cpp.lpc1768.arm.o(.constdata__ZTIN4mbed6StreamE) refers to Stream.cpp.lpc1768.arm.o(.constdata__ZTSN4mbed6StreamE) for typeinfo name for mbed::Stream
    Stream.cpp.lpc1768.arm.o(.constdata__ZTIN4mbed6StreamE) refers to stdio.cpp.lpc1768.arm.o(.constdata__ZTIN4mbed8FileLikeE) for typeinfo for mbed::FileLike
    stdio.cpp.lpc1768.arm.o(.constdata__ZTVN4mbed8FileLikeE) refers to stdio.cpp.lpc1768.arm.o(.constdata__ZTIN4mbed8FileLikeE) for typeinfo for mbed::FileLike
    stdio.cpp.lpc1768.arm.o(.constdata__ZTVN4mbed8FileLikeE) refers to stdio.cpp.lpc1768.arm.o(i._ZN4mbed8FileLikeD2Ev) for mbed::FileLike::~FileLike__sub_object()
    stdio.cpp.lpc1768.arm.o(.constdata__ZTVN4mbed8FileLikeE) refers to stdio.cpp.lpc1768.arm.o(i._ZN4mbed8FileLikeD0Ev) for mbed::FileLike::~FileLike__deallocating()
    stdio.cpp.lpc1768.arm.o(.constdata__ZTVN4mbed8FileLikeE) refers to Base.cpp.lpc1768.arm.o(i._ZN4mbed4Base3rpcEPKcS2_Pc) for mbed::Base::rpc(const char*, const char*, char*)
    stdio.cpp.lpc1768.arm.o(.constdata__ZTVN4mbed8FileLikeE) refers to Base.cpp.lpc1768.arm.o(i._ZN4mbed4Base15get_rpc_methodsEv) for mbed::Base::get_rpc_methods()
    stdio.cpp.lpc1768.arm.o(.constdata__ZTVN4mbed8FileLikeE) refers to pure_virt.o(i.__cxa_pure_virtual) for __cxa_pure_virtual
    stdio.cpp.lpc1768.arm.o(.constdata__ZTVN4mbed8FileLikeE) refers to stdio.cpp.lpc1768.arm.o(i._ZN4mbed10FileHandle4flenEv) for mbed::FileHandle::flen()
    stdio.cpp.lpc1768.arm.o(.ARM.exidx) refers to stdio.cpp.lpc1768.arm.o(i._ZN4mbed10FileHandle4flenEv) for i._ZN4mbed10FileHandle4flenEv
    stdio.cpp.lpc1768.arm.o(.constdata__ZTIN4mbed8FileLikeE) refers to lib_rtti_impl.o(.constdata__ZTVN10__cxxabiv121__vmi_class_type_infoE) for vtable for __cxxabiv1::__vmi_class_type_info
    stdio.cpp.lpc1768.arm.o(.constdata__ZTIN4mbed8FileLikeE) refers to stdio.cpp.lpc1768.arm.o(.constdata__ZTSN4mbed8FileLikeE) for typeinfo name for mbed::FileLike
    stdio.cpp.lpc1768.arm.o(.constdata__ZTIN4mbed8FileLikeE) refers to Base.cpp.lpc1768.arm.o(.constdata__ZTIN4mbed4BaseE) for typeinfo for mbed::Base
    stdio.cpp.lpc1768.arm.o(.constdata__ZTIN4mbed8FileLikeE) refers to stdio.cpp.lpc1768.arm.o(.constdata__ZTIN4mbed10FileHandleE) for typeinfo for mbed::FileHandle
    stdio.cpp.lpc1768.arm.o(.constdata__ZTIN4mbed10FileHandleE) refers to lib_rtti_impl.o(.constdata__ZTVN10__cxxabiv117__class_type_infoE) for vtable for __cxxabiv1::__class_type_info
    stdio.cpp.lpc1768.arm.o(.constdata__ZTIN4mbed10FileHandleE) refers to stdio.cpp.lpc1768.arm.o(.constdata__ZTSN4mbed10FileHandleE) for typeinfo name for mbed::FileHandle
    rtti.o(i.__ARM_common_get_typeid) refers to arm_bad_typeid_noexceptions.o(.text) for __cxa_bad_typeid
    rtti.o(.ARM.exidx) refers to rtti.o(i.__ARM_common_get_typeid) for i.__ARM_common_get_typeid
    rtti.o(.ARM.exidx) refers to unwind_pr0.o(.text) for __aeabi_unwind_cpp_pr0
    lib_rtti_impl.o(.constdata__ZTVN10__cxxabiv123__fundamental_type_infoE) refers to lib_rtti_impl.o(.constdata__ZTIN10__cxxabiv123__fundamental_type_infoE) for typeinfo for __cxxabiv1::__fundamental_type_info
    lib_rtti_impl.o(.constdata__ZTVN10__cxxabiv123__fundamental_type_infoE) refers to lib_rtti_impl.o(i._ZN10__cxxabiv123__fundamental_type_infoD1Ev) for __cxxabiv1::__fundamental_type_info::~__fundamental_type_info()
    lib_rtti_impl.o(.constdata__ZTVN10__cxxabiv123__fundamental_type_infoE) refers to lib_rtti_impl.o(i._ZN10__cxxabiv123__fundamental_type_infoD0Ev) for __cxxabiv1::__fundamental_type_info::~__fundamental_type_info__deallocating()
    lib_rtti_impl.o(.constdata__ZTVN10__cxxabiv117__array_type_infoE) refers to lib_rtti_impl.o(.constdata__ZTIN10__cxxabiv117__array_type_infoE) for typeinfo for __cxxabiv1::__array_type_info
    lib_rtti_impl.o(.constdata__ZTVN10__cxxabiv117__array_type_infoE) refers to lib_rtti_impl.o(i._ZN10__cxxabiv117__array_type_infoD1Ev) for __cxxabiv1::__array_type_info::~__array_type_info()
    lib_rtti_impl.o(.constdata__ZTVN10__cxxabiv117__array_type_infoE) refers to lib_rtti_impl.o(i._ZN10__cxxabiv117__array_type_infoD0Ev) for __cxxabiv1::__array_type_info::~__array_type_info__deallocating()
    lib_rtti_impl.o(.constdata__ZTVN10__cxxabiv120__function_type_infoE) refers to lib_rtti_impl.o(.constdata__ZTIN10__cxxabiv120__function_type_infoE) for typeinfo for __cxxabiv1::__function_type_info
    lib_rtti_impl.o(.constdata__ZTVN10__cxxabiv120__function_type_infoE) refers to lib_rtti_impl.o(i._ZN10__cxxabiv120__function_type_infoD1Ev) for __cxxabiv1::__function_type_info::~__function_type_info()
    lib_rtti_impl.o(.constdata__ZTVN10__cxxabiv120__function_type_infoE) refers to lib_rtti_impl.o(i._ZN10__cxxabiv120__function_type_infoD0Ev) for __cxxabiv1::__function_type_info::~__function_type_info__deallocating()
    lib_rtti_impl.o(.constdata__ZTVN10__cxxabiv116__enum_type_infoE) refers to lib_rtti_impl.o(.constdata__ZTIN10__cxxabiv116__enum_type_infoE) for typeinfo for __cxxabiv1::__enum_type_info
    lib_rtti_impl.o(.constdata__ZTVN10__cxxabiv116__enum_type_infoE) refers to lib_rtti_impl.o(i._ZN10__cxxabiv116__enum_type_infoD1Ev) for __cxxabiv1::__enum_type_info::~__enum_type_info()
    lib_rtti_impl.o(.constdata__ZTVN10__cxxabiv116__enum_type_infoE) refers to lib_rtti_impl.o(i._ZN10__cxxabiv116__enum_type_infoD0Ev) for __cxxabiv1::__enum_type_info::~__enum_type_info__deallocating()
    lib_rtti_impl.o(.constdata__ZTVN10__cxxabiv117__class_type_infoE) refers to lib_rtti_impl.o(.constdata__ZTIN10__cxxabiv117__class_type_infoE) for typeinfo for __cxxabiv1::__class_type_info
    lib_rtti_impl.o(.constdata__ZTVN10__cxxabiv117__class_type_infoE) refers to lib_rtti_impl.o(i._ZN10__cxxabiv117__class_type_infoD1Ev) for __cxxabiv1::__class_type_info::~__class_type_info()
    lib_rtti_impl.o(.constdata__ZTVN10__cxxabiv117__class_type_infoE) refers to lib_rtti_impl.o(i._ZN10__cxxabiv117__class_type_infoD0Ev) for __cxxabiv1::__class_type_info::~__class_type_info__deallocating()
    lib_rtti_impl.o(.constdata__ZTVN10__cxxabiv120__si_class_type_infoE) refers to lib_rtti_impl.o(.constdata__ZTIN10__cxxabiv120__si_class_type_infoE) for typeinfo for __cxxabiv1::__si_class_type_info
    lib_rtti_impl.o(.constdata__ZTVN10__cxxabiv120__si_class_type_infoE) refers to lib_rtti_impl.o(i._ZN10__cxxabiv120__si_class_type_infoD1Ev) for __cxxabiv1::__si_class_type_info::~__si_class_type_info()
    lib_rtti_impl.o(.constdata__ZTVN10__cxxabiv120__si_class_type_infoE) refers to lib_rtti_impl.o(i._ZN10__cxxabiv120__si_class_type_infoD0Ev) for __cxxabiv1::__si_class_type_info::~__si_class_type_info__deallocating()
    lib_rtti_impl.o(.constdata__ZTVN10__cxxabiv121__vmi_class_type_infoE) refers to lib_rtti_impl.o(.constdata__ZTIN10__cxxabiv121__vmi_class_type_infoE) for typeinfo for __cxxabiv1::__vmi_class_type_info
    lib_rtti_impl.o(.constdata__ZTVN10__cxxabiv121__vmi_class_type_infoE) refers to lib_rtti_impl.o(i._ZN10__cxxabiv121__vmi_class_type_infoD1Ev) for __cxxabiv1::__vmi_class_type_info::~__vmi_class_type_info()
    lib_rtti_impl.o(.constdata__ZTVN10__cxxabiv121__vmi_class_type_infoE) refers to lib_rtti_impl.o(i._ZN10__cxxabiv121__vmi_class_type_infoD0Ev) for __cxxabiv1::__vmi_class_type_info::~__vmi_class_type_info__deallocating()
    lib_rtti_impl.o(.constdata__ZTVN10__cxxabiv117__pbase_type_infoE) refers to lib_rtti_impl.o(.constdata__ZTIN10__cxxabiv117__pbase_type_infoE) for typeinfo for __cxxabiv1::__pbase_type_info
    lib_rtti_impl.o(.constdata__ZTVN10__cxxabiv117__pbase_type_infoE) refers to lib_rtti_impl.o(i._ZN10__cxxabiv117__pbase_type_infoD1Ev) for __cxxabiv1::__pbase_type_info::~__pbase_type_info()
    lib_rtti_impl.o(.constdata__ZTVN10__cxxabiv117__pbase_type_infoE) refers to lib_rtti_impl.o(i._ZN10__cxxabiv117__pbase_type_infoD0Ev) for __cxxabiv1::__pbase_type_info::~__pbase_type_info__deallocating()
    lib_rtti_impl.o(.constdata__ZTVN10__cxxabiv119__pointer_type_infoE) refers to lib_rtti_impl.o(.constdata__ZTIN10__cxxabiv119__pointer_type_infoE) for typeinfo for __cxxabiv1::__pointer_type_info
    lib_rtti_impl.o(.constdata__ZTVN10__cxxabiv119__pointer_type_infoE) refers to lib_rtti_impl.o(i._ZN10__cxxabiv119__pointer_type_infoD1Ev) for __cxxabiv1::__pointer_type_info::~__pointer_type_info()
    lib_rtti_impl.o(.constdata__ZTVN10__cxxabiv119__pointer_type_infoE) refers to lib_rtti_impl.o(i._ZN10__cxxabiv119__pointer_type_infoD0Ev) for __cxxabiv1::__pointer_type_info::~__pointer_type_info__deallocating()
    lib_rtti_impl.o(.constdata__ZTVN10__cxxabiv129__pointer_to_member_type_infoE) refers to lib_rtti_impl.o(.constdata__ZTIN10__cxxabiv129__pointer_to_member_type_infoE) for typeinfo for __cxxabiv1::__pointer_to_member_type_info
    lib_rtti_impl.o(.constdata__ZTVN10__cxxabiv129__pointer_to_member_type_infoE) refers to lib_rtti_impl.o(i._ZN10__cxxabiv129__pointer_to_member_type_infoD1Ev) for __cxxabiv1::__pointer_to_member_type_info::~__pointer_to_member_type_info()
    lib_rtti_impl.o(.constdata__ZTVN10__cxxabiv129__pointer_to_member_type_infoE) refers to lib_rtti_impl.o(i._ZN10__cxxabiv129__pointer_to_member_type_infoD0Ev) for __cxxabiv1::__pointer_to_member_type_info::~__pointer_to_member_type_info__deallocating()
    lib_rtti_impl.o(.constdata__ZTIN10__cxxabiv123__fundamental_type_infoE) refers to lib_rtti_impl.o(.constdata__ZTVN10__cxxabiv120__si_class_type_infoE) for vtable for __cxxabiv1::__si_class_type_info
    lib_rtti_impl.o(.constdata__ZTIN10__cxxabiv123__fundamental_type_infoE) refers to lib_rtti_impl.o(.constdata__ZTSN10__cxxabiv123__fundamental_type_infoE) for typeinfo name for __cxxabiv1::__fundamental_type_info
    lib_rtti_impl.o(.constdata__ZTIN10__cxxabiv123__fundamental_type_infoE) refers to type_info_dtor.o(.constdata__ZTISt9type_info) for typeinfo for std::type_info
    lib_rtti_impl.o(.constdata__ZTIN10__cxxabiv117__array_type_infoE) refers to lib_rtti_impl.o(.constdata__ZTVN10__cxxabiv120__si_class_type_infoE) for vtable for __cxxabiv1::__si_class_type_info
    lib_rtti_impl.o(.constdata__ZTIN10__cxxabiv117__array_type_infoE) refers to lib_rtti_impl.o(.constdata__ZTSN10__cxxabiv117__array_type_infoE) for typeinfo name for __cxxabiv1::__array_type_info
    lib_rtti_impl.o(.constdata__ZTIN10__cxxabiv117__array_type_infoE) refers to type_info_dtor.o(.constdata__ZTISt9type_info) for typeinfo for std::type_info
    lib_rtti_impl.o(.constdata__ZTIN10__cxxabiv120__function_type_infoE) refers to lib_rtti_impl.o(.constdata__ZTVN10__cxxabiv120__si_class_type_infoE) for vtable for __cxxabiv1::__si_class_type_info
    lib_rtti_impl.o(.constdata__ZTIN10__cxxabiv120__function_type_infoE) refers to lib_rtti_impl.o(.constdata__ZTSN10__cxxabiv120__function_type_infoE) for typeinfo name for __cxxabiv1::__function_type_info
    lib_rtti_impl.o(.constdata__ZTIN10__cxxabiv120__function_type_infoE) refers to type_info_dtor.o(.constdata__ZTISt9type_info) for typeinfo for std::type_info
    lib_rtti_impl.o(.constdata__ZTIN10__cxxabiv116__enum_type_infoE) refers to lib_rtti_impl.o(.constdata__ZTVN10__cxxabiv120__si_class_type_infoE) for vtable for __cxxabiv1::__si_class_type_info
    lib_rtti_impl.o(.constdata__ZTIN10__cxxabiv116__enum_type_infoE) refers to lib_rtti_impl.o(.constdata__ZTSN10__cxxabiv116__enum_type_infoE) for typeinfo name for __cxxabiv1::__enum_type_info
    lib_rtti_impl.o(.constdata__ZTIN10__cxxabiv116__enum_type_infoE) refers to type_info_dtor.o(.constdata__ZTISt9type_info) for typeinfo for std::type_info
    lib_rtti_impl.o(.constdata__ZTIN10__cxxabiv117__class_type_infoE) refers to lib_rtti_impl.o(.constdata__ZTVN10__cxxabiv120__si_class_type_infoE) for vtable for __cxxabiv1::__si_class_type_info
    lib_rtti_impl.o(.constdata__ZTIN10__cxxabiv117__class_type_infoE) refers to lib_rtti_impl.o(.constdata__ZTSN10__cxxabiv117__class_type_infoE) for typeinfo name for __cxxabiv1::__class_type_info
    lib_rtti_impl.o(.constdata__ZTIN10__cxxabiv117__class_type_infoE) refers to type_info_dtor.o(.constdata__ZTISt9type_info) for typeinfo for std::type_info
    lib_rtti_impl.o(.constdata__ZTIN10__cxxabiv120__si_class_type_infoE) refers to lib_rtti_impl.o(.constdata__ZTVN10__cxxabiv120__si_class_type_infoE) for vtable for __cxxabiv1::__si_class_type_info
    lib_rtti_impl.o(.constdata__ZTIN10__cxxabiv120__si_class_type_infoE) refers to lib_rtti_impl.o(.constdata__ZTSN10__cxxabiv120__si_class_type_infoE) for typeinfo name for __cxxabiv1::__si_class_type_info
    lib_rtti_impl.o(.constdata__ZTIN10__cxxabiv120__si_class_type_infoE) refers to lib_rtti_impl.o(.constdata__ZTIN10__cxxabiv117__class_type_infoE) for typeinfo for __cxxabiv1::__class_type_info
    lib_rtti_impl.o(.constdata__ZTIN10__cxxabiv121__vmi_class_type_infoE) refers to lib_rtti_impl.o(.constdata__ZTVN10__cxxabiv120__si_class_type_infoE) for vtable for __cxxabiv1::__si_class_type_info
    lib_rtti_impl.o(.constdata__ZTIN10__cxxabiv121__vmi_class_type_infoE) refers to lib_rtti_impl.o(.constdata__ZTSN10__cxxabiv121__vmi_class_type_infoE) for typeinfo name for __cxxabiv1::__vmi_class_type_info
    lib_rtti_impl.o(.constdata__ZTIN10__cxxabiv121__vmi_class_type_infoE) refers to lib_rtti_impl.o(.constdata__ZTIN10__cxxabiv117__class_type_infoE) for typeinfo for __cxxabiv1::__class_type_info
    lib_rtti_impl.o(.constdata__ZTIN10__cxxabiv117__pbase_type_infoE) refers to lib_rtti_impl.o(.constdata__ZTVN10__cxxabiv120__si_class_type_infoE) for vtable for __cxxabiv1::__si_class_type_info
    lib_rtti_impl.o(.constdata__ZTIN10__cxxabiv117__pbase_type_infoE) refers to lib_rtti_impl.o(.constdata__ZTSN10__cxxabiv117__pbase_type_infoE) for typeinfo name for __cxxabiv1::__pbase_type_info
    lib_rtti_impl.o(.constdata__ZTIN10__cxxabiv117__pbase_type_infoE) refers to type_info_dtor.o(.constdata__ZTISt9type_info) for typeinfo for std::type_info
    lib_rtti_impl.o(.constdata__ZTIN10__cxxabiv119__pointer_type_infoE) refers to lib_rtti_impl.o(.constdata__ZTVN10__cxxabiv120__si_class_type_infoE) for vtable for __cxxabiv1::__si_class_type_info
    lib_rtti_impl.o(.constdata__ZTIN10__cxxabiv119__pointer_type_infoE) refers to lib_rtti_impl.o(.constdata__ZTSN10__cxxabiv119__pointer_type_infoE) for typeinfo name for __cxxabiv1::__pointer_type_info
    lib_rtti_impl.o(.constdata__ZTIN10__cxxabiv119__pointer_type_infoE) refers to lib_rtti_impl.o(.constdata__ZTIN10__cxxabiv117__pbase_type_infoE) for typeinfo for __cxxabiv1::__pbase_type_info
    lib_rtti_impl.o(.constdata__ZTIN10__cxxabiv129__pointer_to_member_type_infoE) refers to lib_rtti_impl.o(.constdata__ZTVN10__cxxabiv120__si_class_type_infoE) for vtable for __cxxabiv1::__si_class_type_info
    lib_rtti_impl.o(.constdata__ZTIN10__cxxabiv129__pointer_to_member_type_infoE) refers to lib_rtti_impl.o(.constdata__ZTSN10__cxxabiv129__pointer_to_member_type_infoE) for typeinfo name for __cxxabiv1::__pointer_to_member_type_info
    lib_rtti_impl.o(.constdata__ZTIN10__cxxabiv129__pointer_to_member_type_infoE) refers to lib_rtti_impl.o(.constdata__ZTIN10__cxxabiv117__pbase_type_infoE) for typeinfo for __cxxabiv1::__pbase_type_info
    bad_alloc_dtor.o(.constdata__ZTVSt9bad_alloc) refers to bad_alloc_dtor.o(.constdata__ZTISt9bad_alloc) for typeinfo for std::bad_alloc
    bad_alloc_dtor.o(.constdata__ZTVSt9bad_alloc) refers to bad_alloc_dtor.o(i._ZNSt9bad_allocD1Ev) for std::bad_alloc::~bad_alloc()
    bad_alloc_dtor.o(.constdata__ZTVSt9bad_alloc) refers to bad_alloc_dtor.o(i._ZNSt9bad_allocD0Ev) for std::bad_alloc::~bad_alloc__deallocating()
    bad_alloc_dtor.o(.constdata__ZTVSt9bad_alloc) refers to bad_alloc_what.o(i._ZNKSt9bad_alloc4whatEv) for std::bad_alloc::what() const
    bad_alloc_dtor.o(.constdata__ZTISt9bad_alloc) refers to lib_rtti_impl.o(.constdata__ZTVN10__cxxabiv120__si_class_type_infoE) for vtable for __cxxabiv1::__si_class_type_info
    bad_alloc_dtor.o(.constdata__ZTISt9bad_alloc) refers to bad_alloc_dtor.o(.constdata__ZTSSt9bad_alloc) for typeinfo name for std::bad_alloc
    bad_alloc_dtor.o(.constdata__ZTISt9bad_alloc) refers to exception_dtor.o(.constdata__ZTISt9exception) for typeinfo for std::exception
    type_info_dtor.o(.constdata__ZTVSt9type_info) refers to type_info_dtor.o(.constdata__ZTISt9type_info) for typeinfo for std::type_info
    type_info_dtor.o(.constdata__ZTVSt9type_info) refers to type_info_dtor.o(i._ZNSt9type_infoD1Ev) for std::type_info::~type_info()
    type_info_dtor.o(.constdata__ZTVSt9type_info) refers to type_info_dtor.o(i._ZNSt9type_infoD0Ev) for std::type_info::~type_info__deallocating()
    type_info_dtor.o(.constdata__ZTISt9type_info) refers to lib_rtti_impl.o(.constdata__ZTVN10__cxxabiv117__class_type_infoE) for vtable for __cxxabiv1::__class_type_info
    type_info_dtor.o(.constdata__ZTISt9type_info) refers to type_info_dtor.o(.constdata__ZTSSt9type_info) for typeinfo name for std::type_info
    exception_dtor.o(.constdata__ZTVSt9exception) refers to exception_dtor.o(.constdata__ZTISt9exception) for typeinfo for std::exception
    exception_dtor.o(.constdata__ZTVSt9exception) refers to exception_dtor.o(i._ZNSt9exceptionD1Ev) for std::exception::~exception()
    exception_dtor.o(.constdata__ZTVSt9exception) refers to exception_dtor.o(i._ZNSt9exceptionD0Ev) for std::exception::~exception__deallocating()
    exception_dtor.o(.constdata__ZTVSt9exception) refers to exception_what.o(i._ZNKSt9exception4whatEv) for std::exception::what() const
    exception_dtor.o(.constdata__ZTISt9exception) refers to lib_rtti_impl.o(.constdata__ZTVN10__cxxabiv117__class_type_infoE) for vtable for __cxxabiv1::__class_type_info
    exception_dtor.o(.constdata__ZTISt9exception) refers to exception_dtor.o(.constdata__ZTSSt9exception) for typeinfo name for std::exception


==============================================================================

Removing Unused input sections from the image.

    Removing nrk_cpu.o(i._Z16nrk_battery_savev), (2 bytes).
    Removing nrk_cpu.o(i._Z8nrk_idlev), (4 bytes).
    Removing nrk_cpu.o(i._Z9nrk_sleepv), (4 bytes).
    Removing nrk_cpu.o(.ARM.exidx), (8 bytes).
    Removing nrk_cpu.o(.ARM.exidx), (8 bytes).
    Removing nrk_cpu.o(.ARM.exidx), (8 bytes).
    Removing nrk_cpu.o(.ARM.exidx), (8 bytes).
    Removing nrk_cpu.o(.ARM.exidx), (8 bytes).
    Removing nrk_cpu.o(.ARM.exidx), (8 bytes).
    Removing nrk_cpu.o(.ARM.exidx), (8 bytes).
    Removing nrk_cpu.o(.ARM.exidx), (8 bytes).
    Removing nrk_cpu.o(.ARM.exidx), (8 bytes).
    Removing nrk_status.o(i._Z18_nrk_startup_errorv), (100 bytes).
    Removing nrk_status.o(.ARM.exidx), (8 bytes).
    Removing nrk_timer.o(i._Z17_nrk_os_timer_seth), (2 bytes).
    Removing nrk_timer.o(i._Z18_nrk_os_timer_stopv), (2 bytes).
    Removing nrk_timer.o(i._Z18nrk_timer_int_readh), (4 bytes).
    Removing nrk_timer.o(i._Z18nrk_timer_int_stoph), (6 bytes).
    Removing nrk_timer.o(i._Z19nrk_timer_int_reseth), (6 bytes).
    Removing nrk_timer.o(i._Z19nrk_timer_int_starth), (6 bytes).
    Removing nrk_timer.o(i._Z23nrk_timer_int_configurehttPv), (6 bytes).
    Removing nrk_timer.o(i._Z26_nrk_high_speed_timer_stopv), (2 bytes).
    Removing nrk_timer.o(i._Z27_nrk_high_speed_timer_startv), (2 bytes).
    Removing nrk_timer.o(.ARM.exidx), (8 bytes).
    Removing nrk_timer.o(.ARM.exidx), (8 bytes).
    Removing nrk_timer.o(.ARM.exidx), (8 bytes).
    Removing nrk_timer.o(.ARM.exidx), (8 bytes).
    Removing nrk_timer.o(.ARM.exidx), (8 bytes).
    Removing nrk_timer.o(.ARM.exidx), (8 bytes).
    Removing nrk_timer.o(.ARM.exidx), (8 bytes).
    Removing nrk_timer.o(.ARM.exidx), (8 bytes).
    Removing nrk_timer.o(.ARM.exidx), (8 bytes).
    Removing nrk_timer.o(.ARM.exidx), (8 bytes).
    Removing nrk_timer.o(.ARM.exidx), (8 bytes).
    Removing nrk_timer.o(.ARM.exidx), (8 bytes).
    Removing nrk_timer.o(.ARM.exidx), (8 bytes).
    Removing nrk_timer.o(.ARM.exidx), (8 bytes).
    Removing nrk_timer.o(.ARM.exidx), (8 bytes).
    Removing nrk_timer.o(.ARM.exidx), (8 bytes).
    Removing nrk_timer.o(.ARM.exidx), (8 bytes).
    Removing nrk_timer.o(.ARM.exidx), (8 bytes).
    Removing nrk_timer.o(.ARM.exidx), (8 bytes).
    Removing nrk_timer.o(.ARM.exidx), (8 bytes).
    Removing nrk_timer.o(.ARM.exidx), (8 bytes).
    Removing nrk_timer.o(.ARM.exidx), (8 bytes).
    Removing nrk_watchdog.o(i._Z18nrk_watchdog_checkv), (28 bytes).
    Removing nrk_watchdog.o(i._Z19nrk_watchdog_enablev), (56 bytes).
    Removing nrk_watchdog.o(i._Z20nrk_watchdog_disablev), (2 bytes).
    Removing nrk_watchdog.o(.ARM.exidx), (8 bytes).
    Removing nrk_watchdog.o(.ARM.exidx), (8 bytes).
    Removing nrk_watchdog.o(.ARM.exidx), (8 bytes).
    Removing nrk.o(i._Z11nrk_versionv), (4 bytes).
    Removing nrk.o(i._Z8nrk_haltv), (4 bytes).
    Removing nrk.o(.ARM.exidx), (8 bytes).
    Removing nrk.o(.ARM.exidx), (8 bytes).
    Removing nrk.o(.ARM.exidx), (8 bytes).
    Removing nrk.o(.ARM.exidx), (8 bytes).
    Removing nrk.o(.ARM.exidx), (8 bytes).
    Removing nrk.o(.ARM.exidx), (8 bytes).
    Removing nrk.o(.ARM.exidx), (8 bytes).
    Removing nrk.o(.ARM.exidx), (8 bytes).
    Removing nrk.o(.data), (1 bytes).
    Removing nrk.o(.data), (6 bytes).
    Removing nrk_error.o(i._Z10blink_dashv), (34 bytes).
    Removing nrk_error.o(i._Z13nrk_errno_getv), (12 bytes).
    Removing nrk_error.o(i._Z13nrk_error_getPhS_), (24 bytes).
    Removing nrk_error.o(i._Z15nrk_error_printv), (800 bytes).
    Removing nrk_error.o(i._Z22blink_morse_code_errorh), (216 bytes).
    Removing nrk_error.o(i._Z5pausev), (24 bytes).
    Removing nrk_error.o(i._Z9blink_dotv), (26 bytes).
    Removing nrk_error.o(.ARM.exidx), (8 bytes).
    Removing nrk_error.o(.ARM.exidx), (8 bytes).
    Removing nrk_error.o(.ARM.exidx), (8 bytes).
    Removing nrk_error.o(.ARM.exidx), (8 bytes).
    Removing nrk_error.o(.ARM.exidx), (8 bytes).
    Removing nrk_error.o(.ARM.exidx), (8 bytes).
    Removing nrk_error.o(.ARM.exidx), (8 bytes).
    Removing nrk_error.o(.ARM.exidx), (8 bytes).
    Removing nrk_error.o(.ARM.exidx), (8 bytes).
    Removing nrk_error.o(.ARM.exidx), (8 bytes).
    Removing nrk_events.o(i._Z12nrk_sem_pendP14semaphore_type), (108 bytes).
    Removing nrk_events.o(i._Z12nrk_sem_postP14semaphore_type), (140 bytes).
    Removing nrk_events.o(i._Z13nrk_sem_queryP14semaphore_type), (48 bytes).
    Removing nrk_events.o(i._Z14nrk_sem_createhh), (64 bytes).
    Removing nrk_events.o(i._Z14nrk_sem_deleteP14semaphore_type), (64 bytes).
    Removing nrk_events.o(i._Z17nrk_signal_deletea), (120 bytes).
    Removing nrk_events.o(i._Z21nrk_signal_unregistera), (40 bytes).
    Removing nrk_events.o(i._Z22nrk_get_resource_indexP14semaphore_type), (36 bytes).
    Removing nrk_events.o(i._Z30nrk_signal_get_registered_maskv), (12 bytes).
    Removing nrk_events.o(.ARM.exidx), (8 bytes).
    Removing nrk_events.o(.ARM.exidx), (8 bytes).
    Removing nrk_events.o(.ARM.exidx), (8 bytes).
    Removing nrk_events.o(.ARM.exidx), (8 bytes).
    Removing nrk_events.o(.ARM.exidx), (8 bytes).
    Removing nrk_events.o(.ARM.exidx), (8 bytes).
    Removing nrk_events.o(.ARM.exidx), (8 bytes).
    Removing nrk_events.o(.ARM.exidx), (8 bytes).
    Removing nrk_events.o(.ARM.exidx), (8 bytes).
    Removing nrk_events.o(.ARM.exidx), (8 bytes).
    Removing nrk_events.o(.ARM.exidx), (8 bytes).
    Removing nrk_events.o(.ARM.exidx), (8 bytes).
    Removing nrk_events.o(.ARM.exidx), (8 bytes).
    Removing nrk_idle_task.o(.ARM.exidx), (8 bytes).
    Removing nrk_scheduler.o(.ARM.exidx), (8 bytes).
    Removing nrk_scheduler.o(.data), (1 bytes).
    Removing nrk_stack_check.o(i._Z15dump_stack_infov), (248 bytes).
    Removing nrk_stack_check.o(i._Z19nrk_stack_check_pida), (4 bytes).
    Removing nrk_stack_check.o(.ARM.exidx), (8 bytes).
    Removing nrk_stack_check.o(.ARM.exidx), (8 bytes).
    Removing nrk_stack_check.o(.ARM.exidx), (8 bytes).
    Removing nrk_task.o(i._Z11nrk_get_pidv), (12 bytes).
    Removing nrk_task.o(i._Z14nrk_wait_tickst), (72 bytes).
    Removing nrk_task.o(i._Z14nrk_wait_until10nrk_time_t), (50 bytes).
    Removing nrk_task.o(i._Z16nrk_print_readyQv), (20 bytes).
    Removing nrk_task.o(i._Z18nrk_terminate_taskv), (32 bytes).
    Removing nrk_task.o(i._Z19nrk_set_next_wakeup10nrk_time_t), (48 bytes).
    Removing nrk_task.o(.ARM.exidx), (8 bytes).
    Removing nrk_task.o(.ARM.exidx), (8 bytes).
    Removing nrk_task.o(.ARM.exidx), (8 bytes).
    Removing nrk_task.o(.ARM.exidx), (8 bytes).
    Removing nrk_task.o(.ARM.exidx), (8 bytes).
    Removing nrk_task.o(.ARM.exidx), (8 bytes).
    Removing nrk_task.o(.ARM.exidx), (8 bytes).
    Removing nrk_task.o(.ARM.exidx), (8 bytes).
    Removing nrk_task.o(.ARM.exidx), (8 bytes).
    Removing nrk_task.o(.ARM.exidx), (8 bytes).
    Removing nrk_task.o(.ARM.exidx), (8 bytes).
    Removing nrk_task.o(.ARM.exidx), (8 bytes).
    Removing nrk_task.o(.ARM.exidx), (8 bytes).
    Removing nrk_task.o(.ARM.exidx), (8 bytes).
    Removing nrk_task.o(.ARM.exidx), (8 bytes).
    Removing nrk_time.o(i._Z12nrk_time_addP10nrk_time_tS_S_), (20 bytes).
    Removing nrk_time.o(i._Z12nrk_time_getP10nrk_time_t), (68 bytes).
    Removing nrk_time.o(i._Z12nrk_time_setjj), (12 bytes).
    Removing nrk_time.o(i._Z12nrk_time_subP10nrk_time_tS_S_), (64 bytes).
    Removing nrk_time.o(i._Z18_nrk_ticks_to_timej), (28 bytes).
    Removing nrk_time.o(i._Z22nrk_time_compact_nanosP10nrk_time_t), (28 bytes).
    Removing nrk_time.o(i._Z23_nrk_time_to_ticks_longP10nrk_time_t), (56 bytes).
    Removing nrk_time.o(.ARM.exidx), (8 bytes).
    Removing nrk_time.o(.ARM.exidx), (8 bytes).
    Removing nrk_time.o(.ARM.exidx), (8 bytes).
    Removing nrk_time.o(.ARM.exidx), (8 bytes).
    Removing nrk_time.o(.ARM.exidx), (8 bytes).
    Removing nrk_time.o(.ARM.exidx), (8 bytes).
    Removing nrk_time.o(.ARM.exidx), (8 bytes).
    Removing nrk_time.o(.ARM.exidx), (8 bytes).
    Removing hal_wait.o(.ARM.exidx), (8 bytes).
    Removing ulib.o(i._Z11GPIO_Togglehj), (24 bytes).
    Removing ulib.o(i._Z11nrk_kprintfPKc), (2 bytes).
    Removing ulib.o(i._Z11setup_uart2t), (56 bytes).
    Removing ulib.o(i._Z11setup_uart3j), (56 bytes).
    Removing ulib.o(i._Z12nrk_gpio_geth), (68 bytes).
    Removing ulib.o(i._Z14CLKPWR_GetPCLKj), (44 bytes).
    Removing ulib.o(i._Z14GPIO_ReadValueh), (14 bytes).
    Removing ulib.o(i._Z14nrk_get_buttonh), (2 bytes).
    Removing ulib.o(i._Z14nrk_led_togglei), (44 bytes).
    Removing ulib.o(i._Z14nrk_setup_uartj), (4 bytes).
    Removing ulib.o(i._Z14setup_uartPinsv), (70 bytes).
    Removing ulib.o(i._Z15nrk_gpio_togglej), (66 bytes).
    Removing ulib.o(i._Z16nrk_gpio_pullupsh), (4 bytes).
    Removing ulib.o(i._Z17CLKPWR_GetPCLKSELj), (32 bytes).
    Removing ulib.o(i._Z17uart_set_divisorsP16LPC_UART_TypeDefj), (336 bytes).
    Removing ulib.o(i._Z18nrk_gpio_directionjh), (70 bytes).
    Removing ulib.o(i._Z19nrk_uart_data_readyh), (40 bytes).
    Removing ulib.o(i._Z21UART_ConfigStructInitP13UART_CFG_Type), (18 bytes).
    Removing ulib.o(i._Z22nrk_uart_rx_signal_getv), (6 bytes).
    Removing ulib.o(i._Z5getc2v), (16 bytes).
    Removing ulib.o(i._Z5getc3v), (16 bytes).
    Removing ulib.o(i._Z5putc2c), (16 bytes).
    Removing ulib.o(i._Z5putc3c), (16 bytes).
    Removing ulib.o(i._Z9UART_InitP16LPC_UART_TypeDefP13UART_CFG_Type), (204 bytes).
    Removing ulib.o(i._Z9initDEBUGv), (160 bytes).
    Removing ulib.o(.ARM.exidx), (8 bytes).
    Removing ulib.o(.ARM.exidx), (8 bytes).
    Removing ulib.o(.ARM.exidx), (8 bytes).
    Removing ulib.o(.ARM.exidx), (8 bytes).
    Removing ulib.o(.ARM.exidx), (8 bytes).
    Removing ulib.o(.ARM.exidx), (8 bytes).
    Removing ulib.o(.ARM.exidx), (8 bytes).
    Removing ulib.o(.ARM.exidx), (8 bytes).
    Removing ulib.o(.ARM.exidx), (8 bytes).
    Removing ulib.o(.ARM.exidx), (8 bytes).
    Removing ulib.o(.ARM.exidx), (8 bytes).
    Removing ulib.o(.ARM.exidx), (8 bytes).
    Removing ulib.o(.ARM.exidx), (8 bytes).
    Removing ulib.o(.ARM.exidx), (8 bytes).
    Removing ulib.o(.ARM.exidx), (8 bytes).
    Removing ulib.o(.ARM.exidx), (8 bytes).
    Removing ulib.o(.ARM.exidx), (8 bytes).
    Removing ulib.o(.ARM.exidx), (8 bytes).
    Removing ulib.o(.ARM.exidx), (8 bytes).
    Removing ulib.o(.ARM.exidx), (8 bytes).
    Removing ulib.o(.ARM.exidx), (8 bytes).
    Removing ulib.o(.ARM.exidx), (8 bytes).
    Removing ulib.o(.ARM.exidx), (8 bytes).
    Removing ulib.o(.ARM.exidx), (8 bytes).
    Removing ulib.o(.ARM.exidx), (8 bytes).
    Removing ulib.o(.ARM.exidx), (8 bytes).
    Removing ulib.o(.ARM.exidx), (8 bytes).
    Removing ulib.o(.ARM.exidx), (8 bytes).
    Removing ulib.o(.ARM.exidx), (8 bytes).
    Removing ulib.o(.ARM.exidx), (8 bytes).
    Removing ulib.o(.ARM.exidx), (8 bytes).
    Removing ulib.o(.ARM.exidx), (8 bytes).
    Removing ulib.o(.ARM.exidx), (8 bytes).
    Removing ulib.o(.ARM.exidx), (8 bytes).
    Removing ulib.o(.ARM.exidx), (8 bytes).
    Removing ulib.o(.ARM.exidx), (8 bytes).
    Removing ulib.o(.ARM.exidx), (8 bytes).
    Removing ulib.o(.ARM.exidx), (8 bytes).
    Removing ulib.o(.ARM.exidx), (8 bytes).
    Removing ulib.o(.ARM.exidx), (8 bytes).
    Removing ulib.o(.ARM.exidx), (8 bytes).
    Removing adc_driver.o(i._Z15dev_manager_adchhPhh), (100 bytes).
    Removing adc_driver.o(i._Z5delayv), (2 bytes).
    Removing adc_driver.o(.ARM.exidx), (8 bytes).
    Removing adc_driver.o(.ARM.exidx), (8 bytes).
    Removing adc_driver.o(.ARM.exidx), (8 bytes).
    Removing adc_driver.o(.ARM.exidx), (8 bytes).
    Removing adc_driver.o(.ARM.exidx), (8 bytes).
    Removing ff_basic_sensor.o(i._Z22dev_manager_ff_sensorshhPhh), (356 bytes).
    Removing ff_basic_sensor.o(.ARM.exidx), (8 bytes).
    Removing ff_basic_sensor.o(.data), (2 bytes).
    Removing nrk_driver.o(i._Z14nrk_get_statushh), (52 bytes).
    Removing nrk_driver.o(i._Z14nrk_set_statushhh), (52 bytes).
    Removing nrk_driver.o(i._Z19nrk_register_driverPFhhhPhhEh), (40 bytes).
    Removing nrk_driver.o(i._Z8nrk_openhh), (100 bytes).
    Removing nrk_driver.o(i._Z8nrk_readhPhh), (52 bytes).
    Removing nrk_driver.o(i._Z9nrk_closeh), (52 bytes).
    Removing nrk_driver.o(i._Z9nrk_writehPhh), (52 bytes).
    Removing nrk_driver.o(.ARM.exidx), (8 bytes).
    Removing nrk_driver.o(.ARM.exidx), (8 bytes).
    Removing nrk_driver.o(.ARM.exidx), (8 bytes).
    Removing nrk_driver.o(.ARM.exidx), (8 bytes).
    Removing nrk_driver.o(.ARM.exidx), (8 bytes).
    Removing nrk_driver.o(.ARM.exidx), (8 bytes).
    Removing nrk_driver.o(.ARM.exidx), (8 bytes).
    Removing nrk_driver.o(.data), (12 bytes).
    Removing bmac.o(i._Z11bmac_enablev), (28 bytes).
    Removing bmac.o(i._Z12bmac_disablev), (16 bytes).
    Removing bmac.o(i._Z16bmac_set_channelh), (44 bytes).
    Removing bmac.o(i._Z17bmac_rx_pkt_readyv), (20 bytes).
    Removing bmac.o(i._Z17bmac_set_rf_powerh), (20 bytes).
    Removing bmac.o(i._Z19bmac_set_cca_activeh), (12 bytes).
    Removing bmac.o(i._Z19bmac_tx_reserve_getv), (4 bytes).
    Removing bmac.o(i._Z19bmac_tx_reserve_setP10nrk_time_tt), (6 bytes).
    Removing bmac.o(i._Z20bmac_auto_ack_enablev), (10 bytes).
    Removing bmac.o(i._Z22bmac_encryption_enablev), (10 bytes).
    Removing bmac.o(i._Z22bmac_get_rx_pkt_signalv), (24 bytes).
    Removing bmac.o(i._Z22bmac_set_rx_check_rate10nrk_time_t), (32 bytes).
    Removing bmac.o(i._Z23bmac_addr_decode_enablev), (10 bytes).
    Removing bmac.o(i._Z23bmac_encryption_disablev), (10 bytes).
    Removing bmac.o(i._Z23bmac_encryption_set_keyPhh), (20 bytes).
    Removing bmac.o(i._Z23bmac_tx_pkt_nonblockingPch), (48 bytes).
    Removing bmac.o(i._Z24bmac_addr_decode_disablev), (10 bytes).
    Removing bmac.o(i._Z24bmac_rx_pkt_is_encryptedv), (10 bytes).
    Removing bmac.o(i._Z25bmac_addr_decode_dest_mact), (12 bytes).
    Removing bmac.o(i._Z25bmac_rx_failure_count_getv), (12 bytes).
    Removing bmac.o(i._Z27bmac_addr_decode_set_my_mact), (10 bytes).
    Removing bmac.o(i._Z27bmac_rx_failure_count_resetv), (16 bytes).
    Removing bmac.o(i._Z31bmac_encryption_set_ctr_counterPhh), (20 bytes).
    Removing bmac.o(.ARM.exidx), (8 bytes).
    Removing bmac.o(.ARM.exidx), (8 bytes).
    Removing bmac.o(.ARM.exidx), (8 bytes).
    Removing bmac.o(.ARM.exidx), (8 bytes).
    Removing bmac.o(.ARM.exidx), (8 bytes).
    Removing bmac.o(.ARM.exidx), (8 bytes).
    Removing bmac.o(.ARM.exidx), (8 bytes).
    Removing bmac.o(.ARM.exidx), (8 bytes).
    Removing bmac.o(.ARM.exidx), (8 bytes).
    Removing bmac.o(.ARM.exidx), (8 bytes).
    Removing bmac.o(.ARM.exidx), (8 bytes).
    Removing bmac.o(.ARM.exidx), (8 bytes).
    Removing bmac.o(.ARM.exidx), (8 bytes).
    Removing bmac.o(.ARM.exidx), (8 bytes).
    Removing bmac.o(.ARM.exidx), (8 bytes).
    Removing bmac.o(.ARM.exidx), (8 bytes).
    Removing bmac.o(.ARM.exidx), (8 bytes).
    Removing bmac.o(.ARM.exidx), (8 bytes).
    Removing bmac.o(.ARM.exidx), (8 bytes).
    Removing bmac.o(.ARM.exidx), (8 bytes).
    Removing bmac.o(.ARM.exidx), (8 bytes).
    Removing bmac.o(.ARM.exidx), (8 bytes).
    Removing bmac.o(.ARM.exidx), (8 bytes).
    Removing bmac.o(.ARM.exidx), (8 bytes).
    Removing bmac.o(.ARM.exidx), (8 bytes).
    Removing bmac.o(.ARM.exidx), (8 bytes).
    Removing bmac.o(.ARM.exidx), (8 bytes).
    Removing bmac.o(.ARM.exidx), (8 bytes).
    Removing bmac.o(.ARM.exidx), (8 bytes).
    Removing bmac.o(.ARM.exidx), (8 bytes).
    Removing bmac.o(.ARM.exidx), (8 bytes).
    Removing bmac.o(.ARM.exidx), (8 bytes).
    Removing bmac.o(.ARM.exidx), (8 bytes).
    Removing bmac.o(.ARM.exidx), (8 bytes).
    Removing bmac.o(.ARM.exidx), (8 bytes).
    Removing bmac.o(.ARM.exidx), (8 bytes).
    Removing bmac.o(.ARM.exidx), (8 bytes).
    Removing bmac.o(.ARM.exidx), (8 bytes).
    Removing bmac.o(.ARM.exidx), (8 bytes).
    Removing bmac.o(.ARM.exidx), (8 bytes).
    Removing basic_rf.o(i._Z11rf_power_upv), (30 bytes).
    Removing basic_rf.o(i._Z11rf_tx_powerh), (16 bytes).
    Removing basic_rf.o(i._Z13rf_power_downv), (22 bytes).
    Removing basic_rf.o(i._Z15rf_set_cca_modeh), (30 bytes).
    Removing basic_rf.o(i._Z16rf_flush_rx_fifov), (8 bytes).
    Removing basic_rf.o(i._Z16rf_rx_set_serialv), (2 bytes).
    Removing basic_rf.o(i._Z16rf_tx_set_serialv), (2 bytes).
    Removing basic_rf.o(i._Z17rf_rx_check_fifopv), (12 bytes).
    Removing basic_rf.o(i._Z17rf_tx_tdma_packetP10RF_TX_INFOtt), (4 bytes).
    Removing basic_rf.o(i._Z18rf_security_enablev), (2 bytes).
    Removing basic_rf.o(i._Z19rf_security_disablev), (2 bytes).
    Removing basic_rf.o(i._Z19rf_security_set_keyPh), (2 bytes).
    Removing basic_rf.o(i._Z20rf_polling_rx_packetv), (4 bytes).
    Removing basic_rf.o(i._Z21rf_addr_decode_enablev), (22 bytes).
    Removing basic_rf.o(i._Z22rf_set_preamble_lengthh), (2 bytes).
    Removing basic_rf.o(i._Z25rf_addr_decode_set_my_mact), (32 bytes).
    Removing basic_rf.o(i._Z27rf_security_last_pkt_statusv), (4 bytes).
    Removing basic_rf.o(i._Z27rf_security_set_ctr_counterPh), (2 bytes).
    Removing basic_rf.o(i._Z9rf_set_rxP10RF_RX_INFOh), (48 bytes).
    Removing basic_rf.o(.ARM.exidx), (8 bytes).
    Removing basic_rf.o(.ARM.exidx), (8 bytes).
    Removing basic_rf.o(.ARM.exidx), (8 bytes).
    Removing basic_rf.o(.ARM.exidx), (8 bytes).
    Removing basic_rf.o(.ARM.exidx), (8 bytes).
    Removing basic_rf.o(.ARM.exidx), (8 bytes).
    Removing basic_rf.o(.ARM.exidx), (8 bytes).
    Removing basic_rf.o(.ARM.exidx), (8 bytes).
    Removing basic_rf.o(.ARM.exidx), (8 bytes).
    Removing basic_rf.o(.ARM.exidx), (8 bytes).
    Removing basic_rf.o(.ARM.exidx), (8 bytes).
    Removing basic_rf.o(.ARM.exidx), (8 bytes).
    Removing basic_rf.o(.ARM.exidx), (8 bytes).
    Removing basic_rf.o(.ARM.exidx), (8 bytes).
    Removing basic_rf.o(.ARM.exidx), (8 bytes).
    Removing basic_rf.o(.ARM.exidx), (8 bytes).
    Removing basic_rf.o(.ARM.exidx), (8 bytes).
    Removing basic_rf.o(.ARM.exidx), (8 bytes).
    Removing basic_rf.o(.ARM.exidx), (8 bytes).
    Removing basic_rf.o(.ARM.exidx), (8 bytes).
    Removing basic_rf.o(.ARM.exidx), (8 bytes).
    Removing basic_rf.o(.ARM.exidx), (8 bytes).
    Removing basic_rf.o(.ARM.exidx), (8 bytes).
    Removing basic_rf.o(.ARM.exidx), (8 bytes).
    Removing basic_rf.o(.ARM.exidx), (8 bytes).
    Removing basic_rf.o(.ARM.exidx), (8 bytes).
    Removing basic_rf.o(.ARM.exidx), (8 bytes).
    Removing basic_rf.o(.ARM.exidx), (8 bytes).
    Removing basic_rf.o(.ARM.exidx), (8 bytes).
    Removing basic_rf.o(.ARM.exidx), (8 bytes).
    Removing basic_rf.o(.ARM.exidx), (8 bytes).
    Removing basic_rf.o(.ARM.exidx), (8 bytes).
    Removing basic_rf.o(.ARM.exidx), (8 bytes).
    Removing basic_rf.o(.ARM.exidx), (8 bytes).
    Removing basic_rf.o(.ARM.exidx), (8 bytes).
    Removing basic_rf.o(.ARM.exidx), (8 bytes).
    Removing basic_rf.o(.ARM.exidx), (8 bytes).
    Removing mrf24j40.o(i._Z13mrf_data_modev), (52 bytes).
    Removing mrf24j40.o(i._Z13mrf_test_modev), (52 bytes).
    Removing mrf24j40.o(i._Z8mrf_wakev), (30 bytes).
    Removing mrf24j40.o(i._Z9mrf_sleepv), (22 bytes).
    Removing mrf24j40.o(.ARM.exidx), (8 bytes).
    Removing mrf24j40.o(.ARM.exidx), (8 bytes).
    Removing mrf24j40.o(.ARM.exidx), (8 bytes).
    Removing mrf24j40.o(.ARM.exidx), (8 bytes).
    Removing mrf24j40.o(.ARM.exidx), (8 bytes).
    Removing mrf24j40.o(.ARM.exidx), (8 bytes).
    Removing mrf24j40.o(.ARM.exidx), (8 bytes).
    Removing mrf24j40.o(.ARM.exidx), (8 bytes).
    Removing mrf24j40.o(.ARM.exidx), (8 bytes).
    Removing mrf24j40.o(.ARM.exidx), (8 bytes).
    Removing mrf24j40.o(.ARM.exidx), (8 bytes).
    Removing mrf24j40.o(.ARM.exidx), (8 bytes).
    Removing mrf24j40.o(.ARM.exidx), (8 bytes).
    Removing mrf24j40.o(.ARM.exidx), (8 bytes).
    Removing mrf24j40.o(.ARM.exidx), (8 bytes).
    Removing mrf24j40.o(.ARM.exidx), (8 bytes).
    Removing mrf24j40.o(.ARM.exidx), (8 bytes).
    Removing mrf24j40.o(.ARM.exidx), (8 bytes).
    Removing mrf24j40.o(.ARM.exidx), (8 bytes).
    Removing mrf24j40.o(.data), (1 bytes).
    Removing mrf24j40.o(.data), (1 bytes).
    Removing main.o(.ARM.exidx), (8 bytes).
    Removing main.o(.ARM.exidx), (8 bytes).
    Removing main.o(.ARM.exidx), (8 bytes).
    Removing main.o(.ARM.exidx), (8 bytes).
    Removing main.o(.ARM.exidx), (8 bytes).
    Removing main.o(.ARM.exidx), (8 bytes).
    Removing main.o(.ARM.exidx), (8 bytes).
    Removing main.o(.ARM.exidx), (8 bytes).
    Removing main.o(.ARM.exidx), (8 bytes).
    Removing main.o(.ARM.exidx), (8 bytes).
    Removing main.o(.ARM.exidx), (8 bytes).
    Removing main.o(.ARM.exidx), (8 bytes).
    Removing main.o(.ARM.exidx), (8 bytes).
    Removing main.o(.ARM.exidx), (8 bytes).
    Removing main.o(.ARM.exidx), (8 bytes).
    Removing main.o(.ARM.exidx), (8 bytes).
    Removing main.o(.ARM.exidx), (8 bytes).
    Removing main.o(.ARM.exidx), (8 bytes).
    Removing main.o(.ARM.exidx), (8 bytes).
    Removing main.o(.ARM.exidx), (8 bytes).
    Removing main.o(.ARM.exidx), (8 bytes).
    Removing main.o(.ARM.exidx), (8 bytes).
    Removing main.o(.ARM.exidx), (8 bytes).
    Removing main.o(.ARM.exidx), (8 bytes).
    Removing main.o(.ARM.exidx), (8 bytes).
    Removing main.o(.ARM.exidx), (8 bytes).
    Removing main.o(.ARM.exidx), (8 bytes).
    Removing main.o(.data), (4 bytes).
    Removing main.o(.data), (4 bytes).
    Removing main.o(.data), (4 bytes).
    Removing main.o(.data), (4 bytes).
    Removing main.o(.data), (4 bytes).
    Removing main.o(.data), (8 bytes).
    Removing main.o(.data), (8 bytes).
    Removing main.o(.data), (8 bytes).
    Removing main.o(.data), (4 bytes).
    Removing main.o(.data), (4 bytes).
    Removing m3pi.o(i._ZN4m3pi10left_motorEf), (8 bytes).
    Removing m3pi.o(i._ZN4m3pi11pot_voltageEv), (38 bytes).
    Removing m3pi.o(i._ZN4m3pi11right_motorEf), (8 bytes).
    Removing m3pi.o(i._ZN4m3pi13line_positionEv), (68 bytes).
    Removing m3pi.o(i._ZN4m3pi15get_rpc_methodsEv), (8 bytes).
    Removing m3pi.o(i._ZN4m3pi17reset_calibrationEv), (8 bytes).
    Removing m3pi.o(i._ZN4m3pi21sensor_auto_calibrateEv), (22 bytes).
    Removing m3pi.o(i._ZN4m3pi3clsEv), (8 bytes).
    Removing m3pi.o(i._ZN4m3pi4getcEv), (6 bytes).
    Removing m3pi.o(i._ZN4m3pi4ledsEi), (84 bytes).
    Removing m3pi.o(i._ZN4m3pi4playEPci), (54 bytes).
    Removing m3pi.o(i._ZN4m3pi4putcEi), (6 bytes).
    Removing m3pi.o(i._ZN4m3pi5_getcEv), (4 bytes).
    Removing m3pi.o(i._ZN4m3pi5printEPci), (50 bytes).
    Removing m3pi.o(i._ZN4m3pi6locateEii), (36 bytes).
    Removing m3pi.o(i._ZN4m3pi7batteryEv), (56 bytes).
    Removing m3pi.o(i._ZN4m3pi8PID_stopEv), (8 bytes).
    Removing m3pi.o(i._ZN4m3pi9PID_startEiiiii), (68 bytes).
    Removing m3pi.o(i._ZN4m3pi9calibrateEv), (8 bytes).
    Removing m3pi.o(i._ZN4m3piC1Ev), (80 bytes).
    Removing m3pi.o(.ARM.exidx), (8 bytes).
    Removing m3pi.o(.ARM.exidx), (8 bytes).
    Removing m3pi.o(.ARM.exidx), (8 bytes).
    Removing m3pi.o(.ARM.exidx), (8 bytes).
    Removing m3pi.o(.ARM.exidx), (8 bytes).
    Removing m3pi.o(.ARM.exidx), (8 bytes).
    Removing m3pi.o(.ARM.exidx), (8 bytes).
    Removing m3pi.o(.ARM.exidx), (8 bytes).
    Removing m3pi.o(.ARM.exidx), (8 bytes).
    Removing m3pi.o(.ARM.exidx), (8 bytes).
    Removing m3pi.o(.ARM.exidx), (8 bytes).
    Removing m3pi.o(.ARM.exidx), (8 bytes).
    Removing m3pi.o(.ARM.exidx), (8 bytes).
    Removing m3pi.o(.ARM.exidx), (8 bytes).
    Removing m3pi.o(.ARM.exidx), (8 bytes).
    Removing m3pi.o(.ARM.exidx), (8 bytes).
    Removing m3pi.o(.ARM.exidx), (8 bytes).
    Removing m3pi.o(.ARM.exidx), (8 bytes).
    Removing m3pi.o(.ARM.exidx), (8 bytes).
    Removing m3pi.o(.ARM.exidx), (8 bytes).
    Removing m3pi.o(.ARM.exidx), (8 bytes).
    Removing m3pi.o(.ARM.exidx), (8 bytes).
    Removing m3pi.o(.ARM.exidx), (8 bytes).
    Removing m3pi.o(.ARM.exidx), (8 bytes).
    Removing m3pi.o(.ARM.exidx), (8 bytes).
    Removing m3pi.o(.ARM.exidx), (8 bytes).
    Removing m3pi.o(.ARM.exidx), (8 bytes).
    Removing m3pi.o(.ARM.exidx), (8 bytes).
    Removing m3pi.o(.ARM.exidx), (8 bytes).
    Removing m3pi.o(.constdata), (174 bytes).
    Removing m3pi.o(.conststring), (100 bytes).
    Removing system_LPC17xx.o(i.SystemCoreClockUpdate), (256 bytes).
    Removing core_cm3.o(.emb_text), (32 bytes).
    Removing cmsis_nvic.o(i.NVIC_GetVector), (16 bytes).
    Removing cmsis_nvic.o(i.NVIC_SetVector), (56 bytes).
    Removing PwmOut.cpp.lpc1768.arm.o(i._ZN4mbed6PwmOut10pulsewidthEf), (6 bytes).
    Removing PwmOut.cpp.lpc1768.arm.o(i._ZN4mbed6PwmOut13get_rpc_classEv), (8 bytes).
    Removing PwmOut.cpp.lpc1768.arm.o(i._ZN4mbed6PwmOut13pulsewidth_msEi), (6 bytes).
    Removing PwmOut.cpp.lpc1768.arm.o(i._ZN4mbed6PwmOut13pulsewidth_usEi), (6 bytes).
    Removing PwmOut.cpp.lpc1768.arm.o(i._ZN4mbed6PwmOut15get_rpc_methodsEv), (8 bytes).
    Removing PwmOut.cpp.lpc1768.arm.o(i._ZN4mbed6PwmOut4readEv), (6 bytes).
    Removing PwmOut.cpp.lpc1768.arm.o(i._ZN4mbed6PwmOut5writeEf), (6 bytes).
    Removing PwmOut.cpp.lpc1768.arm.o(i._ZN4mbed6PwmOut6periodEf), (6 bytes).
    Removing PwmOut.cpp.lpc1768.arm.o(i._ZN4mbed6PwmOut9period_msEi), (6 bytes).
    Removing PwmOut.cpp.lpc1768.arm.o(i._ZN4mbed6PwmOut9period_usEi), (6 bytes).
    Removing PwmOut.cpp.lpc1768.arm.o(i._ZN4mbed6PwmOutaSERS0_), (22 bytes).
    Removing PwmOut.cpp.lpc1768.arm.o(i._ZN4mbed6PwmOutaSEf), (14 bytes).
    Removing PwmOut.cpp.lpc1768.arm.o(i._ZN4mbed6PwmOutcvfEv), (6 bytes).
    Removing PwmOut.cpp.lpc1768.arm.o(.ARM.exidx), (8 bytes).
    Removing PwmOut.cpp.lpc1768.arm.o(.ARM.exidx), (8 bytes).
    Removing PwmOut.cpp.lpc1768.arm.o(.ARM.exidx), (8 bytes).
    Removing PwmOut.cpp.lpc1768.arm.o(.ARM.exidx), (8 bytes).
    Removing PwmOut.cpp.lpc1768.arm.o(.ARM.exidx), (8 bytes).
    Removing PwmOut.cpp.lpc1768.arm.o(.ARM.exidx), (8 bytes).
    Removing PwmOut.cpp.lpc1768.arm.o(.ARM.exidx), (8 bytes).
    Removing PwmOut.cpp.lpc1768.arm.o(.ARM.exidx), (8 bytes).
    Removing PwmOut.cpp.lpc1768.arm.o(.ARM.exidx), (8 bytes).
    Removing PwmOut.cpp.lpc1768.arm.o(.ARM.exidx), (8 bytes).
    Removing PwmOut.cpp.lpc1768.arm.o(.ARM.exidx), (8 bytes).
    Removing PwmOut.cpp.lpc1768.arm.o(.ARM.exidx), (8 bytes).
    Removing PwmOut.cpp.lpc1768.arm.o(.ARM.exidx), (8 bytes).
    Removing PwmOut.cpp.lpc1768.arm.o(.ARM.exidx), (8 bytes).
    Removing PwmOut.cpp.lpc1768.arm.o(.constdata), (104 bytes).
    Removing PwmOut.cpp.lpc1768.arm.o(.constdata), (16 bytes).
    Removing PwmOut.cpp.lpc1768.arm.o(.conststring), (60 bytes).
    Removing PwmOut.cpp.lpc1768.arm.o(.conststring), (4 bytes).
    Removing PwmOut.cpp.lpc1768.arm.o(.data), (12 bytes).
    Removing Base.cpp.lpc1768.arm.o(i._ZN4mbed4Base11delete_selfEv), (30 bytes).
    Removing Base.cpp.lpc1768.arm.o(i._ZN4mbed4Base15get_rpc_methodsEv), (8 bytes).
    Removing Base.cpp.lpc1768.arm.o(i._ZN4mbed4Base15register_objectEPKc), (28 bytes).
    Removing Base.cpp.lpc1768.arm.o(i._ZN4mbed4Base3rpcEPKcS2_Pc), (152 bytes).
    Removing Base.cpp.lpc1768.arm.o(i._ZN4mbed4Base3rpcEPKcS2_S2_Pc), (336 bytes).
    Removing Base.cpp.lpc1768.arm.o(i._ZN4mbed4Base4nameEv), (4 bytes).
    Removing Base.cpp.lpc1768.arm.o(i._ZN4mbed4Base7opendirEv), (24 bytes).
    Removing Base.cpp.lpc1768.arm.o(i._ZN4mbed4Base8new_nameEPS0_), (32 bytes).
    Removing Base.cpp.lpc1768.arm.o(.ARM.exidx), (8 bytes).
    Removing Base.cpp.lpc1768.arm.o(.ARM.exidx), (8 bytes).
    Removing Base.cpp.lpc1768.arm.o(.ARM.exidx), (8 bytes).
    Removing Base.cpp.lpc1768.arm.o(.ARM.exidx), (8 bytes).
    Removing Base.cpp.lpc1768.arm.o(.ARM.exidx), (8 bytes).
    Removing Base.cpp.lpc1768.arm.o(.ARM.exidx), (8 bytes).
    Removing Base.cpp.lpc1768.arm.o(.ARM.exidx), (8 bytes).
    Removing Base.cpp.lpc1768.arm.o(.ARM.exidx), (8 bytes).
    Removing Base.cpp.lpc1768.arm.o(.ARM.exidx), (8 bytes).
    Removing Base.cpp.lpc1768.arm.o(.ARM.exidx), (8 bytes).
    Removing Base.cpp.lpc1768.arm.o(.ARM.exidx), (8 bytes).
    Removing Base.cpp.lpc1768.arm.o(.ARM.exidx), (8 bytes).
    Removing Base.cpp.lpc1768.arm.o(.ARM.exidx), (8 bytes).
    Removing Base.cpp.lpc1768.arm.o(.ARM.exidx), (8 bytes).
    Removing Base.cpp.lpc1768.arm.o(.constdata), (24 bytes).
    Removing Base.cpp.lpc1768.arm.o(.conststring), (7 bytes).
    Removing BusOut.cpp.lpc1768.arm.o(i._ZN4mbed6BusOut13get_rpc_classEv), (8 bytes).
    Removing BusOut.cpp.lpc1768.arm.o(i._ZN4mbed6BusOut15get_rpc_methodsEv), (8 bytes).
    Removing BusOut.cpp.lpc1768.arm.o(i._ZN4mbed6BusOut4readEv), (34 bytes).
    Removing BusOut.cpp.lpc1768.arm.o(i._ZN4mbed6BusOut5writeEi), (38 bytes).
    Removing BusOut.cpp.lpc1768.arm.o(i._ZN4mbed6BusOut9constructEPKcPc), (692 bytes).
    Removing BusOut.cpp.lpc1768.arm.o(i._ZN4mbed6BusOutC1E7PinNameS1_S1_S1_S1_S1_S1_S1_S1_S1_S1_S1_S1_S1_S1_S1_PKc), (116 bytes).
    Removing BusOut.cpp.lpc1768.arm.o(i._ZN4mbed6BusOutC1EP7PinNamePKc), (64 bytes).
    Removing BusOut.cpp.lpc1768.arm.o(i._ZN4mbed6BusOutD0Ev), (52 bytes).
    Removing BusOut.cpp.lpc1768.arm.o(i._ZN4mbed6BusOutD1Ev), (48 bytes).
    Removing BusOut.cpp.lpc1768.arm.o(i._ZN4mbed6BusOutaSERS0_), (70 bytes).
    Removing BusOut.cpp.lpc1768.arm.o(i._ZN4mbed6BusOutaSEi), (40 bytes).
    Removing BusOut.cpp.lpc1768.arm.o(i._ZN4mbed6BusOutcviEv), (34 bytes).
    Removing BusOut.cpp.lpc1768.arm.o(.ARM.exidx), (8 bytes).
    Removing BusOut.cpp.lpc1768.arm.o(.ARM.exidx), (8 bytes).
    Removing BusOut.cpp.lpc1768.arm.o(.ARM.exidx), (8 bytes).
    Removing BusOut.cpp.lpc1768.arm.o(.ARM.exidx), (8 bytes).
    Removing BusOut.cpp.lpc1768.arm.o(.ARM.exidx), (8 bytes).
    Removing BusOut.cpp.lpc1768.arm.o(.ARM.exidx), (8 bytes).
    Removing BusOut.cpp.lpc1768.arm.o(.ARM.exidx), (8 bytes).
    Removing BusOut.cpp.lpc1768.arm.o(.ARM.exidx), (8 bytes).
    Removing BusOut.cpp.lpc1768.arm.o(.ARM.exidx), (8 bytes).
    Removing BusOut.cpp.lpc1768.arm.o(.ARM.exidx), (8 bytes).
    Removing BusOut.cpp.lpc1768.arm.o(.ARM.exidx), (8 bytes).
    Removing BusOut.cpp.lpc1768.arm.o(.ARM.exidx), (8 bytes).
    Removing BusOut.cpp.lpc1768.arm.o(.constdata), (40 bytes).
    Removing BusOut.cpp.lpc1768.arm.o(.constdata), (16 bytes).
    Removing BusOut.cpp.lpc1768.arm.o(.conststring), (18 bytes).
    Removing BusOut.cpp.lpc1768.arm.o(.conststring), (4 bytes).
    Removing BusOut.cpp.lpc1768.arm.o(.data), (12 bytes).
    Removing I2C.cpp.lpc1768.arm.o(i._ZN4mbed3I2C6aquireEv), (32 bytes).
    Removing I2C.cpp.lpc1768.arm.o(i._ZN4mbed3I2C9frequencyEi), (32 bytes).
    Removing I2C.cpp.lpc1768.arm.o(.ARM.exidx), (8 bytes).
    Removing I2C.cpp.lpc1768.arm.o(.ARM.exidx), (8 bytes).
    Removing I2C.cpp.lpc1768.arm.o(.ARM.exidx), (8 bytes).
    Removing I2C.cpp.lpc1768.arm.o(.ARM.exidx), (8 bytes).
    Removing I2C.cpp.lpc1768.arm.o(.ARM.exidx), (8 bytes).
    Removing DigitalOut.cpp.lpc1768.arm.o(i._ZN4mbed10DigitalOut13get_rpc_classEv), (8 bytes).
    Removing DigitalOut.cpp.lpc1768.arm.o(i._ZN4mbed10DigitalOut15get_rpc_methodsEv), (8 bytes).
    Removing DigitalOut.cpp.lpc1768.arm.o(i._ZN4mbed10DigitalOut4readEv), (6 bytes).
    Removing DigitalOut.cpp.lpc1768.arm.o(i._ZN4mbed10DigitalOut5writeEi), (6 bytes).
    Removing DigitalOut.cpp.lpc1768.arm.o(i._ZN4mbed10DigitalOutaSERS0_), (22 bytes).
    Removing DigitalOut.cpp.lpc1768.arm.o(i._ZN4mbed10DigitalOutcviEv), (6 bytes).
    Removing DigitalOut.cpp.lpc1768.arm.o(.ARM.exidx), (8 bytes).
    Removing DigitalOut.cpp.lpc1768.arm.o(.ARM.exidx), (8 bytes).
    Removing DigitalOut.cpp.lpc1768.arm.o(.ARM.exidx), (8 bytes).
    Removing DigitalOut.cpp.lpc1768.arm.o(.ARM.exidx), (8 bytes).
    Removing DigitalOut.cpp.lpc1768.arm.o(.ARM.exidx), (8 bytes).
    Removing DigitalOut.cpp.lpc1768.arm.o(.ARM.exidx), (8 bytes).
    Removing DigitalOut.cpp.lpc1768.arm.o(.ARM.exidx), (8 bytes).
    Removing DigitalOut.cpp.lpc1768.arm.o(.ARM.exidx), (8 bytes).
    Removing DigitalOut.cpp.lpc1768.arm.o(.constdata), (40 bytes).
    Removing DigitalOut.cpp.lpc1768.arm.o(.constdata), (16 bytes).
    Removing DigitalOut.cpp.lpc1768.arm.o(.conststring), (22 bytes).
    Removing DigitalOut.cpp.lpc1768.arm.o(.conststring), (4 bytes).
    Removing DigitalOut.cpp.lpc1768.arm.o(.data), (12 bytes).
    Removing Serial.cpp.lpc1768.arm.o(i._ZN4mbed6Serial13get_rpc_classEv), (8 bytes).
    Removing Serial.cpp.lpc1768.arm.o(i._ZN4mbed6Serial15get_rpc_methodsEv), (8 bytes).
    Removing Serial.cpp.lpc1768.arm.o(i._ZN4mbed6Serial15setup_interruptEv), (196 bytes).
    Removing Serial.cpp.lpc1768.arm.o(i._ZN4mbed6Serial16remove_interruptEv), (112 bytes).
    Removing Serial.cpp.lpc1768.arm.o(i._ZN4mbed6Serial5_getcEv), (6 bytes).
    Removing Serial.cpp.lpc1768.arm.o(i._ZN4mbed6Serial6attachEPFvvE), (36 bytes).
    Removing Serial.cpp.lpc1768.arm.o(i._ZN4mbed6Serial6formatEiNS0_6ParityEi), (6 bytes).
    Removing Serial.cpp.lpc1768.arm.o(i._ZN4mbed6Serial8readableEv), (6 bytes).
    Removing Serial.cpp.lpc1768.arm.o(i._ZN4mbed6Serial9writeableEv), (6 bytes).
    Removing Serial.cpp.lpc1768.arm.o(i._ZN4mbed9uart0_irqEv), (12 bytes).
    Removing Serial.cpp.lpc1768.arm.o(i._ZN4mbed9uart1_irqEv), (12 bytes).
    Removing Serial.cpp.lpc1768.arm.o(i._ZN4mbed9uart2_irqEv), (12 bytes).
    Removing Serial.cpp.lpc1768.arm.o(i._ZN4mbed9uart3_irqEv), (12 bytes).
    Removing Serial.cpp.lpc1768.arm.o(.ARM.exidx), (8 bytes).
    Removing Serial.cpp.lpc1768.arm.o(.ARM.exidx), (8 bytes).
    Removing Serial.cpp.lpc1768.arm.o(.ARM.exidx), (8 bytes).
    Removing Serial.cpp.lpc1768.arm.o(.ARM.exidx), (8 bytes).
    Removing Serial.cpp.lpc1768.arm.o(.ARM.exidx), (8 bytes).
    Removing Serial.cpp.lpc1768.arm.o(.ARM.exidx), (8 bytes).
    Removing Serial.cpp.lpc1768.arm.o(.ARM.exidx), (8 bytes).
    Removing Serial.cpp.lpc1768.arm.o(.ARM.exidx), (8 bytes).
    Removing Serial.cpp.lpc1768.arm.o(.ARM.exidx), (8 bytes).
    Removing Serial.cpp.lpc1768.arm.o(.ARM.exidx), (8 bytes).
    Removing Serial.cpp.lpc1768.arm.o(.ARM.exidx), (8 bytes).
    Removing Serial.cpp.lpc1768.arm.o(.ARM.exidx), (8 bytes).
    Removing Serial.cpp.lpc1768.arm.o(.ARM.exidx), (8 bytes).
    Removing Serial.cpp.lpc1768.arm.o(.ARM.exidx), (8 bytes).
    Removing Serial.cpp.lpc1768.arm.o(.ARM.exidx), (8 bytes).
    Removing Serial.cpp.lpc1768.arm.o(.ARM.exidx), (8 bytes).
    Removing Serial.cpp.lpc1768.arm.o(.bss), (16 bytes).
    Removing Serial.cpp.lpc1768.arm.o(.constdata), (56 bytes).
    Removing Serial.cpp.lpc1768.arm.o(.constdata), (16 bytes).
    Removing Serial.cpp.lpc1768.arm.o(.conststring), (31 bytes).
    Removing Serial.cpp.lpc1768.arm.o(.conststring), (4 bytes).
    Removing Serial.cpp.lpc1768.arm.o(.data), (12 bytes).
    Removing Stream.cpp.lpc1768.arm.o(i._ZN4mbed6Stream15get_rpc_methodsEv), (8 bytes).
    Removing Stream.cpp.lpc1768.arm.o(i._ZN4mbed6Stream4flenEv), (4 bytes).
    Removing Stream.cpp.lpc1768.arm.o(i._ZN4mbed6Stream4readEPvj), (42 bytes).
    Removing Stream.cpp.lpc1768.arm.o(i._ZN4mbed6Stream5closeEv), (4 bytes).
    Removing Stream.cpp.lpc1768.arm.o(i._ZN4mbed6Stream5fsyncEv), (4 bytes).
    Removing Stream.cpp.lpc1768.arm.o(i._ZN4mbed6Stream5lseekEli), (4 bytes).
    Removing Stream.cpp.lpc1768.arm.o(i._ZN4mbed6Stream5scanfEPKcz), (30 bytes).
    Removing Stream.cpp.lpc1768.arm.o(i._ZN4mbed6Stream5writeEPKvj), (42 bytes).
    Removing Stream.cpp.lpc1768.arm.o(i._ZN4mbed6Stream6isattyEv), (4 bytes).
    Removing Stream.cpp.lpc1768.arm.o(i._ZN4mbed6Stream6printfEPKcz), (30 bytes).
    Removing Stream.cpp.lpc1768.arm.o(i._ZThn16_N4mbed6Stream4readEPvj), (44 bytes).
    Removing Stream.cpp.lpc1768.arm.o(i._ZThn16_N4mbed6Stream5fsyncEv), (4 bytes).
    Removing Stream.cpp.lpc1768.arm.o(.ARM.exidx), (8 bytes).
    Removing Stream.cpp.lpc1768.arm.o(.ARM.exidx), (8 bytes).
    Removing Stream.cpp.lpc1768.arm.o(.ARM.exidx), (8 bytes).
    Removing Stream.cpp.lpc1768.arm.o(.ARM.exidx), (8 bytes).
    Removing Stream.cpp.lpc1768.arm.o(.ARM.exidx), (8 bytes).
    Removing Stream.cpp.lpc1768.arm.o(.ARM.exidx), (8 bytes).
    Removing Stream.cpp.lpc1768.arm.o(.ARM.exidx), (8 bytes).
    Removing Stream.cpp.lpc1768.arm.o(.ARM.exidx), (8 bytes).
    Removing Stream.cpp.lpc1768.arm.o(.ARM.exidx), (8 bytes).
    Removing Stream.cpp.lpc1768.arm.o(.ARM.exidx), (8 bytes).
    Removing Stream.cpp.lpc1768.arm.o(.ARM.exidx), (8 bytes).
    Removing Stream.cpp.lpc1768.arm.o(.ARM.exidx), (8 bytes).
    Removing Stream.cpp.lpc1768.arm.o(.ARM.exidx), (8 bytes).
    Removing Stream.cpp.lpc1768.arm.o(.ARM.exidx), (8 bytes).
    Removing Stream.cpp.lpc1768.arm.o(.ARM.exidx), (8 bytes).
    Removing Stream.cpp.lpc1768.arm.o(.ARM.exidx), (8 bytes).
    Removing Stream.cpp.lpc1768.arm.o(.ARM.exidx), (8 bytes).
    Removing Stream.cpp.lpc1768.arm.o(.ARM.exidx), (8 bytes).
    Removing Stream.cpp.lpc1768.arm.o(.ARM.exidx), (8 bytes).
    Removing Stream.cpp.lpc1768.arm.o(.ARM.exidx), (8 bytes).
    Removing Stream.cpp.lpc1768.arm.o(.constdata), (56 bytes).
    Removing Stream.cpp.lpc1768.arm.o(.conststring), (15 bytes).
    Removing pwmout_api.c.lpc1768.arm.o(i.pwmout_free), (2 bytes).
    Removing pwmout_api.c.lpc1768.arm.o(i.pwmout_period), (32 bytes).
    Removing pwmout_api.c.lpc1768.arm.o(i.pwmout_period_ms), (10 bytes).
    Removing pwmout_api.c.lpc1768.arm.o(i.pwmout_pulsewidth), (84 bytes).
    Removing pwmout_api.c.lpc1768.arm.o(i.pwmout_pulsewidth_ms), (72 bytes).
    Removing pwmout_api.c.lpc1768.arm.o(i.pwmout_pulsewidth_us), (68 bytes).
    Removing pwmout_api.c.lpc1768.arm.o(i.pwmout_read), (44 bytes).
    Removing pwmout_api.c.lpc1768.arm.o(i.pwmout_write), (72 bytes).
    Removing serial_api.c.lpc1768.arm.o(i.serial_clear), (6 bytes).
    Removing serial_api.c.lpc1768.arm.o(i.serial_free), (2 bytes).
    Removing serial_api.c.lpc1768.arm.o(i.serial_getc), (12 bytes).
    Removing serial_api.c.lpc1768.arm.o(i.serial_interrupt), (2 bytes).
    Removing serial_api.c.lpc1768.arm.o(i.serial_readable), (8 bytes).
    Removing serial_api.c.lpc1768.arm.o(i.serial_writable), (8 bytes).
    Removing gpio_api.c.lpc1768.arm.o(i.gpio_input), (48 bytes).
    Removing gpio_api.c.lpc1768.arm.o(i.gpio_mode), (4 bytes).
    Removing gpio_api.c.lpc1768.arm.o(i.gpio_read), (24 bytes).
    Removing FunctionPointer.cpp.lpc1768.arm.o(i._ZN4mbed15FunctionPointer4callEv), (26 bytes).
    Removing FunctionPointer.cpp.lpc1768.arm.o(i._ZN4mbed15FunctionPointer6attachEPFvvE), (8 bytes).
    Removing FunctionPointer.cpp.lpc1768.arm.o(.ARM.exidx), (8 bytes).
    Removing FunctionPointer.cpp.lpc1768.arm.o(.ARM.exidx), (8 bytes).
    Removing FunctionPointer.cpp.lpc1768.arm.o(.ARM.exidx), (8 bytes).
    Removing stdio.cpp.lpc1768.arm.o(i._sys_command_string), (4 bytes).
    Removing stdio.cpp.lpc1768.arm.o(i._sys_ensure), (40 bytes).
    Removing stdio.cpp.lpc1768.arm.o(i._sys_read), (64 bytes).
    Removing stdio.cpp.lpc1768.arm.o(i.closedir), (6 bytes).
    Removing stdio.cpp.lpc1768.arm.o(i.mkdir), (84 bytes).
    Removing stdio.cpp.lpc1768.arm.o(i.opendir), (84 bytes).
    Removing stdio.cpp.lpc1768.arm.o(i.readdir), (6 bytes).
    Removing stdio.cpp.lpc1768.arm.o(i.remove), (80 bytes).
    Removing stdio.cpp.lpc1768.arm.o(i.rename), (6 bytes).
    Removing stdio.cpp.lpc1768.arm.o(i.rewinddir), (6 bytes).
    Removing stdio.cpp.lpc1768.arm.o(i.seekdir), (6 bytes).
    Removing stdio.cpp.lpc1768.arm.o(i.telldir), (6 bytes).
    Removing stdio.cpp.lpc1768.arm.o(i.tmpfile), (4 bytes).
    Removing stdio.cpp.lpc1768.arm.o(i.tmpnam), (4 bytes).
    Removing stdio.cpp.lpc1768.arm.o(.ARM.exidx), (8 bytes).
    Removing stdio.cpp.lpc1768.arm.o(.ARM.exidx), (8 bytes).
    Removing stdio.cpp.lpc1768.arm.o(.ARM.exidx), (8 bytes).
    Removing stdio.cpp.lpc1768.arm.o(.ARM.exidx), (8 bytes).
    Removing stdio.cpp.lpc1768.arm.o(.ARM.exidx), (8 bytes).
    Removing stdio.cpp.lpc1768.arm.o(.ARM.exidx), (8 bytes).
    Removing stdio.cpp.lpc1768.arm.o(.ARM.exidx), (8 bytes).
    Removing stdio.cpp.lpc1768.arm.o(.ARM.exidx), (8 bytes).
    Removing stdio.cpp.lpc1768.arm.o(.ARM.exidx), (8 bytes).
    Removing stdio.cpp.lpc1768.arm.o(.ARM.exidx), (8 bytes).
    Removing stdio.cpp.lpc1768.arm.o(.ARM.exidx), (8 bytes).
    Removing stdio.cpp.lpc1768.arm.o(.ARM.exidx), (8 bytes).
    Removing stdio.cpp.lpc1768.arm.o(.ARM.exidx), (8 bytes).
    Removing stdio.cpp.lpc1768.arm.o(.ARM.exidx), (8 bytes).
    Removing stdio.cpp.lpc1768.arm.o(.ARM.exidx), (8 bytes).
    Removing stdio.cpp.lpc1768.arm.o(.ARM.exidx), (8 bytes).
    Removing stdio.cpp.lpc1768.arm.o(.ARM.exidx), (8 bytes).
    Removing stdio.cpp.lpc1768.arm.o(.ARM.exidx), (8 bytes).
    Removing stdio.cpp.lpc1768.arm.o(.ARM.exidx), (8 bytes).
    Removing stdio.cpp.lpc1768.arm.o(.ARM.exidx), (8 bytes).
    Removing stdio.cpp.lpc1768.arm.o(.ARM.exidx), (8 bytes).
    Removing stdio.cpp.lpc1768.arm.o(.ARM.exidx), (8 bytes).
    Removing timer_api.c.lpc1768.arm.o(i.timer_free), (2 bytes).
    Removing timer_api.c.lpc1768.arm.o(i.timer_stop), (10 bytes).
    Removing timer_api.c.lpc1768.arm.o(i.timer_write), (18 bytes).
    Removing utils_api.c.lpc1768.arm.o(i.mbed_mac_address), (72 bytes).
    Removing utils_api.c.lpc1768.arm.o(i.mbed_reset), (52 bytes).
    Removing utils_api.c.lpc1768.arm.o(i.mbed_uid), (4 bytes).
    Removing semihost_api.c.lpc1768.arm.o(i.semihost_close), (12 bytes).
    Removing semihost_api.c.lpc1768.arm.o(i.semihost_ensure), (12 bytes).
    Removing semihost_api.c.lpc1768.arm.o(i.semihost_flen), (12 bytes).
    Removing semihost_api.c.lpc1768.arm.o(i.semihost_istty), (12 bytes).
    Removing semihost_api.c.lpc1768.arm.o(i.semihost_open), (24 bytes).
    Removing semihost_api.c.lpc1768.arm.o(i.semihost_read), (18 bytes).
    Removing semihost_api.c.lpc1768.arm.o(i.semihost_remove), (22 bytes).
    Removing semihost_api.c.lpc1768.arm.o(i.semihost_rename), (34 bytes).
    Removing semihost_api.c.lpc1768.arm.o(i.semihost_reset), (10 bytes).
    Removing semihost_api.c.lpc1768.arm.o(i.semihost_seek), (16 bytes).
    Removing semihost_api.c.lpc1768.arm.o(i.semihost_uid), (20 bytes).
    Removing semihost_api.c.lpc1768.arm.o(i.semihost_write), (18 bytes).
    Removing nrk_task.o(.ARM.exidx), (8 bytes).
    Removing main.o(.ARM.exidx), (8 bytes).
    Removing main.o(.ARM.exidx), (8 bytes).
    Removing m3pi.o(t._ZN4mbed17rpc_method_callerI4m3pifXadL_ZNS1_7forwardEfEEEEvPNS_4BaseEPKcPc), (60 bytes).
    Removing m3pi.o(.ARM.exidx), (8 bytes).
    Removing m3pi.o(t._ZN4mbed17rpc_method_callerI4m3pifXadL_ZNS1_8backwardEfEEEEvPNS_4BaseEPKcPc), (64 bytes).
    Removing m3pi.o(.ARM.exidx), (8 bytes).
    Removing m3pi.o(t._ZN4mbed17rpc_method_callerI4m3pifXadL_ZNS1_4leftEfEEEEvPNS_4BaseEPKcPc), (64 bytes).
    Removing m3pi.o(.ARM.exidx), (8 bytes).
    Removing m3pi.o(t._ZN4mbed17rpc_method_callerI4m3pifXadL_ZNS1_5rightEfEEEEvPNS_4BaseEPKcPc), (64 bytes).
    Removing m3pi.o(.ARM.exidx), (8 bytes).
    Removing m3pi.o(t._ZN4mbed17rpc_method_callerI4m3piXadL_ZNS1_4stopEvEEEEvPNS_4BaseEPKcPc), (40 bytes).
    Removing m3pi.o(.ARM.exidx), (8 bytes).
    Removing m3pi.o(t._ZN4mbed17rpc_method_callerI4m3pifXadL_ZNS1_10left_motorEfEEEEvPNS_4BaseEPKcPc), (64 bytes).
    Removing m3pi.o(.ARM.exidx), (8 bytes).
    Removing m3pi.o(t._ZN4mbed17rpc_method_callerI4m3pifXadL_ZNS1_11right_motorEfEEEEvPNS_4BaseEPKcPc), (64 bytes).
    Removing m3pi.o(.ARM.exidx), (8 bytes).
    Removing m3pi.o(t._ZN4mbed17rpc_method_callerIf4m3piXadL_ZNS1_7batteryEvEEEEvPNS_4BaseEPKcPc), (48 bytes).
    Removing m3pi.o(.ARM.exidx), (8 bytes).
    Removing m3pi.o(t._ZN4mbed17rpc_method_callerIf4m3piXadL_ZNS1_13line_positionEvEEEEvPNS_4BaseEPKcPc), (48 bytes).
    Removing m3pi.o(.ARM.exidx), (8 bytes).
    Removing m3pi.o(t._ZN4mbed17rpc_method_callerIc4m3piXadL_ZNS1_21sensor_auto_calibrateEvEEEEvPNS_4BaseEPKcPc), (40 bytes).
    Removing m3pi.o(.ARM.exidx), (8 bytes).
    Removing m3pi.o(.ARM.exidx), (8 bytes).
    Removing m3pi.o(i._ZN4mbed9parse_argIfEET_PKcPS3_), (4 bytes).
    Removing m3pi.o(.ARM.exidx), (8 bytes).
    Removing m3pi.o(i._ZN4mbed12write_resultIfEEvT_Pc), (28 bytes).
    Removing m3pi.o(.ARM.exidx), (8 bytes).
    Removing PwmOut.cpp.lpc1768.arm.o(.constdata___ARM__ZN4mbed10parse_pinsEPKc_anon0), (104 bytes).
    Removing PwmOut.cpp.lpc1768.arm.o(.constdata___ARM__ZN4mbed12write_resultIfEEvT_Pc_anon0), (6 bytes).
    Removing PwmOut.cpp.lpc1768.arm.o(.ARM.exidx), (8 bytes).
    Removing PwmOut.cpp.lpc1768.arm.o(t._ZN4mbed17rpc_method_callerIfNS_6PwmOutEXadL_ZNS1_4readEvEEEEvPNS_4BaseEPKcPc), (60 bytes).
    Removing PwmOut.cpp.lpc1768.arm.o(.ARM.exidx), (8 bytes).
    Removing PwmOut.cpp.lpc1768.arm.o(t._ZN4mbed17rpc_method_callerINS_6PwmOutEfXadL_ZNS1_5writeEfEEEEvPNS_4BaseEPKcPc), (60 bytes).
    Removing PwmOut.cpp.lpc1768.arm.o(.ARM.exidx), (8 bytes).
    Removing PwmOut.cpp.lpc1768.arm.o(t._ZN4mbed17rpc_method_callerINS_6PwmOutEfXadL_ZNS1_6periodEfEEEEvPNS_4BaseEPKcPc), (60 bytes).
    Removing PwmOut.cpp.lpc1768.arm.o(.ARM.exidx), (8 bytes).
    Removing PwmOut.cpp.lpc1768.arm.o(t._ZN4mbed17rpc_method_callerINS_6PwmOutEiXadL_ZNS1_9period_msEiEEEEvPNS_4BaseEPKcPc), (80 bytes).
    Removing PwmOut.cpp.lpc1768.arm.o(.ARM.exidx), (8 bytes).
    Removing PwmOut.cpp.lpc1768.arm.o(t._ZN4mbed17rpc_method_callerINS_6PwmOutEfXadL_ZNS1_10pulsewidthEfEEEEvPNS_4BaseEPKcPc), (60 bytes).
    Removing PwmOut.cpp.lpc1768.arm.o(.ARM.exidx), (8 bytes).
    Removing PwmOut.cpp.lpc1768.arm.o(t._ZN4mbed17rpc_method_callerINS_6PwmOutEiXadL_ZNS1_13pulsewidth_msEiEEEEvPNS_4BaseEPKcPc), (80 bytes).
    Removing PwmOut.cpp.lpc1768.arm.o(.ARM.exidx), (8 bytes).
    Removing PwmOut.cpp.lpc1768.arm.o(t._ZN4mbed9rpc_superINS_4BaseEEEPKNS_10rpc_methodEPS1_), (4 bytes).
    Removing PwmOut.cpp.lpc1768.arm.o(.ARM.exidx), (8 bytes).
    Removing PwmOut.cpp.lpc1768.arm.o(t._ZN4mbed19rpc_function_callerIPKc7PinNameS2_XadL_ZNS_4Base9constructINS_6PwmOutES3_S2_EES2_T0_T1_EEEEvS2_Pc), (608 bytes).
    Removing PwmOut.cpp.lpc1768.arm.o(.ARM.exidx), (8 bytes).
    Removing PwmOut.cpp.lpc1768.arm.o(.ARM.exidx), (8 bytes).
    Removing PwmOut.cpp.lpc1768.arm.o(i._ZN4mbed10parse_charEPKcPS1_), (162 bytes).
    Removing PwmOut.cpp.lpc1768.arm.o(.ARM.exidx), (8 bytes).
    Removing PwmOut.cpp.lpc1768.arm.o(i._ZN4mbed8next_argEPKc), (44 bytes).
    Removing PwmOut.cpp.lpc1768.arm.o(.ARM.exidx), (8 bytes).
    Removing Base.cpp.lpc1768.arm.o(t._ZN4mbed17rpc_method_callerINS_4BaseEXadL_ZNS1_11delete_selfEvEEEEvPS1_PKcPc), (40 bytes).
    Removing Base.cpp.lpc1768.arm.o(.ARM.exidx), (8 bytes).
    Removing Base.cpp.lpc1768.arm.o(.constdata__ZTVN4mbed13BaseDirHandleE), (28 bytes).
    Removing Base.cpp.lpc1768.arm.o(.constdata__ZTIN4mbed13BaseDirHandleE), (12 bytes).
    Removing Base.cpp.lpc1768.arm.o(.constdata__ZTIN4mbed9DirHandleE), (8 bytes).
    Removing Base.cpp.lpc1768.arm.o(.constdata__ZTSN4mbed13BaseDirHandleE), (23 bytes).
    Removing Base.cpp.lpc1768.arm.o(.constdata__ZTSN4mbed9DirHandleE), (18 bytes).
    Removing Base.cpp.lpc1768.arm.o(i._ZN4mbed13BaseDirHandle8closedirEv), (10 bytes).
    Removing Base.cpp.lpc1768.arm.o(.ARM.exidx), (8 bytes).
    Removing Base.cpp.lpc1768.arm.o(i._ZN4mbed13BaseDirHandle7readdirEv), (100 bytes).
    Removing Base.cpp.lpc1768.arm.o(.ARM.exidx), (8 bytes).
    Removing Base.cpp.lpc1768.arm.o(i._ZN4mbed13BaseDirHandle7telldirEv), (4 bytes).
    Removing Base.cpp.lpc1768.arm.o(.ARM.exidx), (8 bytes).
    Removing Base.cpp.lpc1768.arm.o(i._ZN4mbed13BaseDirHandle7seekdirEl), (4 bytes).
    Removing Base.cpp.lpc1768.arm.o(.ARM.exidx), (8 bytes).
    Removing Base.cpp.lpc1768.arm.o(i._ZN4mbed13BaseDirHandle9rewinddirEv), (6 bytes).
    Removing Base.cpp.lpc1768.arm.o(.ARM.exidx), (8 bytes).
    Removing BusOut.cpp.lpc1768.arm.o(.constdata__ZTVN4mbed6BusOutE), (24 bytes).
    Removing BusOut.cpp.lpc1768.arm.o(.constdata___ARM__ZN4mbed12write_resultIiEEvT_Pc_anon0), (3 bytes).
    Removing BusOut.cpp.lpc1768.arm.o(t._ZN4mbed17rpc_method_callerINS_6BusOutEiXadL_ZNS1_5writeEiEEEEvPNS_4BaseEPKcPc), (120 bytes).
    Removing BusOut.cpp.lpc1768.arm.o(.ARM.exidx), (8 bytes).
    Removing BusOut.cpp.lpc1768.arm.o(t._ZN4mbed17rpc_method_callerIiNS_6BusOutEXadL_ZNS1_4readEvEEEEvPNS_4BaseEPKcPc), (56 bytes).
    Removing BusOut.cpp.lpc1768.arm.o(.ARM.exidx), (8 bytes).
    Removing BusOut.cpp.lpc1768.arm.o(.constdata__ZTIN4mbed6BusOutE), (12 bytes).
    Removing BusOut.cpp.lpc1768.arm.o(.constdata__ZTSN4mbed6BusOutE), (15 bytes).
    Removing I2C.cpp.lpc1768.arm.o(.ARM.exidx), (8 bytes).
    Removing I2C.cpp.lpc1768.arm.o(.ARM.exidx), (8 bytes).
    Removing DigitalOut.cpp.lpc1768.arm.o(i._ZN4mbed10DigitalOutD1Ev), (4 bytes).
    Removing DigitalOut.cpp.lpc1768.arm.o(.ARM.exidx), (8 bytes).
    Removing DigitalOut.cpp.lpc1768.arm.o(t._ZN4mbed17rpc_method_callerINS_10DigitalOutEiXadL_ZNS1_5writeEiEEEEvPNS_4BaseEPKcPc), (120 bytes).
    Removing DigitalOut.cpp.lpc1768.arm.o(.ARM.exidx), (8 bytes).
    Removing DigitalOut.cpp.lpc1768.arm.o(t._ZN4mbed17rpc_method_callerIiNS_10DigitalOutEXadL_ZNS1_4readEvEEEEvPNS_4BaseEPKcPc), (56 bytes).
    Removing DigitalOut.cpp.lpc1768.arm.o(.ARM.exidx), (8 bytes).
    Removing DigitalOut.cpp.lpc1768.arm.o(t._ZN4mbed19rpc_function_callerIPKc7PinNameS2_XadL_ZNS_4Base9constructINS_10DigitalOutES3_S2_EES2_T0_T1_EEEEvS2_Pc), (680 bytes).
    Removing DigitalOut.cpp.lpc1768.arm.o(.ARM.exidx), (8 bytes).
    Removing DigitalOut.cpp.lpc1768.arm.o(.ARM.exidx), (8 bytes).
    Removing Serial.cpp.lpc1768.arm.o(i._ZN4mbed6SerialD1Ev), (4 bytes).
    Removing Serial.cpp.lpc1768.arm.o(.ARM.exidx), (8 bytes).
    Removing Serial.cpp.lpc1768.arm.o(t._ZN4mbed17rpc_method_callerINS_6SerialEiXadL_ZNS1_4baudEiEEEEvPNS_4BaseEPKcPc), (120 bytes).
    Removing Serial.cpp.lpc1768.arm.o(.ARM.exidx), (8 bytes).
    Removing Serial.cpp.lpc1768.arm.o(t._ZN4mbed17rpc_method_callerIiNS_6SerialEXadL_ZNS1_8readableEvEEEEvPNS_4BaseEPKcPc), (56 bytes).
    Removing Serial.cpp.lpc1768.arm.o(.ARM.exidx), (8 bytes).
    Removing Serial.cpp.lpc1768.arm.o(t._ZN4mbed17rpc_method_callerIiNS_6SerialEXadL_ZNS1_9writeableEvEEEEvPNS_4BaseEPKcPc), (56 bytes).
    Removing Serial.cpp.lpc1768.arm.o(.ARM.exidx), (8 bytes).
    Removing Serial.cpp.lpc1768.arm.o(t._ZN4mbed9rpc_superINS_6StreamEEEPKNS_10rpc_methodEPNS_4BaseE), (4 bytes).
    Removing Serial.cpp.lpc1768.arm.o(.ARM.exidx), (8 bytes).
    Removing Serial.cpp.lpc1768.arm.o(t._ZN4mbed19rpc_function_callerIPKc7PinNameS3_S2_XadL_ZNS_4Base9constructINS_6SerialES3_S3_S2_EES2_T0_T1_T2_EEEEvS2_Pc), (528 bytes).
    Removing Serial.cpp.lpc1768.arm.o(.ARM.exidx), (8 bytes).
    Removing Serial.cpp.lpc1768.arm.o(.ARM.exidx), (8 bytes).
    Removing Serial.cpp.lpc1768.arm.o(i._ZN4mbed9parse_argI7PinNameEET_PKcPS4_), (240 bytes).
    Removing Serial.cpp.lpc1768.arm.o(.ARM.exidx), (8 bytes).
    Removing Stream.cpp.lpc1768.arm.o(t._ZN4mbed17rpc_method_callerIiNS_6StreamEiXadL_ZNS1_4putcEiEEEEvPNS_4BaseEPKcPc), (132 bytes).
    Removing Stream.cpp.lpc1768.arm.o(.ARM.exidx), (8 bytes).
    Removing Stream.cpp.lpc1768.arm.o(t._ZN4mbed17rpc_method_callerIiNS_6StreamEXadL_ZNS1_4getcEvEEEEvPNS_4BaseEPKcPc), (56 bytes).
    Removing Stream.cpp.lpc1768.arm.o(.ARM.exidx), (8 bytes).
    Removing Stream.cpp.lpc1768.arm.o(t._ZN4mbed17rpc_method_callerIiNS_6StreamEPKcXadL_ZNS1_4putsES3_EEEEvPNS_4BaseES3_Pc), (380 bytes).
    Removing Stream.cpp.lpc1768.arm.o(.ARM.exidx), (8 bytes).
    Removing Stream.cpp.lpc1768.arm.o(.ARM.exidx), (8 bytes).
    Removing Stream.cpp.lpc1768.arm.o(i._ZN4mbed6Stream4putsEPKc), (24 bytes).
    Removing Stream.cpp.lpc1768.arm.o(.ARM.exidx), (8 bytes).
    Removing Stream.cpp.lpc1768.arm.o(i._ZN4mbed6Stream4getcEv), (20 bytes).
    Removing Stream.cpp.lpc1768.arm.o(.ARM.exidx), (8 bytes).
    Removing stdio.cpp.lpc1768.arm.o(.ARM.exidx), (8 bytes).

845 unused section(s) (total 20432 bytes) removed from the image.

==============================================================================

Image Symbol Table

    Local Symbols

    Symbol Name                              Value     Ov Type        Size  Object(Section)

    RESET                                    0x00000000   Section      196  startup_LPC17xx.o(RESET)
    ../../../edgfe/lib_src/arm_exceptions.c  0x00000000   Number         0  arm_exceptions_terminate.o ABSOLUTE
    ../../../edgfe/lib_src/arm_exceptions.c  0x00000000   Number         0  arm_exceptions_mem.o ABSOLUTE
    ../../../edgfe/lib_src/arm_exceptions.c  0x00000000   Number         0  arm_exceptions_globs.o ABSOLUTE
    ../../../edgfe/lib_src/arm_noexceptions.c 0x00000000   Number         0  arm_bad_typeid_noexceptions.o ABSOLUTE
    ../../../edgfe/lib_src/arm_noexceptions.c 0x00000000   Number         0  arm_callunex_noexceptions.o ABSOLUTE
    ../../../edgfe/lib_src/arm_noexceptions.c 0x00000000   Number         0  arm_newhandler_noexceptions.o ABSOLUTE
    ../../../edgfe/lib_src/array_del.c       0x00000000   Number         0  array_del.o ABSOLUTE
    ../../../edgfe/lib_src/array_new.c       0x00000000   Number         0  array_new.o ABSOLUTE
    ../../../edgfe/lib_src/bad_alloc.c       0x00000000   Number         0  bad_alloc_dtor.o ABSOLUTE
    ../../../edgfe/lib_src/bad_alloc.c       0x00000000   Number         0  bad_alloc_what.o ABSOLUTE
    ../../../edgfe/lib_src/delete.c          0x00000000   Number         0  delete.o ABSOLUTE
    ../../../edgfe/lib_src/dtor_list.c       0x00000000   Number         0  cxa_finalize.o ABSOLUTE
    ../../../edgfe/lib_src/dtor_list.c       0x00000000   Number         0  cxa_atexit.o ABSOLUTE
    ../../../edgfe/lib_src/dtor_list.c       0x00000000   Number         0  aeabi_atexit.o ABSOLUTE
    ../../../edgfe/lib_src/exception.c       0x00000000   Number         0  exception_dtor.o ABSOLUTE
    ../../../edgfe/lib_src/exception.c       0x00000000   Number         0  exception_what.o ABSOLUTE
    ../../../edgfe/lib_src/new.c             0x00000000   Number         0  new.o ABSOLUTE
    ../../../edgfe/lib_src/pure_virt.c       0x00000000   Number         0  pure_virt.o ABSOLUTE
    ../../../edgfe/lib_src/rtti.c            0x00000000   Number         0  rtti.o ABSOLUTE
    ../../../edgfe/lib_src/typeinfo.c        0x00000000   Number         0  type_info_name.o ABSOLUTE
    ../../../edgfe/lib_src/typeinfo.c        0x00000000   Number         0  lib_rtti_impl.o ABSOLUTE
    ../../../edgfe/lib_src/typeinfo.c        0x00000000   Number         0  type_info_dtor.o ABSOLUTE
    ../../../edgfe/lib_src/typeinfo.c        0x00000000   Number         0  type_info_eq.o ABSOLUTE
    ../../angel/boardlib.s                   0x00000000   Number         0  boardinit1.o ABSOLUTE
    ../../angel/boardlib.s                   0x00000000   Number         0  boardinit2.o ABSOLUTE
    ../../angel/boardlib.s                   0x00000000   Number         0  boardinit3.o ABSOLUTE
    ../../angel/dczerorl2.s                  0x00000000   Number         0  __dczerorl2.o ABSOLUTE
    ../../angel/handlers.s                   0x00000000   Number         0  __scatter_zi.o ABSOLUTE
    ../../angel/kernel.s                     0x00000000   Number         0  rtentry2.o ABSOLUTE
    ../../angel/kernel.s                     0x00000000   Number         0  rtentry.o ABSOLUTE
    ../../angel/kernel.s                     0x00000000   Number         0  rtentry4.o ABSOLUTE
    ../../angel/rt.s                         0x00000000   Number         0  rt_fp_status_addr_intlibspace.o ABSOLUTE
    ../../angel/rt.s                         0x00000000   Number         0  rt_errno_addr.o ABSOLUTE
    ../../angel/rt.s                         0x00000000   Number         0  rt_div0.o ABSOLUTE
    ../../angel/rt.s                         0x00000000   Number         0  rt_errno_addr_intlibspace.o ABSOLUTE
    ../../angel/rt.s                         0x00000000   Number         0  rt_raise.o ABSOLUTE
    ../../angel/rt.s                         0x00000000   Number         0  rt_heap_descriptor.o ABSOLUTE
    ../../angel/rt.s                         0x00000000   Number         0  rt_heap_descriptor_intlibspace.o ABSOLUTE
    ../../angel/rt.s                         0x00000000   Number         0  rt_ddtor_pointer_addr_intlibspace.o ABSOLUTE
    ../../angel/rt.s                         0x00000000   Number         0  rt_locale.o ABSOLUTE
    ../../angel/rt.s                         0x00000000   Number         0  rt_locale_intlibspace.o ABSOLUTE
    ../../angel/rt.s                         0x00000000   Number         0  rt_ddtor_pointer_addr.o ABSOLUTE
    ../../angel/rt.s                         0x00000000   Number         0  rt_new_handler_addr_intlibspace.o ABSOLUTE
    ../../angel/rt.s                         0x00000000   Number         0  rt_new_handler_addr.o ABSOLUTE
    ../../angel/rt.s                         0x00000000   Number         0  aeabi_ldiv0_sigfpe.o ABSOLUTE
    ../../angel/rt.s                         0x00000000   Number         0  rt_ctype_table.o ABSOLUTE
    ../../angel/rt.s                         0x00000000   Number         0  aeabi_ldiv0.o ABSOLUTE
    ../../angel/rt.s                         0x00000000   Number         0  rt_eh_globals_addr.o ABSOLUTE
    ../../angel/rt.s                         0x00000000   Number         0  rt_eh_globals_addr_intlibspace.o ABSOLUTE
    ../../angel/rt.s                         0x00000000   Number         0  rt_fp_status_addr.o ABSOLUTE
    ../../angel/scatter.s                    0x00000000   Number         0  __scatter.o ABSOLUTE
    ../../angel/startup.s                    0x00000000   Number         0  __main.o ABSOLUTE
    ../../angel/sys.s                        0x00000000   Number         0  libspace.o ABSOLUTE
    ../../angel/sys.s                        0x00000000   Number         0  indicate_semi.o ABSOLUTE
    ../../angel/sys.s                        0x00000000   Number         0  use_no_semi.o ABSOLUTE
    ../../angel/sys.s                        0x00000000   Number         0  mutex_dummy.o ABSOLUTE
    ../../angel/sysapp.c                     0x00000000   Number         0  sys_exit.o ABSOLUTE
    ../../angel/sysapp.c                     0x00000000   Number         0  sys_wrch.o ABSOLUTE
    ../../arm_runtime.c                      0x00000000   Number         0  init_aeabi.o ABSOLUTE
    ../../arm_runtime.c                      0x00000000   Number         0  init_aeabi.o ABSOLUTE
    ../../armsys.c                           0x00000000   Number         0  argv_veneer.o ABSOLUTE
    ../../armsys.c                           0x00000000   Number         0  no_argv.o ABSOLUTE
    ../../armsys.c                           0x00000000   Number         0  _get_argv_nomalloc.o ABSOLUTE
    ../../armsys.c                           0x00000000   Number         0  _get_argv.o ABSOLUTE
    ../../armsys.c                           0x00000000   Number         0  argv_veneer.o ABSOLUTE
    ../../assert.c                           0x00000000   Number         0  assert.o ABSOLUTE
    ../../assert.c                           0x00000000   Number         0  assert_puts.o ABSOLUTE
    ../../assert.c                           0x00000000   Number         0  assert_stdio.o ABSOLUTE
    ../../atan.c                             0x00000000   Number         0  atan_x.o ABSOLUTE
    ../../atan.c                             0x00000000   Number         0  atan.o ABSOLUTE
    ../../atan2.c                            0x00000000   Number         0  atan2.o ABSOLUTE
    ../../atan2.c                            0x00000000   Number         0  atan2_x.o ABSOLUTE
    ../../bigflt.c                           0x00000000   Number         0  bigflt0.o ABSOLUTE
    ../../btod.s                             0x00000000   Number         0  btod.o ABSOLUTE
    ../../compat.c                           0x00000000   Number         0  aeabi_ctype_def.o ABSOLUTE
    ../../cos.c                              0x00000000   Number         0  cos_x.o ABSOLUTE
    ../../cos.c                              0x00000000   Number         0  cos.o ABSOLUTE
    ../../cos_i.c                            0x00000000   Number         0  cos_i.o ABSOLUTE
    ../../ctype.c                            0x00000000   Number         0  isspace.o ABSOLUTE
    ../../d2f.s                              0x00000000   Number         0  d2f.o ABSOLUTE
    ../../daddsub.s                          0x00000000   Number         0  daddsub_clz.o ABSOLUTE
    ../../dcheck1.s                          0x00000000   Number         0  dcheck1.o ABSOLUTE
    ../../dcmpi.s                            0x00000000   Number         0  dcmpi.o ABSOLUTE
    ../../ddiv.s                             0x00000000   Number         0  ddiv.o ABSOLUTE
    ../../deqf.s                             0x00000000   Number         0  deqf.o ABSOLUTE
    ../../dfix.s                             0x00000000   Number         0  dfix.o ABSOLUTE
    ../../dflt.s                             0x00000000   Number         0  dflt_clz.o ABSOLUTE
    ../../dleqf.s                            0x00000000   Number         0  dleqf.o ABSOLUTE
    ../../dmul.s                             0x00000000   Number         0  dmul.o ABSOLUTE
    ../../dnaninf.s                          0x00000000   Number         0  dnaninf.o ABSOLUTE
    ../../dretinf.s                          0x00000000   Number         0  dretinf.o ABSOLUTE
    ../../drleqf.s                           0x00000000   Number         0  drleqf.o ABSOLUTE
    ../../dsqrt.s                            0x00000000   Number         0  dsqrt_noumaal.o ABSOLUTE
    ../../dunder.c                           0x00000000   Number         0  dunder.o ABSOLUTE
    ../../f2d.s                              0x00000000   Number         0  f2d.o ABSOLUTE
    ../../faddsub.s                          0x00000000   Number         0  faddsub_clz.o ABSOLUTE
    ../../fcheck1.s                          0x00000000   Number         0  fcheck1.o ABSOLUTE
    ../../fdiv.s                             0x00000000   Number         0  fdiv.o ABSOLUTE
    ../../fenv.c                             0x00000000   Number         0  _rserrno.o ABSOLUTE
    ../../ffix.s                             0x00000000   Number         0  ffix.o ABSOLUTE
    ../../ffixu.s                            0x00000000   Number         0  ffixu.o ABSOLUTE
    ../../fflt.s                             0x00000000   Number         0  fflt_clz.o ABSOLUTE
    ../../fmul.s                             0x00000000   Number         0  fmul.o ABSOLUTE
    ../../fnaninf.s                          0x00000000   Number         0  fnaninf.o ABSOLUTE
    ../../fpclassify.c                       0x00000000   Number         0  fpclassify.o ABSOLUTE
    ../../fpconst.s                          0x00000000   Number         0  fpconst.o ABSOLUTE
    ../../fpinit.s                           0x00000000   Number         0  fpinit.o ABSOLUTE
    ../../fretinf.s                          0x00000000   Number         0  fretinf.o ABSOLUTE
    ../../frexp.c                            0x00000000   Number         0  frexp.o ABSOLUTE
    ../../funder.c                           0x00000000   Number         0  funder.o ABSOLUTE
    ../../heap1.c                            0x00000000   Number         0  h1_alloc.o ABSOLUTE
    ../../heap1.c                            0x00000000   Number         0  h1_free_mt.o ABSOLUTE
    ../../heap1.c                            0x00000000   Number         0  h1_alloc_mt.o ABSOLUTE
    ../../heap1.c                            0x00000000   Number         0  h1_extend.o ABSOLUTE
    ../../heap1.c                            0x00000000   Number         0  h1_extend_mt.o ABSOLUTE
    ../../heap1.c                            0x00000000   Number         0  h1_init.o ABSOLUTE
    ../../heap1.c                            0x00000000   Number         0  h1_final.o ABSOLUTE
    ../../heap1.c                            0x00000000   Number         0  h1_init_mt.o ABSOLUTE
    ../../heap1.c                            0x00000000   Number         0  h1_final_mt.o ABSOLUTE
    ../../heap1.c                            0x00000000   Number         0  h1_free.o ABSOLUTE
    ../../heap2.c                            0x00000000   Number         0  heap2.o ABSOLUTE
    ../../heap2.c                            0x00000000   Number         0  fdtree.o ABSOLUTE
    ../../heap2.c                            0x00000000   Number         0  heap2mt.o ABSOLUTE
    ../../heapalloc.c                        0x00000000   Number         0  term_alloc.o ABSOLUTE
    ../../heapalloc.c                        0x00000000   Number         0  maybetermalloc1.o ABSOLUTE
    ../../heapalloc.c                        0x00000000   Number         0  hguard.o ABSOLUTE
    ../../heapalloc.c                        0x00000000   Number         0  heapstubs.o ABSOLUTE
    ../../heapalloc.c                        0x00000000   Number         0  maybetermalloc1.o ABSOLUTE
    ../../heapalloc.c                        0x00000000   Number         0  hrguard.o ABSOLUTE
    ../../heapalloc.c                        0x00000000   Number         0  malloc.o ABSOLUTE
    ../../heapalloc.c                        0x00000000   Number         0  init_alloc.o ABSOLUTE
    ../../heapalloc.c                        0x00000000   Number         0  free.o ABSOLUTE
    ../../heapalloc.c                        0x00000000   Number         0  maybetermalloc2.o ABSOLUTE
    ../../heapalloc.c                        0x00000000   Number         0  maybetermalloc2.o ABSOLUTE
    ../../heapaux.c                          0x00000000   Number         0  heapauxi.o ABSOLUTE
    ../../heapaux.c                          0x00000000   Number         0  heapauxa.o ABSOLUTE
    ../../istatus.s                          0x00000000   Number         0  istatus.o ABSOLUTE
    ../../ldexp.c                            0x00000000   Number         0  ldexp.o ABSOLUTE
    ../../ldexp.c                            0x00000000   Number         0  ldexp_x.o ABSOLUTE
    ../../libinit.s                          0x00000000   Number         0  libshutdown2.o ABSOLUTE
    ../../libinit.s                          0x00000000   Number         0  libinit2.o ABSOLUTE
    ../../libinit.s                          0x00000000   Number         0  libinit.o ABSOLUTE
    ../../locale.c                           0x00000000   Number         0  _wcrtomb.o ABSOLUTE
    ../../locale.c                           0x00000000   Number         0  _mbrtowc.o ABSOLUTE
    ../../locale.s                           0x00000000   Number         0  lc_ctype_c.o ABSOLUTE
    ../../locale.s                           0x00000000   Number         0  lc_numeric_c.o ABSOLUTE
    ../../longlong.s                         0x00000000   Number         0  llshl.o ABSOLUTE
    ../../longlong.s                         0x00000000   Number         0  lludivv7m.o ABSOLUTE
    ../../longlong.s                         0x00000000   Number         0  lludiv10.o ABSOLUTE
    ../../memcpset.s                         0x00000000   Number         0  strcmpv7m.o ABSOLUTE
    ../../memcpset.s                         0x00000000   Number         0  strncpy.o ABSOLUTE
    ../../memcpset.s                         0x00000000   Number         0  rt_memcpy_w.o ABSOLUTE
    ../../memcpset.s                         0x00000000   Number         0  rt_memcpy_v6.o ABSOLUTE
    ../../memcpset.s                         0x00000000   Number         0  rt_memclr.o ABSOLUTE
    ../../memcpset.s                         0x00000000   Number         0  rt_memclr_w.o ABSOLUTE
    ../../misc.s                             0x00000000   Number         0  printf_stubs.o ABSOLUTE
    ../../narrow.c                           0x00000000   Number         0  narrow.o ABSOLUTE
    ../../poly.c                             0x00000000   Number         0  poly.o ABSOLUTE
    ../../printf.c                           0x00000000   Number         0  __printf_flags_ss.o ABSOLUTE
    ../../printf.c                           0x00000000   Number         0  __printf_wp.o ABSOLUTE
    ../../printf.c                           0x00000000   Number         0  __printf_nopercent.o ABSOLUTE
    ../../printf.c                           0x00000000   Number         0  __printf_flags_wp.o ABSOLUTE
    ../../printf.c                           0x00000000   Number         0  _printf_fp_infnan.o ABSOLUTE
    ../../printf.c                           0x00000000   Number         0  _printf_fp_hex.o ABSOLUTE
    ../../printf.c                           0x00000000   Number         0  _printf_hex_int_ll_ptr.o ABSOLUTE
    ../../printf.c                           0x00000000   Number         0  __printf_ss_wp.o ABSOLUTE
    ../../printf.c                           0x00000000   Number         0  _printf_fp_dec.o ABSOLUTE
    ../../printf.c                           0x00000000   Number         0  _printf_char_common.o ABSOLUTE
    ../../printf.c                           0x00000000   Number         0  _sputc.o ABSOLUTE
    ../../printf.c                           0x00000000   Number         0  _printf_char.o ABSOLUTE
    ../../printf.c                           0x00000000   Number         0  _printf_char_file.o ABSOLUTE
    ../../printf.c                           0x00000000   Number         0  _printf_wctomb.o ABSOLUTE
    ../../printf.c                           0x00000000   Number         0  _printf_longlong_dec.o ABSOLUTE
    ../../printf.c                           0x00000000   Number         0  _printf_oct_ll.o ABSOLUTE
    ../../printf.c                           0x00000000   Number         0  _printf_charcount.o ABSOLUTE
    ../../printf.c                           0x00000000   Number         0  _printf_pad.o ABSOLUTE
    ../../printf.c                           0x00000000   Number         0  _printf_oct_int.o ABSOLUTE
    ../../printf.c                           0x00000000   Number         0  _printf_oct_int_ll.o ABSOLUTE
    ../../printf.c                           0x00000000   Number         0  __printf_flags.o ABSOLUTE
    ../../printf.c                           0x00000000   Number         0  __printf_flags_ss_wp.o ABSOLUTE
    ../../printf.c                           0x00000000   Number         0  noretval__2printf.o ABSOLUTE
    ../../printf.c                           0x00000000   Number         0  fprintf.o ABSOLUTE
    ../../printf.c                           0x00000000   Number         0  vfprintf.o ABSOLUTE
    ../../printf.c                           0x00000000   Number         0  sprintf.o ABSOLUTE
    ../../printf.c                           0x00000000   Number         0  __2printf.o ABSOLUTE
    ../../printf.c                           0x00000000   Number         0  __2sprintf.o ABSOLUTE
    ../../printf.c                           0x00000000   Number         0  _printf_truncate.o ABSOLUTE
    ../../printf.c                           0x00000000   Number         0  __printf_ss.o ABSOLUTE
    ../../printf.c                           0x00000000   Number         0  noretval__2sprintf.o ABSOLUTE
    ../../printf.c                           0x00000000   Number         0  __printf.o ABSOLUTE
    ../../printf.c                           0x00000000   Number         0  _printf_str.o ABSOLUTE
    ../../printf.c                           0x00000000   Number         0  _printf_dec.o ABSOLUTE
    ../../printf.c                           0x00000000   Number         0  _printf_hex_ll.o ABSOLUTE
    ../../printf.c                           0x00000000   Number         0  _printf_intcommon.o ABSOLUTE
    ../../printf.c                           0x00000000   Number         0  _printf_hex_int.o ABSOLUTE
    ../../printf.c                           0x00000000   Number         0  _printf_hex_int_ll.o ABSOLUTE
    ../../printf.c                           0x00000000   Number         0  _printf_hex_ptr.o ABSOLUTE
    ../../printf.c                           0x00000000   Number         0  _printf_hex_int_ptr.o ABSOLUTE
    ../../printf.c                           0x00000000   Number         0  _printf_hex_ll_ptr.o ABSOLUTE
    ../../printf.c                           0x00000000   Number         0  _printf_wchar.o ABSOLUTE
    ../../printf.c                           0x00000000   Number         0  _printf_char_file_locked.o ABSOLUTE
    ../../printf1.s                          0x00000000   Number         0  printf1.o ABSOLUTE
    ../../printf2.s                          0x00000000   Number         0  printf2.o ABSOLUTE
    ../../printf2a.s                         0x00000000   Number         0  printf2a.o ABSOLUTE
    ../../printf2b.s                         0x00000000   Number         0  printf2b.o ABSOLUTE
    ../../printf_percent.s                   0x00000000   Number         0  _printf_i.o ABSOLUTE
    ../../printf_percent.s                   0x00000000   Number         0  _printf_x.o ABSOLUTE
    ../../printf_percent.s                   0x00000000   Number         0  _printf_lld.o ABSOLUTE
    ../../printf_percent.s                   0x00000000   Number         0  _printf_llu.o ABSOLUTE
    ../../printf_percent.s                   0x00000000   Number         0  _printf_ll.o ABSOLUTE
    ../../printf_percent.s                   0x00000000   Number         0  _printf_d.o ABSOLUTE
    ../../printf_percent.s                   0x00000000   Number         0  _printf_o.o ABSOLUTE
    ../../printf_percent.s                   0x00000000   Number         0  _printf_u.o ABSOLUTE
    ../../printf_percent.s                   0x00000000   Number         0  _printf_g.o ABSOLUTE
    ../../printf_percent.s                   0x00000000   Number         0  _printf_p.o ABSOLUTE
    ../../printf_percent.s                   0x00000000   Number         0  _printf_percent.o ABSOLUTE
    ../../printf_percent.s                   0x00000000   Number         0  _printf_n.o ABSOLUTE
    ../../printf_percent.s                   0x00000000   Number         0  _printf_l.o ABSOLUTE
    ../../printf_percent.s                   0x00000000   Number         0  _printf_percent_end.o ABSOLUTE
    ../../printf_percent.s                   0x00000000   Number         0  _printf_lc.o ABSOLUTE
    ../../printf_percent.s                   0x00000000   Number         0  _printf_c.o ABSOLUTE
    ../../printf_percent.s                   0x00000000   Number         0  _printf_f.o ABSOLUTE
    ../../printf_percent.s                   0x00000000   Number         0  _printf_ls.o ABSOLUTE
    ../../printf_percent.s                   0x00000000   Number         0  _printf_llo.o ABSOLUTE
    ../../printf_percent.s                   0x00000000   Number         0  _printf_s.o ABSOLUTE
    ../../printf_percent.s                   0x00000000   Number         0  _printf_llx.o ABSOLUTE
    ../../printf_percent.s                   0x00000000   Number         0  _printf_e.o ABSOLUTE
    ../../printf_percent.s                   0x00000000   Number         0  _printf_a.o ABSOLUTE
    ../../printf_percent.s                   0x00000000   Number         0  _printf_lli.o ABSOLUTE
    ../../qnan.c                             0x00000000   Number         0  qnan.o ABSOLUTE
    ../../retnan.s                           0x00000000   Number         0  retnan.o ABSOLUTE
    ../../rred.c                             0x00000000   Number         0  rred.o ABSOLUTE
    ../../scalbn.s                           0x00000000   Number         0  scalbn.o ABSOLUTE
    ../../scalbnf.c                          0x00000000   Number         0  scalbnf_x.o ABSOLUTE
    ../../scalbnf.c                          0x00000000   Number         0  scalbnf.o ABSOLUTE
    ../../scalbnf.s                          0x00000000   Number         0  scalbnf.o ABSOLUTE
    ../../scanf.c                            0x00000000   Number         0  vfscanf.o ABSOLUTE
    ../../scanf.c                            0x00000000   Number         0  sscanf.o ABSOLUTE
    ../../scanf.c                            0x00000000   Number         0  scanf_char_file.o ABSOLUTE
    ../../scanf.c                            0x00000000   Number         0  scanf_infnan.o ABSOLUTE
    ../../scanf.c                            0x00000000   Number         0  scanf_hexfp.o ABSOLUTE
    ../../scanf.c                            0x00000000   Number         0  scanf_char_file_locked.o ABSOLUTE
    ../../scanf.c                            0x00000000   Number         0  scanf_fp.o ABSOLUTE
    ../../scanf.c                            0x00000000   Number         0  _scanf.o ABSOLUTE
    ../../scanf.c                            0x00000000   Number         0  _chval.o ABSOLUTE
    ../../scanf.c                            0x00000000   Number         0  _scanf_mbtowc.o ABSOLUTE
    ../../scanf.c                            0x00000000   Number         0  _scanf_wcharmap.o ABSOLUTE
    ../../scanf.c                            0x00000000   Number         0  _scanf_wstr.o ABSOLUTE
    ../../scanf.c                            0x00000000   Number         0  _scanf_wctomb.o ABSOLUTE
    ../../scanf.c                            0x00000000   Number         0  strtod.o ABSOLUTE
    ../../scanf.c                            0x00000000   Number         0  _strtoul.o ABSOLUTE
    ../../scanf.c                            0x00000000   Number         0  _sgetc.o ABSOLUTE
    ../../scanf.c                            0x00000000   Number         0  scanf_char.o ABSOLUTE
    ../../scanf.c                            0x00000000   Number         0  _scanf_str.o ABSOLUTE
    ../../scanf.c                            0x00000000   Number         0  _scanf_int.o ABSOLUTE
    ../../scanf.c                            0x00000000   Number         0  _scanf_longlong.o ABSOLUTE
    ../../scanf.c                            0x00000000   Number         0  strtol.o ABSOLUTE
    ../../scanf1.s                           0x00000000   Number         0  scanf1.o ABSOLUTE
    ../../scanf2.s                           0x00000000   Number         0  scanf2.o ABSOLUTE
    ../../scanf2a.s                          0x00000000   Number         0  scanf2a.o ABSOLUTE
    ../../scanf2b.s                          0x00000000   Number         0  scanf2b.o ABSOLUTE
    ../../signal.c                           0x00000000   Number         0  defsig_rtred_outer.o ABSOLUTE
    ../../signal.c                           0x00000000   Number         0  defsig_rtred_inner.o ABSOLUTE
    ../../signal.c                           0x00000000   Number         0  defsig_rtred_formal.o ABSOLUTE
    ../../signal.c                           0x00000000   Number         0  defsig_fpe_formal.o ABSOLUTE
    ../../signal.c                           0x00000000   Number         0  defsig_pvfn_formal.o ABSOLUTE
    ../../signal.c                           0x00000000   Number         0  defsig_general.o ABSOLUTE
    ../../signal.c                           0x00000000   Number         0  defsig_pvfn_outer.o ABSOLUTE
    ../../signal.c                           0x00000000   Number         0  defsig_exit.o ABSOLUTE
    ../../signal.c                           0x00000000   Number         0  defsig_fpe_outer.o ABSOLUTE
    ../../signal.c                           0x00000000   Number         0  defsig_abrt_outer.o ABSOLUTE
    ../../signal.c                           0x00000000   Number         0  defsig_abrt_formal.o ABSOLUTE
    ../../signal.c                           0x00000000   Number         0  __raise.o ABSOLUTE
    ../../signal.c                           0x00000000   Number         0  defsig_rtmem_formal.o ABSOLUTE
    ../../signal.c                           0x00000000   Number         0  defsig_fpe_inner.o ABSOLUTE
    ../../signal.c                           0x00000000   Number         0  defsig_rtmem_inner.o ABSOLUTE
    ../../signal.c                           0x00000000   Number         0  defsig_cppl_inner.o ABSOLUTE
    ../../signal.c                           0x00000000   Number         0  defsig_abrt_inner.o ABSOLUTE
    ../../signal.c                           0x00000000   Number         0  defsig_rtmem_outer.o ABSOLUTE
    ../../signal.c                           0x00000000   Number         0  defsig_pvfn_inner.o ABSOLUTE
    ../../signal.c                           0x00000000   Number         0  defsig_stak_inner.o ABSOLUTE
    ../../signal.c                           0x00000000   Number         0  defsig_segv_inner.o ABSOLUTE
    ../../signal.c                           0x00000000   Number         0  defsig_other.o ABSOLUTE
    ../../signal.s                           0x00000000   Number         0  defsig.o ABSOLUTE
    ../../sin.c                              0x00000000   Number         0  sin.o ABSOLUTE
    ../../sin.c                              0x00000000   Number         0  sin_x.o ABSOLUTE
    ../../sin_i.c                            0x00000000   Number         0  sin_i.o ABSOLUTE
    ../../sin_i.c                            0x00000000   Number         0  sin_i_x.o ABSOLUTE
    ../../sqrt.c                             0x00000000   Number         0  sqrt_x.o ABSOLUTE
    ../../sqrt.c                             0x00000000   Number         0  sqrt.o ABSOLUTE
    ../../stdio.c                            0x00000000   Number         0  fgetc_locked.o ABSOLUTE
    ../../stdio.c                            0x00000000   Number         0  fputc_locked.o ABSOLUTE
    ../../stdio.c                            0x00000000   Number         0  fclose_locked.o ABSOLUTE
    ../../stdio.c                            0x00000000   Number         0  fflush_locked.o ABSOLUTE
    ../../stdio.c                            0x00000000   Number         0  fopen_locked.o ABSOLUTE
    ../../stdio.c                            0x00000000   Number         0  fread_bytes_avail_locked.o ABSOLUTE
    ../../stdio.c                            0x00000000   Number         0  ungetc.o ABSOLUTE
    ../../stdio.c                            0x00000000   Number         0  flushlinebuffered_locked.o ABSOLUTE
    ../../stdio.c                            0x00000000   Number         0  fwritefast_locked.o ABSOLUTE
    ../../stdio.c                            0x00000000   Number         0  freadfast_locked.o ABSOLUTE
    ../../stdio.c                            0x00000000   Number         0  ferror_locked.o ABSOLUTE
    ../../stdio.c                            0x00000000   Number         0  backspace_locked.o ABSOLUTE
    ../../stdio.c                            0x00000000   Number         0  fputs_locked.o ABSOLUTE
    ../../stdio.c                            0x00000000   Number         0  flushlinebuffered.o ABSOLUTE
    ../../stdio.c                            0x00000000   Number         0  fwritefast.o ABSOLUTE
    ../../stdio.c                            0x00000000   Number         0  fread_bytes_avail.o ABSOLUTE
    ../../stdio.c                            0x00000000   Number         0  freadfast.o ABSOLUTE
    ../../stdio.c                            0x00000000   Number         0  ftell.o ABSOLUTE
    ../../stdio.c                            0x00000000   Number         0  ferror.o ABSOLUTE
    ../../stdio.c                            0x00000000   Number         0  backspace.o ABSOLUTE
    ../../stdio.c                            0x00000000   Number         0  fflush.o ABSOLUTE
    ../../stdio.c                            0x00000000   Number         0  fgetc.o ABSOLUTE
    ../../stdio.c                            0x00000000   Number         0  fputc.o ABSOLUTE
    ../../stdio.c                            0x00000000   Number         0  fputs.o ABSOLUTE
    ../../stdio.c                            0x00000000   Number         0  putc.o ABSOLUTE
    ../../stdio.c                            0x00000000   Number         0  fopen.o ABSOLUTE
    ../../stdio.c                            0x00000000   Number         0  setbuf.o ABSOLUTE
    ../../stdio.c                            0x00000000   Number         0  initio_locked.o ABSOLUTE
    ../../stdio.c                            0x00000000   Number         0  setvbuf_locked.o ABSOLUTE
    ../../stdio.c                            0x00000000   Number         0  initio.o ABSOLUTE
    ../../stdio.c                            0x00000000   Number         0  streamlock.o ABSOLUTE
    ../../stdio.c                            0x00000000   Number         0  setvbuf.o ABSOLUTE
    ../../stdio.c                            0x00000000   Number         0  fseek.o ABSOLUTE
    ../../stdio.c                            0x00000000   Number         0  flsbuf.o ABSOLUTE
    ../../stdio.c                            0x00000000   Number         0  filbuf.o ABSOLUTE
    ../../stdio.c                            0x00000000   Number         0  stdio_streams.o ABSOLUTE
    ../../stdio.c                            0x00000000   Number         0  fclose.o ABSOLUTE
    ../../stdio.c                            0x00000000   Number         0  stdio.o ABSOLUTE
    ../../stdlib.c                           0x00000000   Number         0  abort.o ABSOLUTE
    ../../stdlib.c                           0x00000000   Number         0  atexit_cpp.o ABSOLUTE
    ../../stdlib.c                           0x00000000   Number         0  rand.o ABSOLUTE
    ../../stdlib.c                           0x00000000   Number         0  rand.o ABSOLUTE
    ../../stdlib.c                           0x00000000   Number         0  bsearchnoex.o ABSOLUTE
    ../../string.c                           0x00000000   Number         0  strncmp.o ABSOLUTE
    ../../string.c                           0x00000000   Number         0  strlen.o ABSOLUTE
    ../../string.c                           0x00000000   Number         0  strcpy.o ABSOLUTE
    ../../strtof.c                           0x00000000   Number         0  strtof.o ABSOLUTE
    ../../trapv.s                            0x00000000   Number         0  trapv.o ABSOLUTE
    ../../unwind_pr.c                        0x00000000   Number         0  unwind_pr0.o ABSOLUTE
    ../../unwind_pr.c                        0x00000000   Number         0  unwind_prcommon.o ABSOLUTE
    ../../unwinder.c                         0x00000000   Number         0  unwind_activity.o ABSOLUTE
    ../../unwinder.c                         0x00000000   Number         0  unwinder.o ABSOLUTE
    ../../unwinder.c                         0x00000000   Number         0  unwinder.o ABSOLUTE
    ../../unwinder.c                         0x00000000   Number         0  unwind_activity.o ABSOLUTE
    ../../usenofp.s                          0x00000000   Number         0  usenofp.o ABSOLUTE
    ../../wchar.c                            0x00000000   Number         0  flsbuf_fwide.o ABSOLUTE
    ../../wchar.c                            0x00000000   Number         0  filbuf_fwide.o ABSOLUTE
    ..\..\m3pi.cpp                           0x00000000   Number         0  m3pi.o ABSOLUTE
    dc.s                                     0x00000000   Number         0  dc.o ABSOLUTE
    mrk_uvision_lpc1768\mrk\NanoRk\Projects\basic_bmac\main.cpp 0x00000000   Number         0  main.o ABSOLUTE
    mrk_uvision_lpc1768\mrk\NanoRk\src\drivers\platform\mbed\adc_driver.cpp 0x00000000   Number         0  adc_driver.o ABSOLUTE
    mrk_uvision_lpc1768\mrk\NanoRk\src\drivers\platform\mbed\ff_basic_sensor.cpp 0x00000000   Number         0  ff_basic_sensor.o ABSOLUTE
    mrk_uvision_lpc1768\mrk\NanoRk\src\kernel\hal\LPC1768\nrk_cpu.cpp 0x00000000   Number         0  nrk_cpu.o ABSOLUTE
    mrk_uvision_lpc1768\mrk\NanoRk\src\kernel\hal\LPC1768\nrk_status.cpp 0x00000000   Number         0  nrk_status.o ABSOLUTE
    mrk_uvision_lpc1768\mrk\NanoRk\src\kernel\hal\LPC1768\nrk_timer.cpp 0x00000000   Number         0  nrk_timer.o ABSOLUTE
    mrk_uvision_lpc1768\mrk\NanoRk\src\kernel\hal\LPC1768\nrk_watchdog.cpp 0x00000000   Number         0  nrk_watchdog.o ABSOLUTE
    mrk_uvision_lpc1768\mrk\NanoRk\src\kernel\source\nrk.cpp 0x00000000   Number         0  nrk.o ABSOLUTE
    mrk_uvision_lpc1768\mrk\NanoRk\src\kernel\source\nrk_driver.cpp 0x00000000   Number         0  nrk_driver.o ABSOLUTE
    mrk_uvision_lpc1768\mrk\NanoRk\src\kernel\source\nrk_error.cpp 0x00000000   Number         0  nrk_error.o ABSOLUTE
    mrk_uvision_lpc1768\mrk\NanoRk\src\kernel\source\nrk_events.cpp 0x00000000   Number         0  nrk_events.o ABSOLUTE
    mrk_uvision_lpc1768\mrk\NanoRk\src\kernel\source\nrk_idle_task.cpp 0x00000000   Number         0  nrk_idle_task.o ABSOLUTE
    mrk_uvision_lpc1768\mrk\NanoRk\src\kernel\source\nrk_reserve.cpp 0x00000000   Number         0  nrk_reserve.o ABSOLUTE
    mrk_uvision_lpc1768\mrk\NanoRk\src\kernel\source\nrk_scheduler.cpp 0x00000000   Number         0  nrk_scheduler.o ABSOLUTE
    mrk_uvision_lpc1768\mrk\NanoRk\src\kernel\source\nrk_stack_check.cpp 0x00000000   Number         0  nrk_stack_check.o ABSOLUTE
    mrk_uvision_lpc1768\mrk\NanoRk\src\kernel\source\nrk_stats.cpp 0x00000000   Number         0  nrk_stats.o ABSOLUTE
    mrk_uvision_lpc1768\mrk\NanoRk\src\kernel\source\nrk_task.cpp 0x00000000   Number         0  nrk_task.o ABSOLUTE
    mrk_uvision_lpc1768\mrk\NanoRk\src\kernel\source\nrk_time.cpp 0x00000000   Number         0  nrk_time.o ABSOLUTE
    mrk_uvision_lpc1768\mrk\NanoRk\src\net\bmac\bmac.cpp 0x00000000   Number         0  bmac.o ABSOLUTE
    mrk_uvision_lpc1768\mrk\NanoRk\src\platform\mbed\source\hal_wait.cpp 0x00000000   Number         0  hal_wait.o ABSOLUTE
    mrk_uvision_lpc1768\mrk\NanoRk\src\platform\mbed\source\ulib.cpp 0x00000000   Number         0  ulib.o ABSOLUTE
    mrk_uvision_lpc1768\mrk\NanoRk\src\radio\mrf24j40\source\MRF24J40.cpp 0x00000000   Number         0  mrf24j40.o ABSOLUTE
    mrk_uvision_lpc1768\mrk\NanoRk\src\radio\mrf24j40\source\basic_rf.cpp 0x00000000   Number         0  basic_rf.o ABSOLUTE
    mrk_uvision_lpc1768\mrk\my_asm.s         0x00000000   Number         0  my_asm.o ABSOLUTE
    src/Base.cpp                             0x00000000   Number         0  Base.cpp.lpc1768.arm.o ABSOLUTE
    src/BusOut.cpp                           0x00000000   Number         0  BusOut.cpp.lpc1768.arm.o ABSOLUTE
    src/DigitalOut.cpp                       0x00000000   Number         0  DigitalOut.cpp.lpc1768.arm.o ABSOLUTE
    src/FunctionPointer.cpp                  0x00000000   Number         0  FunctionPointer.cpp.lpc1768.arm.o ABSOLUTE
    src/I2C.cpp                              0x00000000   Number         0  I2C.cpp.lpc1768.arm.o ABSOLUTE
    src/LPC1768/core_cm3.c                   0x00000000   Number         0  core_cm3.o ABSOLUTE
    src/LPC1768/core_cm3.c                   0x00000000   Number         0  core_cm3.o ABSOLUTE
    src/LPC1768/startup_LPC17xx.s            0x00000000   Number         0  startup_LPC17xx.o ABSOLUTE
    src/LPC1768/system_LPC17xx.c             0x00000000   Number         0  system_LPC17xx.o ABSOLUTE
    src/PwmOut.cpp                           0x00000000   Number         0  PwmOut.cpp.lpc1768.arm.o ABSOLUTE
    src/Serial.cpp                           0x00000000   Number         0  Serial.cpp.lpc1768.arm.o ABSOLUTE
    src/Stream.cpp                           0x00000000   Number         0  Stream.cpp.lpc1768.arm.o ABSOLUTE
    src/cmsis_nvic.c                         0x00000000   Number         0  cmsis_nvic.o ABSOLUTE
    src/exit.c                               0x00000000   Number         0  exit.c.lpc1768.arm.o ABSOLUTE
    src/gpio_api.c                           0x00000000   Number         0  gpio_api.c.lpc1768.arm.o ABSOLUTE
    src/i2c_api.c                            0x00000000   Number         0  i2c_api.c.lpc1768.arm.o ABSOLUTE
    src/pinmap.c                             0x00000000   Number         0  pinmap.c.lpc1768.arm.o ABSOLUTE
    src/pwmout_api.c                         0x00000000   Number         0  pwmout_api.c.lpc1768.arm.o ABSOLUTE
    src/semihost_api.c                       0x00000000   Number         0  semihost_api.c.lpc1768.arm.o ABSOLUTE
    src/serial_api.c                         0x00000000   Number         0  serial_api.c.lpc1768.arm.o ABSOLUTE
    src/stackheap.c                          0x00000000   Number         0  stackheap.o ABSOLUTE
    src/stdio.cpp                            0x00000000   Number         0  stdio.cpp.lpc1768.arm.o ABSOLUTE
    src/timer_api.c                          0x00000000   Number         0  timer_api.c.lpc1768.arm.o ABSOLUTE
    src/us_ticker_api.c                      0x00000000   Number         0  us_ticker_api.c.lpc1768.arm.o ABSOLUTE
    src/utils_api.c                          0x00000000   Number         0  utils_api.c.lpc1768.arm.o ABSOLUTE
    src/wait_api.c                           0x00000000   Number         0  wait_api.c.lpc1768.arm.o ABSOLUTE
    !!!main                                  0x000000c4   Section        8  __main.o(!!!main)
    !!!scatter                               0x000000cc   Section       52  __scatter.o(!!!scatter)
    !!dczerorl2                              0x00000100   Section       90  __dczerorl2.o(!!dczerorl2)
    !!handler_zi                             0x0000015c   Section       28  __scatter_zi.o(!!handler_zi)
    .ARM.Collect$$_printf_percent$$00000000  0x00000178   Section        0  _printf_percent.o(.ARM.Collect$$_printf_percent$$00000000)
    .ARM.Collect$$_printf_percent$$00000001  0x00000178   Section        6  _printf_n.o(.ARM.Collect$$_printf_percent$$00000001)
    .ARM.Collect$$_printf_percent$$00000002  0x0000017e   Section        6  _printf_p.o(.ARM.Collect$$_printf_percent$$00000002)
    .ARM.Collect$$_printf_percent$$00000003  0x00000184   Section        6  _printf_f.o(.ARM.Collect$$_printf_percent$$00000003)
    .ARM.Collect$$_printf_percent$$00000004  0x0000018a   Section        6  _printf_e.o(.ARM.Collect$$_printf_percent$$00000004)
    .ARM.Collect$$_printf_percent$$00000005  0x00000190   Section        6  _printf_g.o(.ARM.Collect$$_printf_percent$$00000005)
    .ARM.Collect$$_printf_percent$$00000006  0x00000196   Section        6  _printf_a.o(.ARM.Collect$$_printf_percent$$00000006)
    .ARM.Collect$$_printf_percent$$00000007  0x0000019c   Section       10  _printf_ll.o(.ARM.Collect$$_printf_percent$$00000007)
    .ARM.Collect$$_printf_percent$$00000008  0x000001a6   Section        6  _printf_i.o(.ARM.Collect$$_printf_percent$$00000008)
    .ARM.Collect$$_printf_percent$$00000009  0x000001ac   Section        6  _printf_d.o(.ARM.Collect$$_printf_percent$$00000009)
    .ARM.Collect$$_printf_percent$$0000000A  0x000001b2   Section        6  _printf_u.o(.ARM.Collect$$_printf_percent$$0000000A)
    .ARM.Collect$$_printf_percent$$0000000B  0x000001b8   Section        6  _printf_o.o(.ARM.Collect$$_printf_percent$$0000000B)
    .ARM.Collect$$_printf_percent$$0000000C  0x000001be   Section        6  _printf_x.o(.ARM.Collect$$_printf_percent$$0000000C)
    .ARM.Collect$$_printf_percent$$0000000D  0x000001c4   Section        6  _printf_lli.o(.ARM.Collect$$_printf_percent$$0000000D)
    .ARM.Collect$$_printf_percent$$0000000E  0x000001ca   Section        6  _printf_lld.o(.ARM.Collect$$_printf_percent$$0000000E)
    .ARM.Collect$$_printf_percent$$0000000F  0x000001d0   Section        6  _printf_llu.o(.ARM.Collect$$_printf_percent$$0000000F)
    .ARM.Collect$$_printf_percent$$00000010  0x000001d6   Section        6  _printf_llo.o(.ARM.Collect$$_printf_percent$$00000010)
    .ARM.Collect$$_printf_percent$$00000011  0x000001dc   Section        6  _printf_llx.o(.ARM.Collect$$_printf_percent$$00000011)
    .ARM.Collect$$_printf_percent$$00000012  0x000001e2   Section       10  _printf_l.o(.ARM.Collect$$_printf_percent$$00000012)
    .ARM.Collect$$_printf_percent$$00000013  0x000001ec   Section        6  _printf_c.o(.ARM.Collect$$_printf_percent$$00000013)
    .ARM.Collect$$_printf_percent$$00000014  0x000001f2   Section        6  _printf_s.o(.ARM.Collect$$_printf_percent$$00000014)
    .ARM.Collect$$_printf_percent$$00000015  0x000001f8   Section        6  _printf_lc.o(.ARM.Collect$$_printf_percent$$00000015)
    .ARM.Collect$$_printf_percent$$00000016  0x000001fe   Section        6  _printf_ls.o(.ARM.Collect$$_printf_percent$$00000016)
    .ARM.Collect$$_printf_percent$$00000017  0x00000204   Section        4  _printf_percent_end.o(.ARM.Collect$$_printf_percent$$00000017)
    .ARM.Collect$$libinit$$00000000          0x00000208   Section        6  libinit.o(.ARM.Collect$$libinit$$00000000)
    .ARM.Collect$$libinit$$00000001          0x0000020e   Section        8  libinit2.o(.ARM.Collect$$libinit$$00000001)
    .ARM.Collect$$libinit$$00000006          0x00000216   Section        0  libinit2.o(.ARM.Collect$$libinit$$00000006)
    .ARM.Collect$$libinit$$00000008          0x00000216   Section        0  libinit2.o(.ARM.Collect$$libinit$$00000008)
    .ARM.Collect$$libinit$$00000009          0x00000216   Section        4  libinit2.o(.ARM.Collect$$libinit$$00000009)
    .ARM.Collect$$libinit$$0000000A          0x0000021a   Section        0  libinit2.o(.ARM.Collect$$libinit$$0000000A)
    .ARM.Collect$$libinit$$0000000B          0x0000021a   Section        6  libinit2.o(.ARM.Collect$$libinit$$0000000B)
    .ARM.Collect$$libinit$$0000000D          0x00000220   Section        0  libinit2.o(.ARM.Collect$$libinit$$0000000D)
    .ARM.Collect$$libinit$$0000000E          0x00000220   Section       12  libinit2.o(.ARM.Collect$$libinit$$0000000E)
    .ARM.Collect$$libinit$$0000000F          0x0000022c   Section        0  libinit2.o(.ARM.Collect$$libinit$$0000000F)
    .ARM.Collect$$libinit$$00000011          0x0000022c   Section        0  libinit2.o(.ARM.Collect$$libinit$$00000011)
    .ARM.Collect$$libinit$$00000012          0x0000022c   Section       10  libinit2.o(.ARM.Collect$$libinit$$00000012)
    .ARM.Collect$$libinit$$00000013          0x00000236   Section        0  libinit2.o(.ARM.Collect$$libinit$$00000013)
    .ARM.Collect$$libinit$$00000015          0x00000236   Section        0  libinit2.o(.ARM.Collect$$libinit$$00000015)
    .ARM.Collect$$libinit$$00000017          0x00000236   Section        0  libinit2.o(.ARM.Collect$$libinit$$00000017)
    .ARM.Collect$$libinit$$00000019          0x00000236   Section        0  libinit2.o(.ARM.Collect$$libinit$$00000019)
    .ARM.Collect$$libinit$$0000001B          0x00000236   Section        0  libinit2.o(.ARM.Collect$$libinit$$0000001B)
    .ARM.Collect$$libinit$$0000001D          0x00000236   Section        0  libinit2.o(.ARM.Collect$$libinit$$0000001D)
    .ARM.Collect$$libinit$$0000001F          0x00000236   Section        0  libinit2.o(.ARM.Collect$$libinit$$0000001F)
    .ARM.Collect$$libinit$$00000020          0x00000236   Section        4  libinit2.o(.ARM.Collect$$libinit$$00000020)
    .ARM.Collect$$libinit$$00000021          0x0000023a   Section        0  libinit2.o(.ARM.Collect$$libinit$$00000021)
    .ARM.Collect$$libinit$$00000028          0x0000023a   Section        0  libinit2.o(.ARM.Collect$$libinit$$00000028)
    .ARM.Collect$$libinit$$0000002A          0x0000023a   Section        0  libinit2.o(.ARM.Collect$$libinit$$0000002A)
    .ARM.Collect$$libinit$$0000002C          0x0000023a   Section        0  libinit2.o(.ARM.Collect$$libinit$$0000002C)
    .ARM.Collect$$libinit$$0000002D          0x0000023a   Section        4  libinit2.o(.ARM.Collect$$libinit$$0000002D)
    .ARM.Collect$$libinit$$0000002E          0x0000023e   Section        0  libinit2.o(.ARM.Collect$$libinit$$0000002E)
    .ARM.Collect$$libinit$$0000002F          0x0000023e   Section        2  libinit2.o(.ARM.Collect$$libinit$$0000002F)
    .ARM.Collect$$libshutdown$$00000001      0x00000240   Section        6  libshutdown2.o(.ARM.Collect$$libshutdown$$00000001)
    .ARM.Collect$$libshutdown$$00000003      0x00000246   Section        0  libshutdown2.o(.ARM.Collect$$libshutdown$$00000003)
    .ARM.Collect$$rtentry$$00000000          0x00000246   Section        0  rtentry.o(.ARM.Collect$$rtentry$$00000000)
    .ARM.Collect$$rtentry$$00000002          0x00000246   Section        0  rtentry2.o(.ARM.Collect$$rtentry$$00000002)
    .ARM.Collect$$rtentry$$00000004          0x00000246   Section        6  rtentry4.o(.ARM.Collect$$rtentry$$00000004)
    .ARM.Collect$$rtentry$$00000009          0x0000024c   Section        0  rtentry2.o(.ARM.Collect$$rtentry$$00000009)
    .ARM.Collect$$rtentry$$0000000A          0x0000024c   Section        4  rtentry2.o(.ARM.Collect$$rtentry$$0000000A)
    .ARM.Collect$$rtentry$$0000000C          0x00000250   Section        0  rtentry2.o(.ARM.Collect$$rtentry$$0000000C)
    .ARM.Collect$$rtentry$$0000000D          0x00000250   Section        8  rtentry2.o(.ARM.Collect$$rtentry$$0000000D)
    .emb_text                                0x00000258   Section       52  rand.o(.emb_text)
    .emb_text                                0x0000028c   Section        0  maybetermalloc1.o(.emb_text)
    .text                                    0x0000028c   Section       36  startup_LPC17xx.o(.text)
    .text                                    0x000002b0   Section        0  fprintf.o(.text)
    .text                                    0x000002c4   Section        0  sprintf.o(.text)
    .text                                    0x000002f0   Section        8  rt_ddtor_pointer_addr.o(.text)
    .text                                    0x000002f8   Section        0  arm_bad_typeid_noexceptions.o(.text)
    .ARM.__at_0x02FC                         0x000002fc   Section        4  startup_LPC17xx.o(.ARM.__at_0x02FC)
    .text                                    0x00000300   Section      120  my_asm.o(.text)
    .text                                    0x00000378   Section      238  lludivv7m.o(.text)
    .text                                    0x00000468   Section        0  __2printf.o(.text)
    .text                                    0x00000480   Section        0  __2sprintf.o(.text)
    .text                                    0x000004ac   Section        0  _printf_str.o(.text)
    .text                                    0x00000500   Section        0  _printf_dec.o(.text)
    .text                                    0x00000578   Section        0  _printf_hex_int_ll_ptr.o(.text)
    _printf_hex_common                       0x00000579   Thumb Code     0  _printf_hex_int_ll_ptr.o(.text)
    .text                                    0x00000614   Section        0  __printf_flags_ss_wp.o(.text)
    .text                                    0x000007a0   Section        0  sscanf.o(.text)
    .text                                    0x000007dc   Section        0  fflush.o(.text)
    .text                                    0x00000840   Section        0  fputs.o(.text)
    .text                                    0x00000864   Section        0  fopen.o(.text)
    _freopen_locked                          0x00000865   Thumb Code     0  fopen.o(.text)
    .text                                    0x00000950   Section        0  setbuf.o(.text)
    .text                                    0x00000964   Section        0  fclose.o(.text)
    .text                                    0x000009b0   Section        0  rand.o(.text)
    .text                                    0x000009ec   Section        0  assert.o(.text)
    .text                                    0x00000a68   Section        0  strlen.o(.text)
    .text                                    0x00000aa6   Section        0  strncmp.o(.text)
    .text                                    0x00000b3c   Section      128  strcmpv7m.o(.text)
    .text                                    0x00000bbc   Section        0  init_aeabi.o(.text)
    .text                                    0x00000be0   Section       16  rt_ctype_table.o(.text)
    .text                                    0x00000bf0   Section        8  rt_errno_addr.o(.text)
    .text                                    0x00000bf8   Section        0  h1_alloc.o(.text)
    .text                                    0x00000c56   Section        0  h1_free.o(.text)
    .text                                    0x00000ca4   Section        0  _rserrno.o(.text)
    .text                                    0x00000cba   Section        0  _printf_pad.o(.text)
    .text                                    0x00000d0c   Section        0  _printf_truncate.o(.text)
    .text                                    0x00000d30   Section        0  _printf_intcommon.o(.text)
    .text                                    0x00000de8   Section        0  _printf_charcount.o(.text)
    .text                                    0x00000e12   Section        0  _printf_fp_dec.o(.text)
    _fp_digits                               0x00000e15   Thumb Code   428  _printf_fp_dec.o(.text)
    .text                                    0x00001234   Section        0  _printf_char_common.o(.text)
    _printf_input_char                       0x00001235   Thumb Code    10  _printf_char_common.o(.text)
    .text                                    0x00001264   Section        0  _sputc.o(.text)
    .text                                    0x0000126e   Section        0  _printf_char.o(.text)
    .text                                    0x0000129c   Section        0  _printf_char_file.o(.text)
    .text                                    0x000012c0   Section        0  _printf_wctomb.o(.text)
    .text                                    0x0000137c   Section        0  _printf_longlong_dec.o(.text)
    .text                                    0x000013f4   Section        0  _printf_oct_int_ll.o(.text)
    _printf_longlong_oct_internal            0x000013f5   Thumb Code     0  _printf_oct_int_ll.o(.text)
    .text                                    0x0000146c   Section        0  _scanf_longlong.o(.text)
    .text                                    0x000015b8   Section        0  _scanf_int.o(.text)
    .text                                    0x00001708   Section        0  _scanf_str.o(.text)
    .text                                    0x000017e4   Section        0  scanf_char.o(.text)
    _scanf_char_input                        0x000017e5   Thumb Code    12  scanf_char.o(.text)
    .text                                    0x00001814   Section        0  _sgetc.o(.text)
    .text                                    0x00001854   Section        0  _scanf_mbtowc.o(.text)
    .text                                    0x0000196c   Section        0  _scanf_wctomb.o(.text)
    .text                                    0x00001a4e   Section        0  _scanf_wstr.o(.text)
    .text                                    0x00001b18   Section        0  flsbuf.o(.text)
    .text                                    0x00001cf8   Section        0  fseek.o(.text)
    .text                                    0x00001df0   Section        0  setvbuf.o(.text)
    .text                                    0x00001e38   Section        0  stdio.o(.text)
    .text                                    0x00001f28   Section        0  initio.o(.text)
    .text                                    0x00002060   Section        0  abort.o(.text)
    .text                                    0x00002070   Section        0  defsig_pvfn_outer.o(.text)
    .text                                    0x0000207e   Section       78  rt_memclr_w.o(.text)
    .text                                    0x000020cc   Section        0  sys_wrch.o(.text)
    .text                                    0x000020dc   Section        0  sys_exit.o(.text)
    .text                                    0x000020e8   Section        8  rt_heap_descriptor.o(.text)
    .text                                    0x000020f0   Section        8  rt_locale.o(.text)
    .text                                    0x000020f8   Section        0  hguard.o(.text)
    .text                                    0x000020fc   Section        0  init_alloc.o(.text)
    .text                                    0x00002186   Section        0  h1_init.o(.text)
    .text                                    0x00002194   Section      138  lludiv10.o(.text)
    .text                                    0x0000221e   Section        0  isspace.o(.text)
    .text                                    0x00002230   Section        0  _printf_fp_hex.o(.text)
    .text                                    0x00002534   Section        0  _printf_fp_infnan.o(.text)
    .text                                    0x000025b4   Section        0  _printf_wchar.o(.text)
    .text                                    0x000025e0   Section        0  _chval.o(.text)
    .text                                    0x000025fc   Section        0  _scanf.o(.text)
    .text                                    0x00002974   Section        0  scanf_fp.o(.text)
    _fp_value                                0x00002975   Thumb Code   506  scanf_fp.o(.text)
    .text                                    0x00002e1c   Section        0  _scanf_wcharmap.o(.text)
    .text                                    0x00002e3c   Section        0  bigflt0.o(.text)
    .text                                    0x00002f20   Section        0  ferror.o(.text)
    .text                                    0x00002f28   Section        0  ftell.o(.text)
    .text                                    0x00002f6e   Section        0  _mbrtowc.o(.text)
    .text                                    0x00002faa   Section        0  _wcrtomb.o(.text)
    .text                                    0x00002fea   Section        0  defsig_exit.o(.text)
    .text                                    0x00002ff4   Section        0  defsig_abrt_outer.o(.text)
    .text                                    0x00003002   Section        0  defsig_rtred_outer.o(.text)
    .text                                    0x00003010   Section        0  defsig_pvfn_inner.o(.text)
    .text                                    0x00003040   Section        0  assert_stdio.o(.text)
    .text                                    0x00003058   Section        0  arm_exceptions_terminate.o(.text)
    .text                                    0x00003072   Section        2  use_no_semi.o(.text)
    .text                                    0x00003074   Section        0  indicate_semi.o(.text)
    .text                                    0x00003074   Section        0  h1_extend.o(.text)
    .text                                    0x000030a8   Section        0  defsig_general.o(.text)
    .text                                    0x000030dc   Section        0  defsig_abrt_inner.o(.text)
    .text                                    0x0000310c   Section        0  defsig_rtred_inner.o(.text)
    .text                                    0x00003140   Section        0  defsig_rtmem_outer.o(.text)
    .text                                    0x00003150   Section        0  heapauxa.o(.text)
    .text                                    0x0000319c   Section        0  arm_exceptions_globs.o(.text)
    __default_terminate_handler()            0x0000319d   Thumb Code     4  arm_exceptions_globs.o(.text)
    .text                                    0x000031ec   Section        8  rt_eh_globals_addr.o(.text)
    .text                                    0x000031f4   Section        0  scanf_hexfp.o(.text)
    .text                                    0x00003510   Section        0  scanf_infnan.o(.text)
    .text                                    0x0000364c   Section        0  defsig_rtmem_inner.o(.text)
    .text                                    0x0000369c   Section        0  arm_exceptions_mem.o(.text)
    .text                                    0x000036d8   Section        8  rt_fp_status_addr.o(.text)
    .text                                    0x000036e0   Section       38  llshl.o(.text)
    CL$$btod_d2e                             0x00003706   Section       62  btod.o(CL$$btod_d2e)
    CL$$btod_d2e_denorm_low                  0x00003744   Section       70  btod.o(CL$$btod_d2e_denorm_low)
    CL$$btod_d2e_norm_op1                    0x0000378a   Section       96  btod.o(CL$$btod_d2e_norm_op1)
    CL$$btod_div_common                      0x000037ea   Section      824  btod.o(CL$$btod_div_common)
    CL$$btod_e2d                             0x00003b24   Section       84  btod.o(CL$$btod_e2d)
    CL$$btod_e2e                             0x00003b78   Section      198  btod.o(CL$$btod_e2e)
    CL$$btod_ediv                            0x00003c3e   Section       40  btod.o(CL$$btod_ediv)
    CL$$btod_edivd                           0x00003c66   Section       40  btod.o(CL$$btod_edivd)
    CL$$btod_emul                            0x00003c8e   Section       40  btod.o(CL$$btod_emul)
    CL$$btod_emuld                           0x00003cb6   Section       40  btod.o(CL$$btod_emuld)
    CL$$btod_mult_common                     0x00003cde   Section      580  btod.o(CL$$btod_mult_common)
    i.EINT3_IRQHandler                       0x00003f24   Section        0  basic_rf.o(i.EINT3_IRQHandler)
    i.SystemInit                             0x00003f64   Section        0  system_LPC17xx.o(i.SystemInit)
    i.TIMER0_IRQHandler                      0x00003fdc   Section        0  nrk_timer.o(i.TIMER0_IRQHandler)
    i.TIMER1_IRQHandler                      0x00003ff8   Section        0  nrk_timer.o(i.TIMER1_IRQHandler)
    i._Z10clock_initv                        0x00004010   Section        0  main.o(i._Z10clock_initv)
    i._Z10go_forwardv                        0x00004048   Section        0  main.o(i._Z10go_forwardv)
    i._Z10i2c_write2icc                      0x00004090   Section        0  main.o(i._Z10i2c_write2icc)
    i._Z10led_passerv                        0x000040b8   Section        0  main.o(i._Z10led_passerv)
    i._Z10mrf_cs_seth                        0x000040d8   Section        0  mrf24j40.o(i._Z10mrf_cs_seth)
    i._Z11GPIO_SetDirhjh                     0x000040f4   Section        0  ulib.o(i._Z11GPIO_SetDirhjh)
    i._Z11bmac_tx_pktPch                     0x00004114   Section        0  bmac.o(i._Z11bmac_tx_pktPch)
    i._Z11get_adc_valv                       0x000041bc   Section        0  adc_driver.o(i._Z11get_adc_valv)
    i._Z11nrk_led_clri                       0x000041f0   Section        0  ulib.o(i._Z11nrk_led_clri)
    i._Z11nrk_led_seti                       0x0000421c   Section        0  ulib.o(i._Z11nrk_led_seti)
    i._Z11read_cameraPj                      0x00004248   Section        0  main.o(i._Z11read_cameraPj)
    i._Z11set_PinFunchhh                     0x00004304   Section        0  ulib.o(i._Z11set_PinFunchhh)
    i._Z12bmac_nw_taskv                      0x0000432c   Section        0  bmac.o(i._Z12bmac_nw_taskv)
    i._Z12bmac_startedv                      0x00004398   Section        0  bmac.o(i._Z12bmac_startedv)
    i._Z12led_attackerv                      0x000043a4   Section        0  main.o(i._Z12led_attackerv)
    i._Z12led_defenderv                      0x000043c2   Section        0  main.o(i._Z12led_defenderv)
    i._Z12mrf_set_addrt                      0x000043e0   Section        0  mrf24j40.o(i._Z12mrf_set_addrt)
    i._Z12mrf_spi_inithhi                    0x00004408   Section        0  mrf24j40.o(i._Z12mrf_spi_inithhi)
    i._Z12nrk_TCB_initP9task_typePjS1_tPvt   0x000044c4   Section        0  nrk.o(i._Z12nrk_TCB_initP9task_typePjS1_tPvt)
    i._Z12nrk_gpio_clrj                      0x00004648   Section        0  ulib.o(i._Z12nrk_gpio_clrj)
    i._Z12nrk_gpio_setj                      0x0000468a   Section        0  ulib.o(i._Z12nrk_gpio_setj)
    i._Z12rf_data_modev                      0x000046cc   Section        0  basic_rf.o(i._Z12rf_data_modev)
    i._Z12rf_rx_packetv                      0x000046d8   Section        0  basic_rf.o(i._Z12rf_rx_packetv)
    i._Z12rf_test_modev                      0x000046f0   Section        0  basic_rf.o(i._Z12rf_test_modev)
    i._Z12rf_tx_packetP10RF_TX_INFO          0x000046fc   Section        0  basic_rf.o(i._Z12rf_tx_packetP10RF_TX_INFO)
    i._Z12set_adc_chanh                      0x00004818   Section        0  adc_driver.o(i._Z12set_adc_chanh)
    i._Z12setupSPIPinsv                      0x0000486c   Section        0  ulib.o(i._Z12setupSPIPinsv)
    i._Z12tbc_downcastPvPKSt9type_infoP28a_base_class_traversal_blockPN10__cxxabiv122__base_class_type_infoE 0x000048b4   Section        0  rtti.o(i._Z12tbc_downcastPvPKSt9type_infoP28a_base_class_traversal_blockPN10__cxxabiv122__base_class_type_infoE)
    tbc_downcast(void*, const std::type_info*, a_base_class_traversal_block*, __cxxabiv1::__base_class_type_info*) 0x000048b5   Thumb Code    70  rtti.o(i._Z12tbc_downcastPvPKSt9type_infoP28a_base_class_traversal_blockPN10__cxxabiv122__base_class_type_infoE)
    i._Z13GPIO_SetValuehj                    0x000048fa   Section        0  ulib.o(i._Z13GPIO_SetValuehj)
    i._Z13led_assistantv                     0x0000490e   Section        0  main.o(i._Z13led_assistantv)
    i._Z13mrf_gpio_initv                     0x0000492c   Section        0  mrf24j40.o(i._Z13mrf_gpio_initv)
    i._Z13mrf_read_longt                     0x00004988   Section        0  mrf24j40.o(i._Z13mrf_read_longt)
    i._Z13mrf_reset_seth                     0x000049d4   Section        0  mrf24j40.o(i._Z13mrf_reset_seth)
    i._Z13mrf_set_panidt                     0x000049f0   Section        0  mrf24j40.o(i._Z13mrf_set_panidt)
    i._Z13mrf_spi_writet                     0x00004a20   Section        0  mrf24j40.o(i._Z13mrf_spi_writet)
    i._Z13nrk_error_addh                     0x00004a3c   Section        0  nrk_error.o(i._Z13nrk_error_addh)
    i._Z13nrk_idle_taskv                     0x00004a54   Section        0  nrk_idle_task.o(i._Z13nrk_idle_taskv)
    i._Z13rf_carrier_onv                     0x00004a74   Section        0  basic_rf.o(i._Z13rf_carrier_onv)
    i._Z14NVIC_EnableIRQ4IRQn                0x00004a96   Section        0  nrk_timer.o(i._Z14NVIC_EnableIRQ4IRQn)
    NVIC_EnableIRQ(IRQn)                     0x00004a97   Thumb Code    24  nrk_timer.o(i._Z14NVIC_EnableIRQ4IRQn)
    i._Z14_nrk_errno_seth                    0x00004ab0   Section        0  nrk_error.o(i._Z14_nrk_errno_seth)
    i._Z14_nrk_schedulerv                    0x00004abc   Section        0  nrk_scheduler.o(i._Z14_nrk_schedulerv)
    i._Z14approach_net_Aii                   0x00004d4c   Section        0  main.o(i._Z14approach_net_Aii)
    i._Z14approach_net_Bii                   0x00004e58   Section        0  main.o(i._Z14approach_net_Bii)
    i._Z14mrf_read_shorth                    0x00004f64   Section        0  mrf24j40.o(i._Z14mrf_read_shorth)
    i._Z14mrf_write_longth                   0x00004fa2   Section        0  mrf24j40.o(i._Z14mrf_write_longth)
    i._Z14nrk_event_waitj                    0x00004ff4   Section        0  nrk_events.o(i._Z14nrk_event_waitj)
    i._Z14nrk_int_enablev                    0x00005030   Section        0  nrk.o(i._Z14nrk_int_enablev)
    i._Z14rf_carrier_offv                    0x00005034   Section        0  basic_rf.o(i._Z14rf_carrier_offv)
    i._Z14rf_rx_callbackP10RF_RX_INFO        0x00005056   Section        0  bmac.o(i._Z14rf_rx_callbackP10RF_RX_INFO)
    i._Z14rf_set_channelh                    0x00005058   Section        0  basic_rf.o(i._Z14rf_set_channelh)
    i._Z15GPIO_ClearValuehj                  0x00005078   Section        0  ulib.o(i._Z15GPIO_ClearValuehj)
    i._Z15GPIO_GetPointerh                   0x0000508c   Section        0  ulib.o(i._Z15GPIO_GetPointerh)
    GPIO_GetPointer(unsigned char)           0x0000508d   Thumb Code    46  ulib.o(i._Z15GPIO_GetPointerh)
    i._Z15bmac_rx_pkt_getPhS_                0x000050c0   Section        0  bmac.o(i._Z15bmac_rx_pkt_getPhS_)
    i._Z15mrf_write_shorthh                  0x000050e8   Section        0  mrf24j40.o(i._Z15mrf_write_shorthh)
    i._Z15nrk_int_disablev                   0x00005128   Section        0  nrk.o(i._Z15nrk_int_disablev)
    i._Z15nrk_setup_portsv                   0x0000512c   Section        0  ulib.o(i._Z15nrk_setup_portsv)
    i._Z15nrk_stack_checkv                   0x00005130   Section        0  nrk_stack_check.o(i._Z15nrk_stack_checkv)
    i._Z15rf_rx_check_ccav                   0x00005134   Section        0  basic_rf.o(i._Z15rf_rx_check_ccav)
    i._Z16PINSEL_ConfigPinP15PINSEL_CFG_Type 0x00005150   Section        0  ulib.o(i._Z16PINSEL_ConfigPinP15PINSEL_CFG_Type)
    i._Z16_nrk_setup_timerv                  0x00005178   Section        0  nrk_timer.o(i._Z16_nrk_setup_timerv)
    i._Z16bmac_task_configv                  0x00005214   Section        0  bmac.o(i._Z16bmac_task_configv)
    i._Z16mrf_gpioint_initv                  0x00005260   Section        0  mrf24j40.o(i._Z16mrf_gpioint_initv)
    i._Z16nrk_event_signala                  0x00005294   Section        0  nrk_events.o(i._Z16nrk_event_signala)
    i._Z16nrk_spin_wait_usj                  0x00005320   Section        0  nrk_timer.o(i._Z16nrk_spin_wait_usj)
    i._Z16nrk_target_startv                  0x00005324   Section        0  nrk_cpu.o(i._Z16nrk_target_startv)
    i._Z16nrk_task_set_stkP9task_typePjt     0x0000532e   Section        0  nrk_cpu.o(i._Z16nrk_task_set_stkP9task_typePjt)
    i._Z16rf_polling_rx_onv                  0x0000534c   Section        0  basic_rf.o(i._Z16rf_polling_rx_onv)
    i._Z16set_ResistorModehhh                0x00005374   Section        0  ulib.o(i._Z16set_ResistorModehhh)
    i._Z17_nrk_os_timer_getv                 0x0000539c   Section        0  nrk_timer.o(i._Z17_nrk_os_timer_getv)
    i._Z17nrk_activate_taskP9task_type       0x000053a8   Section        0  nrk_task.o(i._Z17nrk_activate_taskP9task_type)
    i._Z17nrk_add_to_readyQa                 0x0000541c   Section        0  nrk_task.o(i._Z17nrk_add_to_readyQa)
    i._Z17nrk_signal_createv                 0x000054c8   Section        0  nrk_events.o(i._Z17nrk_signal_createv)
    i._Z17nrk_task_stk_initPFvvEPjS1_        0x000054f8   Section        0  nrk_cpu.o(i._Z17nrk_task_stk_initPFvvEPjS1_)
    i._Z17nrk_wait_until_nwv                 0x00005568   Section        0  nrk_task.o(i._Z17nrk_wait_until_nwv)
    i._Z17rf_set_cca_thresha                 0x000055ac   Section        0  basic_rf.o(i._Z17rf_set_cca_thresha)
    i._Z17set_OpenDrainModehhh               0x000055d8   Section        0  ulib.o(i._Z17set_OpenDrainModehhh)
    i._Z17tbc_post_downcastPvPKSt9type_infoP28a_base_class_traversal_blockPN10__cxxabiv122__base_class_type_infoE 0x000055fc   Section        0  rtti.o(i._Z17tbc_post_downcastPvPKSt9type_infoP28a_base_class_traversal_blockPN10__cxxabiv122__base_class_type_infoE)
    tbc_post_downcast(void*, const std::type_info*, a_base_class_traversal_block*, __cxxabiv1::__base_class_type_info*) 0x000055fd   Thumb Code    22  rtti.o(i._Z17tbc_post_downcastPvPKSt9type_infoP28a_base_class_traversal_blockPN10__cxxabiv122__base_class_type_infoE)
    i._Z18_nrk_time_to_ticksP10nrk_time_t    0x00005614   Section        0  nrk_time.o(i._Z18_nrk_time_to_ticksP10nrk_time_t)
    i._Z18nrk_create_tasksetv                0x00005654   Section        0  main.o(i._Z18nrk_create_tasksetv)
    i._Z18rf_auto_ack_enablev                0x000056d8   Section        0  basic_rf.o(i._Z18rf_auto_ack_enablev)
    i._Z18rf_parse_rx_packetv                0x000056f8   Section        0  basic_rf.o(i._Z18rf_parse_rx_packetv)
    i._Z19_bmac_channel_checkv               0x000057a8   Section        0  bmac.o(i._Z19_bmac_channel_checkv)
    i._Z19_nrk_os_timer_resetv               0x000057c8   Section        0  nrk_timer.o(i._Z19_nrk_os_timer_resetv)
    i._Z19_nrk_os_timer_startv               0x000057d8   Section        0  nrk_timer.o(i._Z19_nrk_os_timer_startv)
    i._Z19bmac_rx_pkt_releasev               0x000057e8   Section        0  bmac.o(i._Z19bmac_rx_pkt_releasev)
    i._Z19bmac_set_cca_thresha               0x000057f4   Section        0  bmac.o(i._Z19bmac_set_cca_thresha)
    i._Z19nrk_rem_from_readyQa               0x00005800   Section        0  nrk_task.o(i._Z19nrk_rem_from_readyQa)
    i._Z19nrk_signal_registera               0x00005854   Section        0  nrk_events.o(i._Z19nrk_signal_registera)
    i._Z19rf_auto_ack_disablev               0x0000587c   Section        0  basic_rf.o(i._Z19rf_auto_ack_disablev)
    i._Z20_nrk_get_next_wakeupv              0x0000589c   Section        0  nrk_timer.o(i._Z20_nrk_get_next_wakeupv)
    i._Z20_nrk_set_next_wakeuph              0x000058a8   Section        0  nrk_timer.o(i._Z20_nrk_set_next_wakeuph)
    i._Z20nrk_kernel_error_addhh             0x000058b4   Section        0  nrk_error.o(i._Z20nrk_kernel_error_addhh)
    i._Z20nrk_wait_until_tickst              0x000058c0   Section        0  nrk_task.o(i._Z20nrk_wait_until_tickst)
    i._Z21bmac_auto_ack_disablev             0x00005904   Section        0  bmac.o(i._Z21bmac_auto_ack_disablev)
    i._Z21traverse_base_classesPvPKSt9type_infoP28a_base_class_traversal_blockPN10__cxxabiv122__base_class_type_infoE 0x00005910   Section        0  rtti.o(i._Z21traverse_base_classesPvPKSt9type_infoP28a_base_class_traversal_blockPN10__cxxabiv122__base_class_type_infoE)
    traverse_base_classes(void*, const std::type_info*, a_base_class_traversal_block*, __cxxabiv1::__base_class_type_info*) 0x00005911   Thumb Code   158  rtti.o(i._Z21traverse_base_classesPvPKSt9type_infoP28a_base_class_traversal_blockPN10__cxxabiv122__base_class_type_infoE)
    i._Z22bmac_rx_pkt_set_bufferPch          0x000059b8   Section        0  bmac.o(i._Z22bmac_rx_pkt_set_bufferPch)
    i._Z22bmac_wait_until_rx_pktv            0x000059d8   Section        0  bmac.o(i._Z22bmac_wait_until_rx_pktv)
    i._Z22nrk_stack_pointer_initv            0x00005a0c   Section        0  nrk_cpu.o(i._Z22nrk_stack_pointer_initv)
    i._Z22rf_addr_decode_disablev            0x00005a84   Section        0  basic_rf.o(i._Z22rf_addr_decode_disablev)
    i._Z23_nrk_wait_for_schedulerv           0x00005a9c   Section        0  nrk_task.o(i._Z23_nrk_wait_for_schedulerv)
    i._Z23bmac_get_tx_done_signalv           0x00005ab0   Section        0  bmac.o(i._Z23bmac_get_tx_done_signalv)
    i._Z23find_base_class_at_addrPvS_PKSt9type_infoS2_Pi 0x00005ac8   Section        0  rtti.o(i._Z23find_base_class_at_addrPvS_PKSt9type_infoS2_Pi)
    find_base_class_at_addr(void*, void*, const std::type_info*, const std::type_info*, int*) 0x00005ac9   Thumb Code   184  rtti.o(i._Z23find_base_class_at_addrPvS_PKSt9type_infoS2_Pi)
    i._Z25_nrk_high_speed_timer_getv         0x00005b88   Section        0  nrk_timer.o(i._Z25_nrk_high_speed_timer_getv)
    i._Z25nrk_high_speed_timer_waittt        0x00005b94   Section        0  nrk_timer.o(i._Z25nrk_high_speed_timer_waittt)
    i._Z25nrk_stack_pointer_restorev         0x00005bc8   Section        0  nrk_cpu.o(i._Z25nrk_stack_pointer_restorev)
    i._Z26nrk_get_high_ready_task_IDv        0x00005c38   Section        0  nrk_task.o(i._Z26nrk_get_high_ready_task_IDv)
    i._Z26nrk_wait_until_next_periodv        0x00005c44   Section        0  nrk_task.o(i._Z26nrk_wait_until_next_periodv)
    i._Z27_nrk_high_speed_timer_resetv       0x00005c88   Section        0  nrk_timer.o(i._Z27_nrk_high_speed_timer_resetv)
    i._Z27nrk_task_set_entry_functionP9task_typePFvvE 0x00005ca0   Section        0  nrk_cpu.o(i._Z27nrk_task_set_entry_functionP9task_typePFvvE)
    i._Z28derived_to_base_conversion_rPvPS_PKSt9type_infoS3_jPiiPS3_P19a_result_virtualityS4_ 0x00005ca4   Section        0  rtti.o(i._Z28derived_to_base_conversion_rPvPS_PKSt9type_infoS3_jPiiPS3_P19a_result_virtualityS4_)
    derived_to_base_conversion_r(void*, void**, const std::type_info*, const std::type_info*, unsigned, int*, int, const std::type_info**, a_result_virtuality*, int*) 0x00005ca5   Thumb Code   480  rtti.o(i._Z28derived_to_base_conversion_rPvPS_PKSt9type_infoS3_jPiiPS3_P19a_result_virtualityS4_)
    i._Z29nrk_wait_until_next_n_periodst     0x00005e8c   Section        0  nrk_task.o(i._Z29nrk_wait_until_next_n_periodst)
    i._Z4passv                               0x00005ed8   Section        0  main.o(i._Z4passv)
    i._Z4stopv                               0x00005f20   Section        0  main.o(i._Z4stopv)
    i._Z5shootv                              0x00005f3c   Section        0  main.o(i._Z5shootv)
    i._Z5trackPj                             0x00005f84   Section        0  main.o(i._Z5trackPj)
    i._Z6_b_powh                             0x0000638c   Section        0  bmac.o(i._Z6_b_powh)
    i._Z6assigni                             0x000063b0   Section        0  main.o(i._Z6assigni)
    i._Z6rotatei                             0x00006484   Section        0  main.o(i._Z6rotatei)
    i._Z7forwardii                           0x000064ac   Section        0  main.o(i._Z7forwardii)
    i._Z7halWaitt                            0x0000651c   Section        0  hal_wait.o(i._Z7halWaitt)
    i._Z7initLEDv                            0x00006520   Section        0  ulib.o(i._Z7initLEDv)
    i._Z7led_clrv                            0x000065c4   Section        0  main.o(i._Z7led_clrv)
    i._Z7led_setv                            0x000065e2   Section        0  main.o(i._Z7led_setv)
    i._Z7rf_initP10RF_RX_INFOhtt             0x00006600   Section        0  basic_rf.o(i._Z7rf_initP10RF_RX_INFOhtt)
    i._Z7rx_taskv                            0x00006650   Section        0  main.o(i._Z7rx_taskv)
    i._Z7tx_taskv                            0x000067c4   Section        0  main.o(i._Z7tx_taskv)
    i._Z8_bmac_rxv                           0x0000710c   Section        0  bmac.o(i._Z8_bmac_rxv)
    i._Z8_bmac_txv                           0x00007174   Section        0  bmac.o(i._Z8_bmac_txv)
    i._Z8cam_initv                           0x0000723c   Section        0  main.o(i._Z8cam_initv)
    i._Z8init_adcv                           0x00007288   Section        0  adc_driver.o(i._Z8init_adcv)
    i._Z8mrf_initv                           0x00007388   Section        0  mrf24j40.o(i._Z8mrf_initv)
    i._Z8mrf_rssiv                           0x000073a8   Section        0  mrf24j40.o(i._Z8mrf_rssiv)
    i._Z8nrk_initv                           0x000073d4   Section        0  nrk.o(i._Z8nrk_initv)
    i._Z8nrk_wait10nrk_time_t                0x00007480   Section        0  nrk_task.o(i._Z8nrk_wait10nrk_time_t)
    i._Z8rf_rx_onv                           0x000074d4   Section        0  basic_rf.o(i._Z8rf_rx_onv)
    i._Z8transmiti                           0x000074f0   Section        0  main.o(i._Z8transmiti)
    i._Z9PORT_INITv                          0x00007550   Section        0  ulib.o(i._Z9PORT_INITv)
    i._Z9bmac_inith                          0x00007560   Section        0  bmac.o(i._Z9bmac_inith)
    i._Z9mrf_resetv                          0x00007630   Section        0  mrf24j40.o(i._Z9mrf_resetv)
    i._Z9nrk_startv                          0x00007710   Section        0  nrk.o(i._Z9nrk_startv)
    i._Z9rf_rx_offv                          0x0000779c   Section        0  basic_rf.o(i._Z9rf_rx_offv)
    i._Z9track_degPj                         0x000077b8   Section        0  main.o(i._Z9track_degPj)
    i._ZN4m3pi4leftEf                        0x00007b18   Section        0  m3pi.o(i._ZN4m3pi4leftEf)
    i._ZN4m3pi4stopEv                        0x00007b36   Section        0  m3pi.o(i._ZN4m3pi4stopEv)
    i._ZN4m3pi5_putcEi                       0x00007b50   Section        0  m3pi.o(i._ZN4m3pi5_putcEi)
    i._ZN4m3pi5motorEif                      0x00007b7c   Section        0  m3pi.o(i._ZN4m3pi5motorEif)
    i._ZN4m3pi5resetEv                       0x00007bc8   Section        0  m3pi.o(i._ZN4m3pi5resetEv)
    i._ZN4m3pi5rightEf                       0x00007bf4   Section        0  m3pi.o(i._ZN4m3pi5rightEf)
    i._ZN4m3pi7forwardEf                     0x00007c12   Section        0  m3pi.o(i._ZN4m3pi7forwardEf)
    i._ZN4m3pi8backwardEf                    0x00007c2e   Section        0  m3pi.o(i._ZN4m3pi8backwardEf)
    i._ZN4m3piC1E7PinNameS0_S0_              0x00007c4c   Section        0  m3pi.o(i._ZN4m3piC1E7PinNameS0_S0_)
    i._ZN4m3piD0Ev                           0x00007c9c   Section        0  m3pi.o(i._ZN4m3piD0Ev)
    i._ZN4m3piD1Ev                           0x00007cac   Section        0  main.o(i._ZN4m3piD1Ev)
    i._ZN4mbed10DigitalOutC1E7PinNamePKc     0x00007cd0   Section        0  DigitalOut.cpp.lpc1768.arm.o(i._ZN4mbed10DigitalOutC1E7PinNamePKc)
    i._ZN4mbed10DigitalOutD0Ev               0x00007cf0   Section        0  DigitalOut.cpp.lpc1768.arm.o(i._ZN4mbed10DigitalOutD0Ev)
    i._ZN4mbed10DigitalOutaSEi               0x00007cfe   Section        0  DigitalOut.cpp.lpc1768.arm.o(i._ZN4mbed10DigitalOutaSEi)
    i._ZN4mbed10FileHandle4flenEv            0x00007d0c   Section        0  stdio.cpp.lpc1768.arm.o(i._ZN4mbed10FileHandle4flenEv)
    i._ZN4mbed15FunctionPointerC1EPFvvE      0x00007d46   Section        0  FunctionPointer.cpp.lpc1768.arm.o(i._ZN4mbed15FunctionPointerC1EPFvvE)
    i._ZN4mbed3I2C4readEiPci                 0x00007d50   Section        0  I2C.cpp.lpc1768.arm.o(i._ZN4mbed3I2C4readEiPci)
    i._ZN4mbed3I2C5writeEiPKci               0x00007d84   Section        0  I2C.cpp.lpc1768.arm.o(i._ZN4mbed3I2C5writeEiPKci)
    i._ZN4mbed3I2CC1E7PinNameS1_PKc          0x00007db8   Section        0  I2C.cpp.lpc1768.arm.o(i._ZN4mbed3I2CC1E7PinNameS1_PKc)
    i._ZN4mbed3I2CD0Ev                       0x00007de8   Section        0  I2C.cpp.lpc1768.arm.o(i._ZN4mbed3I2CD0Ev)
    i._ZN4mbed3I2CD1Ev                       0x00007df6   Section        0  I2C.cpp.lpc1768.arm.o(i._ZN4mbed3I2CD1Ev)
    i._ZN4mbed4Base5clearEPKcPc              0x00007dfc   Section        0  Base.cpp.lpc1768.arm.o(i._ZN4mbed4Base5clearEPKcPc)
    i._ZN4mbed4Base6lookupEPKcj              0x00007e2c   Section        0  Base.cpp.lpc1768.arm.o(i._ZN4mbed4Base6lookupEPKcj)
    i._ZN4mbed4Base9list_objsEPKcPc          0x00007e64   Section        0  Base.cpp.lpc1768.arm.o(i._ZN4mbed4Base9list_objsEPKcPc)
    i._ZN4mbed4BaseC1EPKc                    0x00007ea4   Section        0  Base.cpp.lpc1768.arm.o(i._ZN4mbed4BaseC1EPKc)
    i._ZN4mbed4BaseD0Ev                      0x00007ec8   Section        0  Base.cpp.lpc1768.arm.o(i._ZN4mbed4BaseD0Ev)
    i._ZN4mbed4BaseD1Ev                      0x00007efc   Section        0  Base.cpp.lpc1768.arm.o(i._ZN4mbed4BaseD1Ev)
    i._ZN4mbed6PwmOutC1E7PinNamePKc          0x00007f34   Section        0  PwmOut.cpp.lpc1768.arm.o(i._ZN4mbed6PwmOutC1E7PinNamePKc)
    i._ZN4mbed6PwmOutD0Ev                    0x00007f54   Section        0  PwmOut.cpp.lpc1768.arm.o(i._ZN4mbed6PwmOutD0Ev)
    i._ZN4mbed6PwmOutD1Ev                    0x00007f62   Section        0  PwmOut.cpp.lpc1768.arm.o(i._ZN4mbed6PwmOutD1Ev)
    i._ZN4mbed6Serial4baudEi                 0x00007f66   Section        0  Serial.cpp.lpc1768.arm.o(i._ZN4mbed6Serial4baudEi)
    i._ZN4mbed6Serial5_putcEi                0x00007f6c   Section        0  Serial.cpp.lpc1768.arm.o(i._ZN4mbed6Serial5_putcEi)
    i._ZN4mbed6SerialC1E7PinNameS1_PKc       0x00007f7c   Section        0  Serial.cpp.lpc1768.arm.o(i._ZN4mbed6SerialC1E7PinNameS1_PKc)
    i._ZN4mbed6SerialD0Ev                    0x00007fb0   Section        0  Serial.cpp.lpc1768.arm.o(i._ZN4mbed6SerialD0Ev)
    i._ZN4mbed6Stream4putcEi                 0x00007fbe   Section        0  Stream.cpp.lpc1768.arm.o(i._ZN4mbed6Stream4putcEi)
    i._ZN4mbed6StreamC2EPKc                  0x00007fd8   Section        0  Stream.cpp.lpc1768.arm.o(i._ZN4mbed6StreamC2EPKc)
    i._ZN4mbed6StreamD0Ev                    0x00008018   Section        0  Stream.cpp.lpc1768.arm.o(i._ZN4mbed6StreamD0Ev)
    i._ZN4mbed6StreamD2Ev                    0x0000803c   Section        0  Stream.cpp.lpc1768.arm.o(i._ZN4mbed6StreamD2Ev)
    i._ZN4mbed8FileLikeD0Ev                  0x0000805c   Section        0  stdio.cpp.lpc1768.arm.o(i._ZN4mbed8FileLikeD0Ev)
    i._ZN4mbed8FileLikeD2Ev                  0x00008098   Section        0  stdio.cpp.lpc1768.arm.o(i._ZN4mbed8FileLikeD2Ev)
    i._ZNKSt9type_infoeqERKS_                0x000080cc   Section        0  type_info_eq.o(i._ZNKSt9type_infoeqERKS_)
    i._ZSt3absd                              0x000080ec   Section        0  main.o(i._ZSt3absd)
    i._ZThn16_N4mbed6Stream4flenEv           0x000080f2   Section        0  Stream.cpp.lpc1768.arm.o(i._ZThn16_N4mbed6Stream4flenEv)
    i._ZThn16_N4mbed6Stream5closeEv          0x000080f6   Section        0  Stream.cpp.lpc1768.arm.o(i._ZThn16_N4mbed6Stream5closeEv)
    i._ZThn16_N4mbed6Stream5lseekEli         0x000080fa   Section        0  Stream.cpp.lpc1768.arm.o(i._ZThn16_N4mbed6Stream5lseekEli)
    i._ZThn16_N4mbed6Stream5writeEPKvj       0x000080fe   Section        0  Stream.cpp.lpc1768.arm.o(i._ZThn16_N4mbed6Stream5writeEPKvj)
    i._ZThn16_N4mbed6Stream6isattyEv         0x0000812a   Section        0  Stream.cpp.lpc1768.arm.o(i._ZThn16_N4mbed6Stream6isattyEv)
    i._ZdaPv                                 0x0000812e   Section        0  array_del.o(i._ZdaPv)
    i._ZdlPv                                 0x00008136   Section        0  delete.o(i._ZdlPv)
    i.__ARM_common_get_typeid                0x0000813e   Section        0  rtti.o(i.__ARM_common_get_typeid)
    i.__ARM_fpclassify                       0x0000815e   Section        0  fpclassify.o(i.__ARM_fpclassify)
    i.__aeabi_atexit                         0x00008186   Section        0  aeabi_atexit.o(i.__aeabi_atexit)
    i.__cxa_finalize                         0x000081b6   Section        0  cxa_finalize.o(i.__cxa_finalize)
    i.__cxa_pure_virtual                     0x000081f8   Section        0  pure_virt.o(i.__cxa_pure_virtual)
    i.__derived_to_base_conversion           0x00008200   Section        0  rtti.o(i.__derived_to_base_conversion)
    i.__dynamic_cast                         0x00008270   Section        0  rtti.o(i.__dynamic_cast)
    i.__ieee754_rem_pio2                     0x00008320   Section        0  rred.o(i.__ieee754_rem_pio2)
    i.__kernel_cos                           0x000086a4   Section        0  cos_i.o(i.__kernel_cos)
    i.__kernel_poly                          0x000087a0   Section        0  poly.o(i.__kernel_poly)
    i.__kernel_sin                           0x0000884c   Section        0  sin_i.o(i.__kernel_sin)
    i.__mathlib_dbl_underflow                0x00008938   Section        0  dunder.o(i.__mathlib_dbl_underflow)
    i.__mathlib_flt_underflow                0x00008948   Section        0  funder.o(i.__mathlib_flt_underflow)
    i.__mathlib_narrow                       0x00008952   Section        0  narrow.o(i.__mathlib_narrow)
    i.__mathlib_tofloat                      0x00008964   Section        0  narrow.o(i.__mathlib_tofloat)
    i.__sti___8_main_cpp                     0x000089ec   Section        0  main.o(i.__sti___8_main_cpp)
    __sti___8_main_cpp                       0x000089ed   Thumb Code    74  main.o(i.__sti___8_main_cpp)
    i.__support_ldexp                        0x00008a50   Section        0  ldexp.o(i.__support_ldexp)
    i.__user_setup_stackheap                 0x00008a68   Section        0  stackheap.o(i.__user_setup_stackheap)
    i._is_digit                              0x00008a74   Section        0  __printf_wp.o(i._is_digit)
    i._nrk_timer_tick                        0x00008a82   Section        0  nrk.o(i._nrk_timer_tick)
    i._sys_close                             0x00008a88   Section        0  stdio.cpp.lpc1768.arm.o(i._sys_close)
    i._sys_flen                              0x00008ab4   Section        0  stdio.cpp.lpc1768.arm.o(i._sys_flen)
    i._sys_istty                             0x00008adc   Section        0  stdio.cpp.lpc1768.arm.o(i._sys_istty)
    i._sys_open                              0x00008b04   Section        0  stdio.cpp.lpc1768.arm.o(i._sys_open)
    i._sys_seek                              0x00008c88   Section        0  stdio.cpp.lpc1768.arm.o(i._sys_seek)
    i._sys_write                             0x00008cb4   Section        0  stdio.cpp.lpc1768.arm.o(i._sys_write)
    i.atan                                   0x00008d08   Section        0  atan.o(i.atan)
    i.atan2                                  0x00008f2c   Section        0  atan2.o(i.atan2)
    i.cos                                    0x000090ac   Section        0  cos.o(i.cos)
    i.exit                                   0x00009158   Section        0  exit.c.lpc1768.arm.o(i.exit)
    i.fputc                                  0x0000916e   Section        0  fputc.o(i.fputc)
    i.frexp                                  0x00009188   Section        0  frexp.o(i.frexp)
    i.gpio_output                            0x000091e0   Section        0  gpio_api.c.lpc1768.arm.o(i.gpio_output)
    i.gpio_write                             0x00009210   Section        0  gpio_api.c.lpc1768.arm.o(i.gpio_write)
    i.i2c_do_read                            0x00009228   Section        0  i2c_api.c.lpc1768.arm.o(i.i2c_do_read)
    i2c_do_read                              0x00009229   Thumb Code    40  i2c_api.c.lpc1768.arm.o(i.i2c_do_read)
    i.i2c_frequency                          0x00009250   Section        0  i2c_api.c.lpc1768.arm.o(i.i2c_frequency)
    i.i2c_init                               0x00009268   Section        0  i2c_api.c.lpc1768.arm.o(i.i2c_init)
    i.i2c_read                               0x00009338   Section        0  i2c_api.c.lpc1768.arm.o(i.i2c_read)
    i.i2c_start                              0x000093ce   Section        0  i2c_api.c.lpc1768.arm.o(i.i2c_start)
    i2c_start                                0x000093cf   Thumb Code    56  i2c_api.c.lpc1768.arm.o(i.i2c_start)
    i.i2c_stop                               0x00009406   Section        0  i2c_api.c.lpc1768.arm.o(i.i2c_stop)
    i2c_stop                                 0x00009407   Thumb Code    18  i2c_api.c.lpc1768.arm.o(i.i2c_stop)
    i.i2c_write                              0x00009418   Section        0  i2c_api.c.lpc1768.arm.o(i.i2c_write)
    i.ldexp                                  0x00009484   Section        0  ldexp.o(i.ldexp)
    i.main                                   0x00009504   Section        0  main.o(i.main)
    i.mbed_die                               0x00009598   Section        0  utils_api.c.lpc1768.arm.o(i.mbed_die)
    i.pin_function                           0x00009610   Section        0  pinmap.c.lpc1768.arm.o(i.pin_function)
    i.pin_mode                               0x00009648   Section        0  pinmap.c.lpc1768.arm.o(i.pin_mode)
    i.pinmap_merge                           0x00009680   Section        0  pinmap.c.lpc1768.arm.o(i.pinmap_merge)
    i.pinmap_peripheral                      0x000096bc   Section        0  pinmap.c.lpc1768.arm.o(i.pinmap_peripheral)
    i.pinmap_pinout                          0x00009714   Section        0  pinmap.c.lpc1768.arm.o(i.pinmap_pinout)
    i.pwmout_init                            0x000097b8   Section        0  pwmout_api.c.lpc1768.arm.o(i.pwmout_init)
    i.pwmout_period_us                       0x00009854   Section        0  pwmout_api.c.lpc1768.arm.o(i.pwmout_period_us)
    i.scalbnf                                0x00009890   Section        0  scalbnf.o(i.scalbnf)
    i.semihost_exit                          0x000098ea   Section        0  semihost_api.c.lpc1768.arm.o(i.semihost_exit)
    i.serial_baud                            0x000098f8   Section        0  serial_api.c.lpc1768.arm.o(i.serial_baud)
    i.serial_format                          0x000099f8   Section        0  serial_api.c.lpc1768.arm.o(i.serial_format)
    i.serial_init                            0x00009a8c   Section        0  serial_api.c.lpc1768.arm.o(i.serial_init)
    i.serial_putc                            0x00009b70   Section        0  serial_api.c.lpc1768.arm.o(i.serial_putc)
    i.sin                                    0x00009b7c   Section        0  sin.o(i.sin)
    i.sqrt                                   0x00009c2c   Section        0  sqrt.o(i.sqrt)
    i.timer_frequency                        0x00009c78   Section        0  timer_api.c.lpc1768.arm.o(i.timer_frequency)
    i.timer_init                             0x00009c8c   Section        0  timer_api.c.lpc1768.arm.o(i.timer_init)
    i.timer_read                             0x00009cfc   Section        0  timer_api.c.lpc1768.arm.o(i.timer_read)
    i.timer_start                            0x00009d00   Section        0  timer_api.c.lpc1768.arm.o(i.timer_start)
